ARM GAS  C:\DOCUME~1\ADMINI~1\LOCALS~1\Temp\cc6GBC3y.s 			page 1


   1              		.cpu arm7tdmi
   2              		.fpu softvfp
   3              		.eabi_attribute 20, 1
   4              		.eabi_attribute 21, 1
   5              		.eabi_attribute 23, 3
   6              		.eabi_attribute 24, 1
   7              		.eabi_attribute 25, 1
   8              		.eabi_attribute 26, 2
   9              		.eabi_attribute 30, 2
  10              		.eabi_attribute 18, 4
  11              		.file	"device.c"
  18 0000 14040000 		.text
  18      02008200 
  18      00000201 
  18      FB0E0D00 
  18      01010101 
  19              	.Ltext0:
  20              		.cfi_sections	.debug_frame
  21              		.align	2
  22              		.global	DEV_TimerInit
  23              		.type	DEV_TimerInit, %function
  24              	DEV_TimerInit:
  25              		.fnstart
  26              	.LFB6:
  27              		.file 1 "../srccode/device.c"
   1:../srccode/device.c **** 
   2:../srccode/device.c **** #include "device.h"
   3:../srccode/device.c **** 
   4:../srccode/device.c **** 
   5:../srccode/device.c **** BUFPOOL gstrBufPool;                /* 消息缓冲池 */
   6:../srccode/device.c **** M_CHAIN* gpstrMsgBufPt;             /* 消息缓冲指针 */
   7:../srccode/device.c **** 
   8:../srccode/device.c **** 
   9:../srccode/device.c **** /***********************************************************************************
  10:../srccode/device.c **** 函数功能: 初始化软件.
  11:../srccode/device.c **** 入口参数: none.
  12:../srccode/device.c **** 返 回 值: none.
  13:../srccode/device.c **** ***********************************************************************************/
  14:../srccode/device.c **** void DEV_SoftwareInit(void)
  15:../srccode/device.c **** {
  16:../srccode/device.c ****     /* 初始化消息缓冲池 */
  17:../srccode/device.c ****     DEV_BufferInit(&gstrBufPool);
  18:../srccode/device.c **** 
  19:../srccode/device.c ****     /* 创建打印消息的队列 */
  20:../srccode/device.c ****     (void)MDS_QueCreate(&gstrPrtMsgQue);
  21:../srccode/device.c **** 
  22:../srccode/device.c ****     /* 创建计数信号量 */
  23:../srccode/device.c ****     (void)MDS_SemCreate(&gstrSemCnt, SEMCNT | SEMFIFO, SEMEMPTY);
  24:../srccode/device.c **** 
  25:../srccode/device.c **** #ifdef MDS_INCLUDETASKHOOK
  26:../srccode/device.c **** 
ARM GAS  C:\DOCUME~1\ADMINI~1\LOCALS~1\Temp\cc6GBC3y.s 			page 2


  27:../srccode/device.c ****     /* 挂接任务钩子函数 */
  28:../srccode/device.c ****     MDS_TaskCreateHookAdd(TEST_TaskCreatePrint);
  29:../srccode/device.c ****     MDS_TaskSwitchHookAdd(TEST_TaskSwitchPrint);
  30:../srccode/device.c ****     MDS_TaskDeleteHookAdd(TEST_TaskDeletePrint);
  31:../srccode/device.c **** 
  32:../srccode/device.c **** #endif
  33:../srccode/device.c **** 
  34:../srccode/device.c ****     gpstrMsgBufPt = (M_CHAIN*)NULL;
  35:../srccode/device.c **** }
  36:../srccode/device.c **** 
  37:../srccode/device.c **** /***********************************************************************************
  38:../srccode/device.c **** 函数功能: 初始化硬件.
  39:../srccode/device.c **** 入口参数: none.
  40:../srccode/device.c **** 返 回 值: none.
  41:../srccode/device.c **** ***********************************************************************************/
  42:../srccode/device.c **** void DEV_HardwareInit(void)
  43:../srccode/device.c **** {
  44:../srccode/device.c ****     /* 设置GPIO管脚模式 */
  45:../srccode/device.c ****     DEV_SetGpioMode();
  46:../srccode/device.c **** 
  47:../srccode/device.c ****     /* 初始化tick定时器 */
  48:../srccode/device.c ****     (void)MDS_TickTimerInit(DEV_TimerInit);
  49:../srccode/device.c **** 
  50:../srccode/device.c ****     /* 初始化串口 */
  51:../srccode/device.c ****     DEV_UartInit();
  52:../srccode/device.c **** 
  53:../srccode/device.c ****     /* 初始化中断 */
  54:../srccode/device.c ****     DEV_IsrInit();
  55:../srccode/device.c **** }
  56:../srccode/device.c **** 
  57:../srccode/device.c **** /***********************************************************************************
  58:../srccode/device.c **** 函数功能: 初始化中断.
  59:../srccode/device.c **** 入口参数: none.
  60:../srccode/device.c **** 返 回 值: none.
  61:../srccode/device.c **** ***********************************************************************************/
  62:../srccode/device.c **** void DEV_IsrInit(void)
  63:../srccode/device.c **** {
  64:../srccode/device.c ****     /* 使能定时器1的IRQ中断 */
  65:../srccode/device.c ****     IRQEN = TIME1INTMASK;
  66:../srccode/device.c **** 
  67:../srccode/device.c ****     /* 挂接FIQ中断处理函数 */
  68:../srccode/device.c ****     FIQ = INT_FiqFunc;
  69:../srccode/device.c **** 
  70:../srccode/device.c ****     /* 使能UATR的FIQ中断 */
  71:../srccode/device.c ****     FIQEN = UARTINTMASK;
  72:../srccode/device.c **** }
  73:../srccode/device.c **** 
  74:../srccode/device.c **** /***********************************************************************************
  75:../srccode/device.c **** 函数功能: 初始化串口.
  76:../srccode/device.c **** 入口参数: none.
  77:../srccode/device.c **** 返 回 值: none.
  78:../srccode/device.c **** ***********************************************************************************/
  79:../srccode/device.c **** void DEV_UartInit(void)
  80:../srccode/device.c **** {
  81:../srccode/device.c ****     COMDIV2 = 0;
  82:../srccode/device.c ****     COMIEN0 = 0x03;     /* 打开串口收发中断 */
  83:../srccode/device.c **** 
ARM GAS  C:\DOCUME~1\ADMINI~1\LOCALS~1\Temp\cc6GBC3y.s 			page 3


  84:../srccode/device.c ****     /* 允许访问COMDIV0和COMDIV1寄存器 */
  85:../srccode/device.c ****     COMCON0 = 0x83;
  86:../srccode/device.c ****     COMDIV0 = 0x88;     /* 9600波特率 */
  87:../srccode/device.c ****     COMDIV1 = 0;
  88:../srccode/device.c **** 
  89:../srccode/device.c ****     /* 允许访问COMRX和COMTX, 1开始位1停止位8bits */
  90:../srccode/device.c ****     COMCON0 = 3;
  91:../srccode/device.c **** }
  92:../srccode/device.c **** 
  93:../srccode/device.c **** /***********************************************************************************
  94:../srccode/device.c **** 函数功能: 向串口发送一个字符.
  95:../srccode/device.c **** 入口参数: ucChar: 输出的字符.
  96:../srccode/device.c **** 返 回 值: none.
  97:../srccode/device.c **** ***********************************************************************************/
  98:../srccode/device.c **** void DEV_PutChar(U8 ucChar)
  99:../srccode/device.c **** {
 100:../srccode/device.c ****     /* 串口发送忙状态 */
 101:../srccode/device.c ****     while(0x0 == (COMSTA0 & 0x40))
 102:../srccode/device.c ****     {
 103:../srccode/device.c ****         ;
 104:../srccode/device.c ****     }
 105:../srccode/device.c **** 
 106:../srccode/device.c ****     COMTX = ucChar;
 107:../srccode/device.c **** }
 108:../srccode/device.c **** 
 109:../srccode/device.c **** /***********************************************************************************
 110:../srccode/device.c **** 函数功能: 将字符串打印到内存, 结尾不包含NULL. 该函数第一个入口参数必须为字符串指针,
 111:../srccode/device.c ****           字符串内只支持%d/%x/%s格式, 其余参数支持定点及字符串.
 112:../srccode/device.c **** 入口参数: pvStringPt: 第一个参数的指针, 必须为字符串指针.
 113:../srccode/device.c ****           ...: 其他参数.
 114:../srccode/device.c **** 返 回 值: none.
 115:../srccode/device.c **** ***********************************************************************************/
 116:../srccode/device.c **** void DEV_PutStrToMem(U8* pvStringPt, ...)
 117:../srccode/device.c **** {
 118:../srccode/device.c ****     U8** ppucParaPt;
 119:../srccode/device.c ****     MSGBUF* pstrMsgBuf;
 120:../srccode/device.c ****     U8* pucStrPt1;
 121:../srccode/device.c ****     U8* pucStrPt2;
 122:../srccode/device.c ****     U32 uiMsgCntInStr;
 123:../srccode/device.c ****     U32 uiMsgCntInBuf;
 124:../srccode/device.c ****     U32 uiPower;
 125:../srccode/device.c ****     U32 uiPara;
 126:../srccode/device.c ****     U8 ucNumSign;
 127:../srccode/device.c ****     U8 ucNum;
 128:../srccode/device.c ****     U8 i;
 129:../srccode/device.c **** 
 130:../srccode/device.c ****     /* 申请buf */
 131:../srccode/device.c ****     pstrMsgBuf = (MSGBUF*)DEV_BufferAlloc(&gstrBufPool);
 132:../srccode/device.c ****     if(NULL == pstrMsgBuf)
 133:../srccode/device.c ****     {
 134:../srccode/device.c ****         return;
 135:../srccode/device.c ****     }
 136:../srccode/device.c **** 
 137:../srccode/device.c ****     uiMsgCntInStr = 0;
 138:../srccode/device.c ****     uiMsgCntInBuf = 0;
 139:../srccode/device.c **** 
 140:../srccode/device.c ****     /* 获取入口参数在堆栈中的起始地址 */
ARM GAS  C:\DOCUME~1\ADMINI~1\LOCALS~1\Temp\cc6GBC3y.s 			page 4


 141:../srccode/device.c ****     ppucParaPt = &pvStringPt;
 142:../srccode/device.c **** 
 143:../srccode/device.c ****     /* 第一个参数中字符串的所在地址 */
 144:../srccode/device.c ****     pucStrPt1 = *ppucParaPt;
 145:../srccode/device.c **** 
 146:../srccode/device.c ****     /* 指向第二个入口参数, 即第一个需要转换的参数的地址 */
 147:../srccode/device.c ****     ppucParaPt++;
 148:../srccode/device.c **** 
 149:../srccode/device.c ****     /* 循环处理第一个字符串参数 */
 150:../srccode/device.c ****     while(0 != pucStrPt1[uiMsgCntInStr])
 151:../srccode/device.c ****     {
 152:../srccode/device.c ****         /* 打印的消息超过buf长度则退出 */
 153:../srccode/device.c ****         if(uiMsgCntInBuf >= MSGBUFLEN)
 154:../srccode/device.c ****         {
 155:../srccode/device.c ****             break;
 156:../srccode/device.c ****         }
 157:../srccode/device.c **** 
 158:../srccode/device.c ****         /* 非%号不需要转换字符, 直接copy到buf */
 159:../srccode/device.c ****         if('%' != pucStrPt1[uiMsgCntInStr])
 160:../srccode/device.c ****         {
 161:../srccode/device.c ****             pstrMsgBuf->aucBuf[uiMsgCntInBuf] = pucStrPt1[uiMsgCntInStr];
 162:../srccode/device.c ****             uiMsgCntInStr++;
 163:../srccode/device.c ****             uiMsgCntInBuf++;
 164:../srccode/device.c ****         }
 165:../srccode/device.c ****         else /* 需要转换参数 */
 166:../srccode/device.c ****         {
 167:../srccode/device.c ****             /* 指向%号后面的字符 */
 168:../srccode/device.c ****             uiMsgCntInStr++;
 169:../srccode/device.c **** 
 170:../srccode/device.c ****             /* 将参数转换为10进制ASCII码 */
 171:../srccode/device.c ****             if('d' == pucStrPt1[uiMsgCntInStr])
 172:../srccode/device.c ****             {
 173:../srccode/device.c ****                 /* 0xFFFFFFFF对应10进制的最大幂 */
 174:../srccode/device.c ****                 uiPower = 1000000000;
 175:../srccode/device.c **** 
 176:../srccode/device.c ****                 ucNumSign = 0;
 177:../srccode/device.c **** 
 178:../srccode/device.c ****                 uiPara = (U32)*ppucParaPt;
 179:../srccode/device.c **** 
 180:../srccode/device.c ****                 /* 参数不为0, 需要转换 */
 181:../srccode/device.c ****                 if(0 != uiPara)
 182:../srccode/device.c ****                 {
 183:../srccode/device.c ****                     for(i = 0; i < 10; i++)
 184:../srccode/device.c ****                     {
 185:../srccode/device.c ****                         ucNum = (U8)(uiPara / uiPower);
 186:../srccode/device.c ****                         if(0 != ucNum)
 187:../srccode/device.c ****                         {
 188:../srccode/device.c ****                             /* 第一个不为0的高位, 需要输出 */
 189:../srccode/device.c ****                             ucNumSign = 1;
 190:../srccode/device.c ****                         }
 191:../srccode/device.c **** 
 192:../srccode/device.c ****                         if(1 == ucNumSign)
 193:../srccode/device.c ****                         {
 194:../srccode/device.c ****                             /* 打印的消息超过buf长度则退出 */
 195:../srccode/device.c ****                             if(uiMsgCntInBuf >= MSGBUFLEN)
 196:../srccode/device.c ****                             {
 197:../srccode/device.c ****                                 break;
ARM GAS  C:\DOCUME~1\ADMINI~1\LOCALS~1\Temp\cc6GBC3y.s 			page 5


 198:../srccode/device.c ****                             }
 199:../srccode/device.c **** 
 200:../srccode/device.c ****                             pstrMsgBuf->aucBuf[uiMsgCntInBuf] = DEV_Num2Asc(ucNum);
 201:../srccode/device.c ****                             uiMsgCntInBuf++;
 202:../srccode/device.c ****                         }
 203:../srccode/device.c **** 
 204:../srccode/device.c ****                         /* 准备输出下一位 */
 205:../srccode/device.c ****                         uiPara -= ucNum * uiPower;
 206:../srccode/device.c ****                         uiPower /= 10;
 207:../srccode/device.c ****                     }
 208:../srccode/device.c **** 
 209:../srccode/device.c ****                     /* 指向d后面的字符 */
 210:../srccode/device.c ****                     uiMsgCntInStr++;
 211:../srccode/device.c ****                 }
 212:../srccode/device.c ****                 else /* 参数为0, 直接输出0 */
 213:../srccode/device.c ****                 {
 214:../srccode/device.c ****                     pstrMsgBuf->aucBuf[uiMsgCntInBuf] = DEV_Num2Asc(0);
 215:../srccode/device.c ****                     uiMsgCntInStr++;
 216:../srccode/device.c ****                     uiMsgCntInBuf++;
 217:../srccode/device.c ****                 }
 218:../srccode/device.c **** 
 219:../srccode/device.c ****                 /* 指向下一个需要转换的参数 */
 220:../srccode/device.c ****                 ppucParaPt++;
 221:../srccode/device.c ****             }
 222:../srccode/device.c ****             /* 将参数转换为16进制ASCII码 */
 223:../srccode/device.c ****             else if('x' == pucStrPt1[uiMsgCntInStr])
 224:../srccode/device.c ****             {
 225:../srccode/device.c ****                 /* 0xFFFFFFFF对应16进制的最大幂 */
 226:../srccode/device.c ****                 uiPower = 0x10000000;
 227:../srccode/device.c **** 
 228:../srccode/device.c ****                 ucNumSign = 0;
 229:../srccode/device.c **** 
 230:../srccode/device.c ****                 uiPara = (U32)*ppucParaPt;
 231:../srccode/device.c **** 
 232:../srccode/device.c ****                 /* 参数不为0, 需要转换 */
 233:../srccode/device.c ****                 if(0 != uiPara)
 234:../srccode/device.c ****                 {
 235:../srccode/device.c ****                     for(i = 0; i < 8; i++)
 236:../srccode/device.c ****                     {
 237:../srccode/device.c ****                         ucNum = (U8)(uiPara / uiPower);
 238:../srccode/device.c ****                         if(0 != ucNum)
 239:../srccode/device.c ****                         {
 240:../srccode/device.c ****                             /* 第一个不为0的高位, 需要输出 */
 241:../srccode/device.c ****                             ucNumSign = 1;
 242:../srccode/device.c ****                         }
 243:../srccode/device.c **** 
 244:../srccode/device.c ****                         if(1 == ucNumSign)
 245:../srccode/device.c ****                         {
 246:../srccode/device.c ****                             /* 打印的消息超过buf长度则退出 */
 247:../srccode/device.c ****                             if(uiMsgCntInBuf >= MSGBUFLEN)
 248:../srccode/device.c ****                             {
 249:../srccode/device.c ****                                 break;
 250:../srccode/device.c ****                             }
 251:../srccode/device.c **** 
 252:../srccode/device.c ****                             pstrMsgBuf->aucBuf[uiMsgCntInBuf] = DEV_Num2Asc(ucNum);
 253:../srccode/device.c ****                             uiMsgCntInBuf++;
 254:../srccode/device.c ****                         }
ARM GAS  C:\DOCUME~1\ADMINI~1\LOCALS~1\Temp\cc6GBC3y.s 			page 6


 255:../srccode/device.c **** 
 256:../srccode/device.c ****                         /* 准备输出下一位 */
 257:../srccode/device.c ****                         uiPara -= ucNum * uiPower;
 258:../srccode/device.c ****                         uiPower /= 16;
 259:../srccode/device.c ****                     }
 260:../srccode/device.c **** 
 261:../srccode/device.c ****                     /* 指向d后面的字符 */
 262:../srccode/device.c ****                     uiMsgCntInStr++;
 263:../srccode/device.c ****                 }
 264:../srccode/device.c ****                 else /* 参数为0, 直接输出0 */
 265:../srccode/device.c ****                 {
 266:../srccode/device.c ****                     pstrMsgBuf->aucBuf[uiMsgCntInBuf] = DEV_Num2Asc(0);
 267:../srccode/device.c ****                     uiMsgCntInStr++;
 268:../srccode/device.c ****                     uiMsgCntInBuf++;
 269:../srccode/device.c ****                 }
 270:../srccode/device.c **** 
 271:../srccode/device.c ****                 /* 指向下一个需要转换的参数 */
 272:../srccode/device.c ****                 ppucParaPt++;
 273:../srccode/device.c ****             }
 274:../srccode/device.c ****             /* 将参数中的字符串copy到缓冲 */
 275:../srccode/device.c ****             else if('s' == pucStrPt1[uiMsgCntInStr])
 276:../srccode/device.c ****             {
 277:../srccode/device.c ****                 /* 获取需要转换的字符串参数的指针 */
 278:../srccode/device.c ****                 pucStrPt2 = (U8*)(*ppucParaPt);
 279:../srccode/device.c **** 
 280:../srccode/device.c ****                 /* copy字符串, 不包含结尾的NULL */
 281:../srccode/device.c ****                 for(i = 0; 0 != pucStrPt2[i]; i++)
 282:../srccode/device.c ****                 {
 283:../srccode/device.c ****                     /* 打印的消息超过buf长度则退出 */
 284:../srccode/device.c ****                     if(uiMsgCntInBuf >= MSGBUFLEN)
 285:../srccode/device.c ****                     {
 286:../srccode/device.c ****                         break;
 287:../srccode/device.c ****                     }
 288:../srccode/device.c **** 
 289:../srccode/device.c ****                     pstrMsgBuf->aucBuf[uiMsgCntInBuf] = pucStrPt2[i];
 290:../srccode/device.c ****                     uiMsgCntInBuf++;
 291:../srccode/device.c ****                 }
 292:../srccode/device.c **** 
 293:../srccode/device.c ****                 /* 指向s后面的字符 */
 294:../srccode/device.c ****                 uiMsgCntInStr++;
 295:../srccode/device.c **** 
 296:../srccode/device.c ****                 /* 指向下一个需要转换的参数 */
 297:../srccode/device.c ****                 ppucParaPt++;
 298:../srccode/device.c ****             }
 299:../srccode/device.c ****             /* %号后非规定字符则视%号为普通字符 */
 300:../srccode/device.c ****             else
 301:../srccode/device.c ****             {
 302:../srccode/device.c ****                 /* 将%号copy进缓冲区 */
 303:../srccode/device.c ****                 pstrMsgBuf->aucBuf[uiMsgCntInBuf] = '%';
 304:../srccode/device.c ****                 uiMsgCntInBuf++;
 305:../srccode/device.c ****             }
 306:../srccode/device.c ****         }
 307:../srccode/device.c ****     }
 308:../srccode/device.c **** 
 309:../srccode/device.c ****     /* 填充buf参数 */
 310:../srccode/device.c ****     pstrMsgBuf->ucLength = (U8)uiMsgCntInBuf;
 311:../srccode/device.c ****     pstrMsgBuf->ucCounter = 0;
ARM GAS  C:\DOCUME~1\ADMINI~1\LOCALS~1\Temp\cc6GBC3y.s 			page 7


 312:../srccode/device.c **** 
 313:../srccode/device.c ****     /* 将buf挂入队列 */
 314:../srccode/device.c ****     (void)MDS_QuePut(&gstrPrtMsgQue, &pstrMsgBuf->strChain);
 315:../srccode/device.c **** }
 316:../srccode/device.c **** 
 317:../srccode/device.c **** /***********************************************************************************
 318:../srccode/device.c **** 函数功能: 初始化定时器.
 319:../srccode/device.c **** 入口参数: none.
 320:../srccode/device.c **** 返 回 值: none.
 321:../srccode/device.c **** ***********************************************************************************/
 322:../srccode/device.c **** void DEV_TimerInit(void)
 323:../srccode/device.c **** {
  28              		.loc 1 323 0
  29              		.cfi_startproc
  30              		@ Function supports interworking.
  31              		@ args = 0, pretend = 0, frame = 0
  32              		@ frame_needed = 0, uses_anonymous_args = 0
  33              		@ link register save eliminated.
 324:../srccode/device.c ****     /* 设置Timer1, Timer1作为系统的tick时钟 */
 325:../srccode/device.c ****     T1LD = TICK * (CORECLOCKPMS / 1000);    /* 设置tick时间 */
  34              		.loc 1 325 0
  35 0000 10009FE5 		ldr	r0, .L2
  36 0004 0F3AE0E3 		mvn	r3, #61440
 326:../srccode/device.c ****     T1CON = 0xC0;               /* 使能定时器1, 时钟频率41.78M, 周期循环向下计数  */
  37              		.loc 1 326 0
  38 0008 C020A0E3 		mov	r2, #192
 325:../srccode/device.c ****     T1LD = TICK * (CORECLOCKPMS / 1000);    /* 设置tick时间 */
  39              		.loc 1 325 0
  40 000c DF0C03E5 		str	r0, [r3, #-3295]
  41              		.loc 1 326 0
  42 0010 D72C03E5 		str	r2, [r3, #-3287]
 327:../srccode/device.c **** }
  43              		.loc 1 327 0
  44 0014 1EFF2FE1 		bx	lr
  45              	.L3:
  46              		.align	2
  47              	.L2:
  48 0018 08600600 		.word	417800
  49              		.cfi_endproc
  50              	.LFE6:
  51              		.fnend
  52              		.size	DEV_TimerInit, .-DEV_TimerInit
  53              		.align	2
  54              		.global	DEV_HardwareInit
  55              		.type	DEV_HardwareInit, %function
  56              	DEV_HardwareInit:
  57              		.fnstart
  58              	.LFB1:
  43:../srccode/device.c **** {
  59              		.loc 1 43 0
  60              		.cfi_startproc
  61              		@ Function supports interworking.
  62              		@ args = 0, pretend = 0, frame = 0
  63              		@ frame_needed = 1, uses_anonymous_args = 0
  64              		.movsp ip
  65 001c 0DC0A0E1 		mov	ip, sp
  66              	.LCFI0:
ARM GAS  C:\DOCUME~1\ADMINI~1\LOCALS~1\Temp\cc6GBC3y.s 			page 8


  67              		.cfi_def_cfa_register 12
  68 0020 00D82DE9 		stmfd	sp!, {fp, ip, lr, pc}
  69              		.pad #4
  70              		.save {fp, ip, lr}
  71              	.LBB18:
  72              	.LBB19:
 328:../srccode/device.c **** 
 329:../srccode/device.c **** /***********************************************************************************
 330:../srccode/device.c **** 函数功能: 设置各个GPIO的工作模式.
 331:../srccode/device.c **** 入口参数: none.
 332:../srccode/device.c **** 返 回 值: none.
 333:../srccode/device.c **** ***********************************************************************************/
 334:../srccode/device.c **** void DEV_SetGpioMode(void)
 335:../srccode/device.c **** {
 336:../srccode/device.c ****     GP1CON = 0x00000011;    /* P1.0和P1.1设置为串口 */
  73              		.loc 1 336 0
  74 0024 0030E0E3 		mvn	r3, #0
  75 0028 11E0A0E3 		mov	lr, #17
  76              		.cfi_offset 14, -8
  77              		.cfi_offset 13, -12
  78              		.cfi_offset 11, -16
  79              	.LBE19:
  80              	.LBE18:
  43:../srccode/device.c **** {
  81              		.loc 1 43 0
  82              		.setfp fp, ip, #-4
  83 002c 04B04CE2 		sub	fp, ip, #4
  84              	.LCFI1:
  85              		.cfi_def_cfa 11, 4
  86              	.LBB21:
  87              	.LBB20:
  88              		.loc 1 336 0
  89 0030 FBEB03E5 		str	lr, [r3, #-3067]
  90              	.LBE20:
  91              	.LBE21:
  48:../srccode/device.c ****     (void)MDS_TickTimerInit(DEV_TimerInit);
  92              		.loc 1 48 0
  93 0034 54009FE5 		ldr	r0, .L5
  94 0038 FEFFFFEB 		bl	MDS_TickTimerInit
  95              	.LBB22:
  96              	.LBB24:
  68:../srccode/device.c ****     FIQ = INT_FiqFunc;
  97              		.loc 1 68 0
  98 003c 50C09FE5 		ldr	ip, .L5+4
  99 0040 50009FE5 		ldr	r0, .L5+8
 100              	.LBE24:
 101              	.LBE22:
 102              	.LBB27:
 103              	.LBB29:
  81:../srccode/device.c ****     COMDIV2 = 0;
 104              		.loc 1 81 0
 105 0044 0F3AE0E3 		mvn	r3, #61440
 106 0048 0010A0E3 		mov	r1, #0
 107 004c D31803E5 		str	r1, [r3, #-2259]
  82:../srccode/device.c ****     COMIEN0 = 0x03;     /* 打开串口收发中断 */
 108              		.loc 1 82 0
 109 0050 0320A0E3 		mov	r2, #3
ARM GAS  C:\DOCUME~1\ADMINI~1\LOCALS~1\Temp\cc6GBC3y.s 			page 9


 110              	.LBE29:
 111              	.LBE27:
 112              	.LBB31:
 113              	.LBB25:
  68:../srccode/device.c ****     FIQ = INT_FiqFunc;
 114              		.loc 1 68 0
 115 0054 00C080E5 		str	ip, [r0, #0]
 116              	.LBE25:
 117              	.LBE31:
 118              	.LBB32:
 119              	.LBB28:
  85:../srccode/device.c ****     COMCON0 = 0x83;
 120              		.loc 1 85 0
 121 0058 8300A0E3 		mov	r0, #131
  86:../srccode/device.c ****     COMDIV0 = 0x88;     /* 9600波特率 */
 122              		.loc 1 86 0
 123 005c 88C0A0E3 		mov	ip, #136
  82:../srccode/device.c ****     COMIEN0 = 0x03;     /* 打开串口收发中断 */
 124              		.loc 1 82 0
 125 0060 FB2803E5 		str	r2, [r3, #-2299]
  85:../srccode/device.c ****     COMCON0 = 0x83;
 126              		.loc 1 85 0
 127 0064 F30803E5 		str	r0, [r3, #-2291]
  86:../srccode/device.c ****     COMDIV0 = 0x88;     /* 9600波特率 */
 128              		.loc 1 86 0
 129 0068 FFC803E5 		str	ip, [r3, #-2303]
 130              	.LBE28:
 131              	.LBE32:
 132              	.LBB33:
 133              	.LBB23:
  65:../srccode/device.c ****     IRQEN = TIME1INTMASK;
 134              		.loc 1 65 0
 135 006c 0800A0E3 		mov	r0, #8
 136              	.LBE23:
 137              	.LBE33:
 138              	.LBB34:
 139              	.LBB30:
  87:../srccode/device.c ****     COMDIV1 = 0;
 140              		.loc 1 87 0
 141 0070 FB1803E5 		str	r1, [r3, #-2299]
  90:../srccode/device.c ****     COMCON0 = 3;
 142              		.loc 1 90 0
 143 0074 F32803E5 		str	r2, [r3, #-2291]
 144              	.LBE30:
 145              	.LBE34:
 146              	.LBB35:
 147              	.LBB26:
  71:../srccode/device.c ****     FIQEN = UARTINTMASK;
 148              		.loc 1 71 0
 149 0078 0129A0E3 		mov	r2, #16384
  65:../srccode/device.c ****     IRQEN = TIME1INTMASK;
 150              		.loc 1 65 0
 151 007c F70F03E5 		str	r0, [r3, #-4087]
  71:../srccode/device.c ****     FIQEN = UARTINTMASK;
 152              		.loc 1 71 0
 153 0080 F72E03E5 		str	r2, [r3, #-3831]
 154              	.LBE26:
ARM GAS  C:\DOCUME~1\ADMINI~1\LOCALS~1\Temp\cc6GBC3y.s 			page 10


 155              	.LBE35:
  55:../srccode/device.c **** }
 156              		.loc 1 55 0
 157 0084 0CD04BE2 		sub	sp, fp, #12
 158 0088 00689DE8 		ldmfd	sp, {fp, sp, lr}
 159 008c 1EFF2FE1 		bx	lr
 160              	.L6:
 161              		.align	2
 162              	.L5:
 163 0090 00000000 		.word	DEV_TimerInit
 164 0094 00000000 		.word	INT_FiqFunc
 165 0098 00000000 		.word	FIQ
 166              		.cfi_endproc
 167              	.LFE1:
 168              		.fnend
 169              		.size	DEV_HardwareInit, .-DEV_HardwareInit
 170              		.align	2
 171              		.global	DEV_IsrInit
 172              		.type	DEV_IsrInit, %function
 173              	DEV_IsrInit:
 174              		.fnstart
 175              	.LFB2:
  63:../srccode/device.c **** {
 176              		.loc 1 63 0
 177              		.cfi_startproc
 178              		@ Function supports interworking.
 179              		@ args = 0, pretend = 0, frame = 0
 180              		@ frame_needed = 0, uses_anonymous_args = 0
 181              		@ link register save eliminated.
  68:../srccode/device.c ****     FIQ = INT_FiqFunc;
 182              		.loc 1 68 0
 183 009c 1C109FE5 		ldr	r1, .L8
 184 00a0 1C009FE5 		ldr	r0, .L8+4
  65:../srccode/device.c ****     IRQEN = TIME1INTMASK;
 185              		.loc 1 65 0
 186 00a4 0F3AE0E3 		mvn	r3, #61440
 187 00a8 08C0A0E3 		mov	ip, #8
  71:../srccode/device.c ****     FIQEN = UARTINTMASK;
 188              		.loc 1 71 0
 189 00ac 0129A0E3 		mov	r2, #16384
  65:../srccode/device.c ****     IRQEN = TIME1INTMASK;
 190              		.loc 1 65 0
 191 00b0 F7CF03E5 		str	ip, [r3, #-4087]
  68:../srccode/device.c ****     FIQ = INT_FiqFunc;
 192              		.loc 1 68 0
 193 00b4 001080E5 		str	r1, [r0, #0]
  71:../srccode/device.c ****     FIQEN = UARTINTMASK;
 194              		.loc 1 71 0
 195 00b8 F72E03E5 		str	r2, [r3, #-3831]
  72:../srccode/device.c **** }
 196              		.loc 1 72 0
 197 00bc 1EFF2FE1 		bx	lr
 198              	.L9:
 199              		.align	2
 200              	.L8:
 201 00c0 00000000 		.word	INT_FiqFunc
 202 00c4 00000000 		.word	FIQ
ARM GAS  C:\DOCUME~1\ADMINI~1\LOCALS~1\Temp\cc6GBC3y.s 			page 11


 203              		.cfi_endproc
 204              	.LFE2:
 205              		.fnend
 206              		.size	DEV_IsrInit, .-DEV_IsrInit
 207              		.align	2
 208              		.global	DEV_UartInit
 209              		.type	DEV_UartInit, %function
 210              	DEV_UartInit:
 211              		.fnstart
 212              	.LFB3:
  80:../srccode/device.c **** {
 213              		.loc 1 80 0
 214              		.cfi_startproc
 215              		@ Function supports interworking.
 216              		@ args = 0, pretend = 0, frame = 0
 217              		@ frame_needed = 0, uses_anonymous_args = 0
 218              		@ link register save eliminated.
  81:../srccode/device.c ****     COMDIV2 = 0;
 219              		.loc 1 81 0
 220 00c8 0F3AE0E3 		mvn	r3, #61440
 221 00cc 0010A0E3 		mov	r1, #0
  82:../srccode/device.c ****     COMIEN0 = 0x03;     /* 打开串口收发中断 */
 222              		.loc 1 82 0
 223 00d0 0320A0E3 		mov	r2, #3
  85:../srccode/device.c ****     COMCON0 = 0x83;
 224              		.loc 1 85 0
 225 00d4 83C0A0E3 		mov	ip, #131
  86:../srccode/device.c ****     COMDIV0 = 0x88;     /* 9600波特率 */
 226              		.loc 1 86 0
 227 00d8 8800A0E3 		mov	r0, #136
  81:../srccode/device.c ****     COMDIV2 = 0;
 228              		.loc 1 81 0
 229 00dc D31803E5 		str	r1, [r3, #-2259]
  82:../srccode/device.c ****     COMIEN0 = 0x03;     /* 打开串口收发中断 */
 230              		.loc 1 82 0
 231 00e0 FB2803E5 		str	r2, [r3, #-2299]
  85:../srccode/device.c ****     COMCON0 = 0x83;
 232              		.loc 1 85 0
 233 00e4 F3C803E5 		str	ip, [r3, #-2291]
  86:../srccode/device.c ****     COMDIV0 = 0x88;     /* 9600波特率 */
 234              		.loc 1 86 0
 235 00e8 FF0803E5 		str	r0, [r3, #-2303]
  87:../srccode/device.c ****     COMDIV1 = 0;
 236              		.loc 1 87 0
 237 00ec FB1803E5 		str	r1, [r3, #-2299]
  90:../srccode/device.c ****     COMCON0 = 3;
 238              		.loc 1 90 0
 239 00f0 F32803E5 		str	r2, [r3, #-2291]
  91:../srccode/device.c **** }
 240              		.loc 1 91 0
 241 00f4 1EFF2FE1 		bx	lr
 242              		.cfi_endproc
 243              	.LFE3:
 244              		.fnend
 245              		.size	DEV_UartInit, .-DEV_UartInit
 246              		.align	2
 247              		.global	DEV_PutChar
ARM GAS  C:\DOCUME~1\ADMINI~1\LOCALS~1\Temp\cc6GBC3y.s 			page 12


 248              		.type	DEV_PutChar, %function
 249              	DEV_PutChar:
 250              		.fnstart
 251              	.LFB4:
  99:../srccode/device.c **** {
 252              		.loc 1 99 0
 253              		.cfi_startproc
 254              		@ Function supports interworking.
 255              		@ args = 0, pretend = 0, frame = 0
 256              		@ frame_needed = 0, uses_anonymous_args = 0
 257              		@ link register save eliminated.
 258              	.LVL0:
 101:../srccode/device.c ****     while(0x0 == (COMSTA0 & 0x40))
 259              		.loc 1 101 0
 260 00f8 0F2AE0E3 		mvn	r2, #61440
 261              	.L12:
 101:../srccode/device.c ****     while(0x0 == (COMSTA0 & 0x40))
 262              		.loc 1 101 0 is_stmt 0 discriminator 1
 263 00fc EB3812E5 		ldr	r3, [r2, #-2283]
 264 0100 400013E3 		tst	r3, #64
 265 0104 FCFFFF0A 		beq	.L12
 106:../srccode/device.c ****     COMTX = ucChar;
 266              		.loc 1 106 0 is_stmt 1
 267 0108 0F1AE0E3 		mvn	r1, #61440
 268 010c FF0801E5 		str	r0, [r1, #-2303]
 107:../srccode/device.c **** }
 269              		.loc 1 107 0
 270 0110 1EFF2FE1 		bx	lr
 271              		.cfi_endproc
 272              	.LFE4:
 273              		.fnend
 274              		.size	DEV_PutChar, .-DEV_PutChar
 275              		.align	2
 276              		.global	DEV_SetGpioMode
 277              		.type	DEV_SetGpioMode, %function
 278              	DEV_SetGpioMode:
 279              		.fnstart
 280              	.LFB7:
 335:../srccode/device.c **** {
 281              		.loc 1 335 0
 282              		.cfi_startproc
 283              		@ Function supports interworking.
 284              		@ args = 0, pretend = 0, frame = 0
 285              		@ frame_needed = 0, uses_anonymous_args = 0
 286              		@ link register save eliminated.
 287              		.loc 1 336 0
 288 0114 1120A0E3 		mov	r2, #17
 289 0118 0030E0E3 		mvn	r3, #0
 290 011c FB2B03E5 		str	r2, [r3, #-3067]
 337:../srccode/device.c **** }
 291              		.loc 1 337 0
 292 0120 1EFF2FE1 		bx	lr
 293              		.cfi_endproc
 294              	.LFE7:
 295              		.fnend
 296              		.size	DEV_SetGpioMode, .-DEV_SetGpioMode
 297              		.align	2
ARM GAS  C:\DOCUME~1\ADMINI~1\LOCALS~1\Temp\cc6GBC3y.s 			page 13


 298              		.global	DEV_PrintMsg
 299              		.type	DEV_PrintMsg, %function
 300              	DEV_PrintMsg:
 301              		.fnstart
 302              	.LFB8:
 338:../srccode/device.c **** 
 339:../srccode/device.c **** /***********************************************************************************
 340:../srccode/device.c **** 函数功能: 从队列中获取消息缓冲, 打印缓冲中的第一个字符, 其它字符将由触发的中断处理.
 341:../srccode/device.c **** 入口参数: none.
 342:../srccode/device.c **** 返 回 值: none.
 343:../srccode/device.c **** ***********************************************************************************/
 344:../srccode/device.c **** void DEV_PrintMsg(void)
 345:../srccode/device.c **** {
 303              		.loc 1 345 0
 304              		.cfi_startproc
 305              		@ Function supports interworking.
 306              		@ args = 0, pretend = 0, frame = 0
 307              		@ frame_needed = 1, uses_anonymous_args = 0
 308              		.movsp ip
 309 0124 0DC0A0E1 		mov	ip, sp
 310              	.LCFI2:
 311              		.cfi_def_cfa_register 12
 312 0128 18D82DE9 		stmfd	sp!, {r3, r4, fp, ip, lr, pc}
 313              		.pad #4
 314              		.save {r3, r4, fp, ip, lr}
 346:../srccode/device.c ****     MSGBUF* pstrMsgBuf;
 347:../srccode/device.c **** 
 348:../srccode/device.c ****     /* 没有消息正在发送, 从队列获取消息准备发送 */
 349:../srccode/device.c ****     if(NULL == gpstrMsgBufPt)
 315              		.loc 1 349 0
 316 012c 58409FE5 		ldr	r4, .L21
 317              		.cfi_offset 14, -8
 318              		.cfi_offset 13, -12
 319              		.cfi_offset 11, -16
 320              		.cfi_offset 4, -20
 321              		.cfi_offset 3, -24
 322 0130 003094E5 		ldr	r3, [r4, #0]
 323 0134 000053E3 		cmp	r3, #0
 345:../srccode/device.c **** {
 324              		.loc 1 345 0
 325              		.setfp fp, ip, #-4
 326 0138 04B04CE2 		sub	fp, ip, #4
 327              	.LCFI3:
 328              		.cfi_def_cfa 11, 4
 329              		.loc 1 349 0
 330 013c 0200000A 		beq	.L20
 331              	.L16:
 350:../srccode/device.c ****     {
 351:../srccode/device.c ****         /* 从队列中获取到需要发送的消息的缓冲, 发送消息 */
 352:../srccode/device.c ****         if(RTN_SUCD == MDS_QueGet(&gstrPrtMsgQue, &gpstrMsgBufPt))
 353:../srccode/device.c ****         {
 354:../srccode/device.c ****             pstrMsgBuf = (MSGBUF*)gpstrMsgBufPt;
 355:../srccode/device.c **** 
 356:../srccode/device.c ****             pstrMsgBuf->ucCounter = 1;
 357:../srccode/device.c **** 
 358:../srccode/device.c ****             DEV_PutChar(pstrMsgBuf->aucBuf[0]);
 359:../srccode/device.c ****         }
ARM GAS  C:\DOCUME~1\ADMINI~1\LOCALS~1\Temp\cc6GBC3y.s 			page 14


 360:../srccode/device.c ****     }
 361:../srccode/device.c **** }
 332              		.loc 1 361 0
 333 0140 14D04BE2 		sub	sp, fp, #20
 334 0144 18689DE8 		ldmfd	sp, {r3, r4, fp, sp, lr}
 335 0148 1EFF2FE1 		bx	lr
 336              	.L20:
 352:../srccode/device.c ****         if(RTN_SUCD == MDS_QueGet(&gstrPrtMsgQue, &gpstrMsgBufPt))
 337              		.loc 1 352 0
 338 014c 3C009FE5 		ldr	r0, .L21+4
 339 0150 0410A0E1 		mov	r1, r4
 340 0154 FEFFFFEB 		bl	MDS_QueGet
 341 0158 000050E3 		cmp	r0, #0
 342 015c F7FFFF1A 		bne	.L16
 354:../srccode/device.c ****             pstrMsgBuf = (MSGBUF*)gpstrMsgBufPt;
 343              		.loc 1 354 0
 344 0160 000094E5 		ldr	r0, [r4, #0]
 345              	.LVL1:
 356:../srccode/device.c ****             pstrMsgBuf->ucCounter = 1;
 346              		.loc 1 356 0
 347 0164 0120A0E3 		mov	r2, #1
 358:../srccode/device.c ****             DEV_PutChar(pstrMsgBuf->aucBuf[0]);
 348              		.loc 1 358 0
 349 0168 0A10D0E5 		ldrb	r1, [r0, #10]	@ zero_extendqisi2
 350              	.LVL2:
 356:../srccode/device.c ****             pstrMsgBuf->ucCounter = 1;
 351              		.loc 1 356 0
 352 016c 0920C0E5 		strb	r2, [r0, #9]
 353              	.LBB36:
 354              	.LBB37:
 101:../srccode/device.c ****     while(0x0 == (COMSTA0 & 0x40))
 355              		.loc 1 101 0
 356 0170 0F2AE0E3 		mvn	r2, #61440
 357              	.L18:
 358 0174 EBC812E5 		ldr	ip, [r2, #-2283]
 359 0178 40001CE3 		tst	ip, #64
 360 017c FCFFFF0A 		beq	.L18
 106:../srccode/device.c ****     COMTX = ucChar;
 361              		.loc 1 106 0
 362 0180 0FEAE0E3 		mvn	lr, #61440
 363 0184 FF180EE5 		str	r1, [lr, #-2303]
 364 0188 ECFFFFEA 		b	.L16
 365              	.L22:
 366              		.align	2
 367              	.L21:
 368 018c 00000000 		.word	gpstrMsgBufPt
 369 0190 00000000 		.word	gstrPrtMsgQue
 370              	.LBE37:
 371              	.LBE36:
 372              		.cfi_endproc
 373              	.LFE8:
 374              		.fnend
 375              		.size	DEV_PrintMsg, .-DEV_PrintMsg
 376              		.align	2
 377              		.global	DEV_Num2Asc
 378              		.type	DEV_Num2Asc, %function
 379              	DEV_Num2Asc:
ARM GAS  C:\DOCUME~1\ADMINI~1\LOCALS~1\Temp\cc6GBC3y.s 			page 15


 380              		.fnstart
 381              	.LFB9:
 362:../srccode/device.c **** 
 363:../srccode/device.c **** /***********************************************************************************
 364:../srccode/device.c **** 函数功能: 把数字转换成ASCII码.
 365:../srccode/device.c **** 入口参数: ucHex: 要转换的16进制数.
 366:../srccode/device.c **** 返 回 值: 转换成的ASCII码.
 367:../srccode/device.c **** ***********************************************************************************/
 368:../srccode/device.c **** U8 DEV_Num2Asc(U8 ucNum)
 369:../srccode/device.c **** {
 382              		.loc 1 369 0
 383              		.cfi_startproc
 384              		@ Function supports interworking.
 385              		@ args = 0, pretend = 0, frame = 0
 386              		@ frame_needed = 0, uses_anonymous_args = 0
 387              		@ link register save eliminated.
 388              	.LVL3:
 370:../srccode/device.c ****     if(ucNum < 0xA)                     /* 输出0~9 */
 389              		.loc 1 370 0
 390 0194 090050E3 		cmp	r0, #9
 371:../srccode/device.c ****     {
 372:../srccode/device.c ****         return (ucNum + '0');
 391              		.loc 1 372 0
 392 0198 30008092 		addls	r0, r0, #48
 393              	.LVL4:
 373:../srccode/device.c ****     }
 374:../srccode/device.c ****     else
 375:../srccode/device.c ****     {
 376:../srccode/device.c ****         return (ucNum - 0x0A + 'A');    /* 输出A~F */
 394              		.loc 1 376 0
 395 019c 37008082 		addhi	r0, r0, #55
 372:../srccode/device.c ****         return (ucNum + '0');
 396              		.loc 1 372 0
 397 01a0 FF000092 		andls	r0, r0, #255
 398              		.loc 1 376 0
 399 01a4 FF000082 		andhi	r0, r0, #255
 377:../srccode/device.c ****     }
 378:../srccode/device.c **** }
 400              		.loc 1 378 0
 401 01a8 1EFF2FE1 		bx	lr
 402              		.cfi_endproc
 403              	.LFE9:
 404              		.fnend
 405              		.size	DEV_Num2Asc, .-DEV_Num2Asc
 406              		.align	2
 407              		.global	DEV_Asc2Num
 408              		.type	DEV_Asc2Num, %function
 409              	DEV_Asc2Num:
 410              		.fnstart
 411              	.LFB10:
 379:../srccode/device.c **** 
 380:../srccode/device.c **** /***********************************************************************************
 381:../srccode/device.c **** 函数功能: 把ASCII码转换成数字.
 382:../srccode/device.c **** 入口参数: ucHex: 要转换的16进制数.
 383:../srccode/device.c **** 返 回 值: 转换成的ASCII码.
 384:../srccode/device.c **** ***********************************************************************************/
 385:../srccode/device.c **** U8 DEV_Asc2Num(U8 ucAsc)
ARM GAS  C:\DOCUME~1\ADMINI~1\LOCALS~1\Temp\cc6GBC3y.s 			page 16


 386:../srccode/device.c **** {
 412              		.loc 1 386 0
 413              		.cfi_startproc
 414              		@ Function supports interworking.
 415              		@ args = 0, pretend = 0, frame = 0
 416              		@ frame_needed = 0, uses_anonymous_args = 0
 417              		@ link register save eliminated.
 418              	.LVL5:
 387:../srccode/device.c ****     if(ucAsc >= 'A')                    /* 输出10~15 */
 419              		.loc 1 387 0
 420 01ac 400050E3 		cmp	r0, #64
 388:../srccode/device.c ****     {
 389:../srccode/device.c ****         return (ucAsc - 'A' + 10);
 421              		.loc 1 389 0
 422 01b0 37004082 		subhi	r0, r0, #55
 423              	.LVL6:
 390:../srccode/device.c ****     }
 391:../srccode/device.c ****     else if(ucAsc >= 'a')               /* 输出10~15 */
 392:../srccode/device.c ****     {
 393:../srccode/device.c ****         return (ucAsc - 'a' + 10);
 394:../srccode/device.c ****     }
 395:../srccode/device.c ****     else
 396:../srccode/device.c ****     {
 397:../srccode/device.c ****         return (ucAsc - '0');           /* 输出0~9 */
 424              		.loc 1 397 0
 425 01b4 30004092 		subls	r0, r0, #48
 389:../srccode/device.c ****         return (ucAsc - 'A' + 10);
 426              		.loc 1 389 0
 427 01b8 FF000082 		andhi	r0, r0, #255
 428              		.loc 1 397 0
 429 01bc FF000092 		andls	r0, r0, #255
 398:../srccode/device.c ****     }
 399:../srccode/device.c **** }
 430              		.loc 1 399 0
 431 01c0 1EFF2FE1 		bx	lr
 432              		.cfi_endproc
 433              	.LFE10:
 434              		.fnend
 435              		.size	DEV_Asc2Num, .-DEV_Asc2Num
 436              		.align	2
 437              		.global	DEV_BufferInit
 438              		.type	DEV_BufferInit, %function
 439              	DEV_BufferInit:
 440              		.fnstart
 441              	.LFB11:
 400:../srccode/device.c **** 
 401:../srccode/device.c **** /***********************************************************************************
 402:../srccode/device.c **** 函数功能: 初始化消息缓冲池.
 403:../srccode/device.c **** 入口参数: pstrBufPool: 消息缓冲池指针.
 404:../srccode/device.c **** 返 回 值: none.
 405:../srccode/device.c **** ***********************************************************************************/
 406:../srccode/device.c **** void DEV_BufferInit(BUFPOOL* pstrBufPool)
 407:../srccode/device.c **** {
 442              		.loc 1 407 0
 443              		.cfi_startproc
 444              		@ Function supports interworking.
 445              		@ args = 0, pretend = 0, frame = 0
ARM GAS  C:\DOCUME~1\ADMINI~1\LOCALS~1\Temp\cc6GBC3y.s 			page 17


 446              		@ frame_needed = 1, uses_anonymous_args = 0
 447              	.LVL7:
 448              		.movsp ip
 449 01c4 0DC0A0E1 		mov	ip, sp
 450              	.LCFI4:
 451              		.cfi_def_cfa_register 12
 452 01c8 30D82DE9 		stmfd	sp!, {r4, r5, fp, ip, lr, pc}
 453              		.pad #4
 454              		.save {r4, r5, fp, ip, lr}
 455              		.setfp fp, ip, #-4
 456 01cc 04B04CE2 		sub	fp, ip, #4
 457              		.cfi_offset 14, -8
 458              		.cfi_offset 13, -12
 459              		.cfi_offset 11, -16
 460              		.cfi_offset 5, -20
 461              		.cfi_offset 4, -24
 462              	.LCFI5:
 463              		.cfi_def_cfa 11, 4
 464              		.loc 1 407 0
 465 01d0 0050A0E1 		mov	r5, r0
 408:../srccode/device.c ****     U32 i;
 409:../srccode/device.c **** 
 410:../srccode/device.c ****     /* 初始化缓冲池空闲链表 */
 411:../srccode/device.c ****     MDS_ChainInit(&pstrBufPool->strFreeList);
 466              		.loc 1 411 0
 467 01d4 FEFFFFEB 		bl	MDS_ChainInit
 468              	.LVL8:
 412:../srccode/device.c **** 
 413:../srccode/device.c ****     /* 将各个缓冲挂入空闲列表 */
 414:../srccode/device.c ****     for(i = 0; i < BUFPOOLNUM; i++)
 469              		.loc 1 414 0
 470 01d8 0040A0E3 		mov	r4, #0
 471              	.LVL9:
 472              	.L30:
 415:../srccode/device.c ****     {
 416:../srccode/device.c ****         MDS_ChainNodeAdd(&pstrBufPool->strFreeList,
 473              		.loc 1 416 0 discriminator 2
 474 01dc 043264E0 		rsb	r3, r4, r4, asl #4
 475 01e0 032185E0 		add	r2, r5, r3, asl #2
 476 01e4 081082E2 		add	r1, r2, #8
 477 01e8 0500A0E1 		mov	r0, r5
 414:../srccode/device.c ****     for(i = 0; i < BUFPOOLNUM; i++)
 478              		.loc 1 414 0 discriminator 2
 479 01ec 014084E2 		add	r4, r4, #1
 480              		.loc 1 416 0 discriminator 2
 481 01f0 FEFFFFEB 		bl	MDS_ChainNodeAdd
 482 01f4 040264E0 		rsb	r0, r4, r4, asl #4
 483 01f8 001185E0 		add	r1, r5, r0, asl #2
 484 01fc 081081E2 		add	r1, r1, #8
 485 0200 0500A0E1 		mov	r0, r5
 414:../srccode/device.c ****     for(i = 0; i < BUFPOOLNUM; i++)
 486              		.loc 1 414 0 discriminator 2
 487 0204 014084E2 		add	r4, r4, #1
 488              		.loc 1 416 0 discriminator 2
 489 0208 FEFFFFEB 		bl	MDS_ChainNodeAdd
 490              	.LVL10:
 414:../srccode/device.c ****     for(i = 0; i < BUFPOOLNUM; i++)
ARM GAS  C:\DOCUME~1\ADMINI~1\LOCALS~1\Temp\cc6GBC3y.s 			page 18


 491              		.loc 1 414 0 discriminator 2
 492 020c 140054E3 		cmp	r4, #20
 493 0210 F1FFFF1A 		bne	.L30
 417:../srccode/device.c ****                          &pstrBufPool->astrBufPool[i].strChain);
 418:../srccode/device.c ****     }
 419:../srccode/device.c **** }
 494              		.loc 1 419 0
 495 0214 14D04BE2 		sub	sp, fp, #20
 496 0218 30689DE8 		ldmfd	sp, {r4, r5, fp, sp, lr}
 497 021c 1EFF2FE1 		bx	lr
 498              		.cfi_endproc
 499              	.LFE11:
 500              		.fnend
 501              		.size	DEV_BufferInit, .-DEV_BufferInit
 502              		.align	2
 503              		.global	DEV_SoftwareInit
 504              		.type	DEV_SoftwareInit, %function
 505              	DEV_SoftwareInit:
 506              		.fnstart
 507              	.LFB0:
  15:../srccode/device.c **** {
 508              		.loc 1 15 0
 509              		.cfi_startproc
 510              		@ Function supports interworking.
 511              		@ args = 0, pretend = 0, frame = 0
 512              		@ frame_needed = 1, uses_anonymous_args = 0
 513              		.movsp ip
 514 0220 0DC0A0E1 		mov	ip, sp
 515              	.LCFI6:
 516              		.cfi_def_cfa_register 12
 517 0224 00D82DE9 		stmfd	sp!, {fp, ip, lr, pc}
 518              		.pad #4
 519              		.save {fp, ip, lr}
  17:../srccode/device.c ****     DEV_BufferInit(&gstrBufPool);
 520              		.loc 1 17 0
 521 0228 4C009FE5 		ldr	r0, .L34
  15:../srccode/device.c **** {
 522              		.loc 1 15 0
 523              		.setfp fp, ip, #-4
 524 022c 04B04CE2 		sub	fp, ip, #4
 525              		.cfi_offset 14, -8
 526              		.cfi_offset 13, -12
 527              		.cfi_offset 11, -16
 528              	.LCFI7:
 529              		.cfi_def_cfa 11, 4
  17:../srccode/device.c ****     DEV_BufferInit(&gstrBufPool);
 530              		.loc 1 17 0
 531 0230 FEFFFFEB 		bl	DEV_BufferInit
  20:../srccode/device.c ****     (void)MDS_QueCreate(&gstrPrtMsgQue);
 532              		.loc 1 20 0
 533 0234 44009FE5 		ldr	r0, .L34+4
 534 0238 FEFFFFEB 		bl	MDS_QueCreate
  23:../srccode/device.c ****     (void)MDS_SemCreate(&gstrSemCnt, SEMCNT | SEMFIFO, SEMEMPTY);
 535              		.loc 1 23 0
 536 023c 0020A0E3 		mov	r2, #0
 537 0240 0910A0E3 		mov	r1, #9
 538 0244 38009FE5 		ldr	r0, .L34+8
ARM GAS  C:\DOCUME~1\ADMINI~1\LOCALS~1\Temp\cc6GBC3y.s 			page 19


 539 0248 FEFFFFEB 		bl	MDS_SemCreate
  28:../srccode/device.c ****     MDS_TaskCreateHookAdd(TEST_TaskCreatePrint);
 540              		.loc 1 28 0
 541 024c 34009FE5 		ldr	r0, .L34+12
 542 0250 FEFFFFEB 		bl	MDS_TaskCreateHookAdd
  29:../srccode/device.c ****     MDS_TaskSwitchHookAdd(TEST_TaskSwitchPrint);
 543              		.loc 1 29 0
 544 0254 30009FE5 		ldr	r0, .L34+16
 545 0258 FEFFFFEB 		bl	MDS_TaskSwitchHookAdd
  30:../srccode/device.c ****     MDS_TaskDeleteHookAdd(TEST_TaskDeletePrint);
 546              		.loc 1 30 0
 547 025c 2C009FE5 		ldr	r0, .L34+20
 548 0260 FEFFFFEB 		bl	MDS_TaskDeleteHookAdd
  34:../srccode/device.c ****     gpstrMsgBufPt = (M_CHAIN*)NULL;
 549              		.loc 1 34 0
 550 0264 28309FE5 		ldr	r3, .L34+24
 551 0268 0020A0E3 		mov	r2, #0
 552 026c 002083E5 		str	r2, [r3, #0]
  35:../srccode/device.c **** }
 553              		.loc 1 35 0
 554 0270 0CD04BE2 		sub	sp, fp, #12
 555 0274 00689DE8 		ldmfd	sp, {fp, sp, lr}
 556 0278 1EFF2FE1 		bx	lr
 557              	.L35:
 558              		.align	2
 559              	.L34:
 560 027c 00000000 		.word	gstrBufPool
 561 0280 00000000 		.word	gstrPrtMsgQue
 562 0284 00000000 		.word	gstrSemCnt
 563 0288 00000000 		.word	TEST_TaskCreatePrint
 564 028c 00000000 		.word	TEST_TaskSwitchPrint
 565 0290 00000000 		.word	TEST_TaskDeletePrint
 566 0294 00000000 		.word	gpstrMsgBufPt
 567              		.cfi_endproc
 568              	.LFE0:
 569              		.fnend
 570              		.size	DEV_SoftwareInit, .-DEV_SoftwareInit
 571              		.align	2
 572              		.global	DEV_BufferAlloc
 573              		.type	DEV_BufferAlloc, %function
 574              	DEV_BufferAlloc:
 575              		.fnstart
 576              	.LFB12:
 420:../srccode/device.c **** 
 421:../srccode/device.c **** /***********************************************************************************
 422:../srccode/device.c **** 函数功能: 申请消息缓冲.
 423:../srccode/device.c **** 入口参数: pstrBufPool: 消息缓冲池指针.
 424:../srccode/device.c **** 返 回 值: 分配的消息缓冲指针.
 425:../srccode/device.c **** ***********************************************************************************/
 426:../srccode/device.c **** MSGBUF* DEV_BufferAlloc(BUFPOOL* pstrBufPool)
 427:../srccode/device.c **** {
 577              		.loc 1 427 0
 578              		.cfi_startproc
 579              		@ Function supports interworking.
 580              		@ args = 0, pretend = 0, frame = 0
 581              		@ frame_needed = 1, uses_anonymous_args = 0
 582              	.LVL11:
ARM GAS  C:\DOCUME~1\ADMINI~1\LOCALS~1\Temp\cc6GBC3y.s 			page 20


 583              		.movsp ip
 584 0298 0DC0A0E1 		mov	ip, sp
 585              	.LCFI8:
 586              		.cfi_def_cfa_register 12
 587 029c 18D82DE9 		stmfd	sp!, {r3, r4, fp, ip, lr, pc}
 588              		.pad #4
 589              		.save {r3, r4, fp, ip, lr}
 590              		.setfp fp, ip, #-4
 591 02a0 04B04CE2 		sub	fp, ip, #4
 592              		.cfi_offset 14, -8
 593              		.cfi_offset 13, -12
 594              		.cfi_offset 11, -16
 595              		.cfi_offset 4, -20
 596              		.cfi_offset 3, -24
 597              	.LCFI9:
 598              		.cfi_def_cfa 11, 4
 599              		.loc 1 427 0
 600 02a4 0040A0E1 		mov	r4, r0
 428:../srccode/device.c ****     MSGBUF* pstrBuf;
 429:../srccode/device.c **** 
 430:../srccode/device.c ****     (void)MDS_IntLock();
 601              		.loc 1 430 0
 602 02a8 FEFFFFEB 		bl	MDS_IntLock
 603              	.LVL12:
 431:../srccode/device.c **** 
 432:../srccode/device.c ****     /* 从空闲缓冲分配一个 */
 433:../srccode/device.c ****     pstrBuf = (MSGBUF*)MDS_ChainNodeDelete(&pstrBufPool->strFreeList);
 604              		.loc 1 433 0
 605 02ac 0400A0E1 		mov	r0, r4
 606 02b0 FEFFFFEB 		bl	MDS_ChainNodeDelete
 607 02b4 0040A0E1 		mov	r4, r0
 608              	.LVL13:
 434:../srccode/device.c **** 
 435:../srccode/device.c ****     (void)MDS_IntUnlock();
 609              		.loc 1 435 0
 610 02b8 FEFFFFEB 		bl	MDS_IntUnlock
 611              	.LVL14:
 436:../srccode/device.c **** 
 437:../srccode/device.c ****     return pstrBuf;
 438:../srccode/device.c **** }
 612              		.loc 1 438 0
 613 02bc 0400A0E1 		mov	r0, r4
 614 02c0 14D04BE2 		sub	sp, fp, #20
 615 02c4 18689DE8 		ldmfd	sp, {r3, r4, fp, sp, lr}
 616 02c8 1EFF2FE1 		bx	lr
 617              		.cfi_endproc
 618              	.LFE12:
 619              		.fnend
 620              		.size	DEV_BufferAlloc, .-DEV_BufferAlloc
 621              		.align	2
 622              		.global	DEV_PutStrToMem
 623              		.type	DEV_PutStrToMem, %function
 624              	DEV_PutStrToMem:
 625              		.fnstart
 626              	.LFB5:
 117:../srccode/device.c **** {
 627              		.loc 1 117 0
ARM GAS  C:\DOCUME~1\ADMINI~1\LOCALS~1\Temp\cc6GBC3y.s 			page 21


 628              		.cfi_startproc
 629              		@ Function supports interworking.
 630              		@ args = 4, pretend = 16, frame = 8
 631              		@ frame_needed = 1, uses_anonymous_args = 1
 632              	.LVL15:
 633              		.movsp ip
 634 02cc 0DC0A0E1 		mov	ip, sp
 635              	.LCFI10:
 636              		.cfi_def_cfa_register 12
 637 02d0 0F002DE9 		stmfd	sp!, {r0, r1, r2, r3}
 638              		.save {r0, r1, r2, r3}
 639 02d4 F0DF2DE9 		stmfd	sp!, {r4, r5, r6, r7, r8, r9, sl, fp, ip, lr, pc}
 640              		.pad #4
 641              		.save {r4, r5, r6, r7, r8, r9, sl, fp, ip, lr}
 642              		.setfp fp, ip, #-20
 643 02d8 14B04CE2 		sub	fp, ip, #20
 644              		.cfi_offset 14, -24
 645              		.cfi_offset 13, -28
 646              		.cfi_offset 11, -32
 647              		.cfi_offset 10, -36
 648              		.cfi_offset 9, -40
 649              		.cfi_offset 8, -44
 650              		.cfi_offset 7, -48
 651              		.cfi_offset 6, -52
 652              		.cfi_offset 5, -56
 653              		.cfi_offset 4, -60
 654              		.cfi_offset 3, -4
 655              		.cfi_offset 2, -8
 656              		.cfi_offset 1, -12
 657              		.cfi_offset 0, -16
 658              	.LCFI11:
 659              		.cfi_def_cfa 11, 20
 660              		.pad #12
 661 02dc 0CD04DE2 		sub	sp, sp, #12
 131:../srccode/device.c ****     pstrMsgBuf = (MSGBUF*)DEV_BufferAlloc(&gstrBufPool);
 662              		.loc 1 131 0
 663 02e0 CC079FE5 		ldr	r0, .L204
 664 02e4 FEFFFFEB 		bl	DEV_BufferAlloc
 665              	.LVL16:
 132:../srccode/device.c ****     if(NULL == pstrMsgBuf)
 666              		.loc 1 132 0
 667 02e8 001050E2 		subs	r1, r0, #0
 668 02ec 1A00000A 		beq	.L37
 669              	.LVL17:
 138:../srccode/device.c ****     uiMsgCntInBuf = 0;
 670              		.loc 1 138 0
 671 02f0 0030A0E3 		mov	r3, #0
 144:../srccode/device.c ****     pucStrPt1 = *ppucParaPt;
 672              		.loc 1 144 0
 673 02f4 04009BE5 		ldr	r0, [fp, #4]
 674              	.LVL18:
 185:../srccode/device.c ****                         ucNum = (U8)(uiPara / uiPower);
 675              		.loc 1 185 0
 676 02f8 B8679FE5 		ldr	r6, .L204+4
 677 02fc B8A79FE5 		ldr	sl, .L204+8
 678 0300 B8879FE5 		ldr	r8, .L204+12
 679 0304 B8779FE5 		ldr	r7, .L204+16
ARM GAS  C:\DOCUME~1\ADMINI~1\LOCALS~1\Temp\cc6GBC3y.s 			page 22


 147:../srccode/device.c ****     ppucParaPt++;
 680              		.loc 1 147 0
 681 0308 08508BE2 		add	r5, fp, #8
 682              	.LVL19:
 137:../srccode/device.c ****     uiMsgCntInStr = 0;
 683              		.loc 1 137 0
 684 030c 0320A0E1 		mov	r2, r3
 685              	.LVL20:
 686              	.L162:
 150:../srccode/device.c ****     while(0 != pucStrPt1[uiMsgCntInStr])
 687              		.loc 1 150 0 discriminator 1
 688 0310 02C0D0E7 		ldrb	ip, [r0, r2]	@ zero_extendqisi2
 689 0314 00005CE3 		cmp	ip, #0
 690 0318 0A00000A 		beq	.L40
 691              	.L154:
 153:../srccode/device.c ****         if(uiMsgCntInBuf >= MSGBUFLEN)
 692              		.loc 1 153 0
 693 031c 310053E3 		cmp	r3, #49
 694 0320 0800008A 		bhi	.L40
 159:../srccode/device.c ****         if('%' != pucStrPt1[uiMsgCntInStr])
 695              		.loc 1 159 0
 696 0324 25005CE3 		cmp	ip, #37
 697 0328 0E00000A 		beq	.L41
 161:../srccode/device.c ****             pstrMsgBuf->aucBuf[uiMsgCntInBuf] = pucStrPt1[uiMsgCntInStr];
 698              		.loc 1 161 0
 699 032c 03E081E0 		add	lr, r1, r3
 700 0330 0AC0CEE5 		strb	ip, [lr, #10]
 162:../srccode/device.c ****             uiMsgCntInStr++;
 701              		.loc 1 162 0
 702 0334 012082E2 		add	r2, r2, #1
 703              	.LVL21:
 150:../srccode/device.c ****     while(0 != pucStrPt1[uiMsgCntInStr])
 704              		.loc 1 150 0
 705 0338 02C0D0E7 		ldrb	ip, [r0, r2]	@ zero_extendqisi2
 706 033c 00005CE3 		cmp	ip, #0
 163:../srccode/device.c ****             uiMsgCntInBuf++;
 707              		.loc 1 163 0
 708 0340 013083E2 		add	r3, r3, #1
 709              	.LVL22:
 150:../srccode/device.c ****     while(0 != pucStrPt1[uiMsgCntInStr])
 710              		.loc 1 150 0
 711 0344 F4FFFF1A 		bne	.L154
 712              	.L40:
 310:../srccode/device.c ****     pstrMsgBuf->ucLength = (U8)uiMsgCntInBuf;
 713              		.loc 1 310 0
 714 0348 0830C1E5 		strb	r3, [r1, #8]
 311:../srccode/device.c ****     pstrMsgBuf->ucCounter = 0;
 715              		.loc 1 311 0
 716 034c 0030A0E3 		mov	r3, #0
 717              	.LVL23:
 718 0350 0930C1E5 		strb	r3, [r1, #9]
 314:../srccode/device.c ****     (void)MDS_QuePut(&gstrPrtMsgQue, &pstrMsgBuf->strChain);
 719              		.loc 1 314 0
 720 0354 6C079FE5 		ldr	r0, .L204+20
 721 0358 FEFFFFEB 		bl	MDS_QuePut
 722              	.LVL24:
 723              	.L37:
ARM GAS  C:\DOCUME~1\ADMINI~1\LOCALS~1\Temp\cc6GBC3y.s 			page 23


 315:../srccode/device.c **** }
 724              		.loc 1 315 0
 725 035c 28D04BE2 		sub	sp, fp, #40
 726 0360 F06F9DE8 		ldmfd	sp, {r4, r5, r6, r7, r8, r9, sl, fp, sp, lr}
 727 0364 1EFF2FE1 		bx	lr
 728              	.LVL25:
 729              	.L41:
 168:../srccode/device.c ****             uiMsgCntInStr++;
 730              		.loc 1 168 0
 731 0368 012082E2 		add	r2, r2, #1
 732              	.LVL26:
 171:../srccode/device.c ****             if('d' == pucStrPt1[uiMsgCntInStr])
 733              		.loc 1 171 0
 734 036c 02E0D0E7 		ldrb	lr, [r0, r2]	@ zero_extendqisi2
 735 0370 64005EE3 		cmp	lr, #100
 736 0374 2F00000A 		beq	.L184
 223:../srccode/device.c ****             else if('x' == pucStrPt1[uiMsgCntInStr])
 737              		.loc 1 223 0
 738 0378 78005EE3 		cmp	lr, #120
 739 037c D700000A 		beq	.L185
 275:../srccode/device.c ****             else if('s' == pucStrPt1[uiMsgCntInStr])
 740              		.loc 1 275 0
 741 0380 73005EE3 		cmp	lr, #115
 303:../srccode/device.c ****                 pstrMsgBuf->aucBuf[uiMsgCntInBuf] = '%';
 742              		.loc 1 303 0
 743 0384 03E08110 		addne	lr, r1, r3
 744 0388 0AC0CE15 		strneb	ip, [lr, #10]
 304:../srccode/device.c ****                 uiMsgCntInBuf++;
 745              		.loc 1 304 0
 746 038c 01308312 		addne	r3, r3, #1
 747              	.LVL27:
 275:../srccode/device.c ****             else if('s' == pucStrPt1[uiMsgCntInStr])
 748              		.loc 1 275 0
 749 0390 DEFFFF1A 		bne	.L162
 278:../srccode/device.c ****                 pucStrPt2 = (U8*)(*ppucParaPt);
 750              		.loc 1 278 0
 751 0394 00C095E5 		ldr	ip, [r5, #0]
 752              	.LVL28:
 281:../srccode/device.c ****                 for(i = 0; 0 != pucStrPt2[i]; i++)
 753              		.loc 1 281 0
 754 0398 00E0DCE5 		ldrb	lr, [ip, #0]	@ zero_extendqisi2
 755 039c 00005EE3 		cmp	lr, #0
 756 03a0 2100000A 		beq	.L151
 116:../srccode/device.c **** void DEV_PutStrToMem(U8* pvStringPt, ...)
 757              		.loc 1 116 0
 758 03a4 074083E2 		add	r4, r3, #7
 759 03a8 044081E0 		add	r4, r1, r4
 289:../srccode/device.c ****                     pstrMsgBuf->aucBuf[uiMsgCntInBuf] = pucStrPt2[i];
 760              		.loc 1 289 0
 761 03ac 03E0C4E5 		strb	lr, [r4, #3]
 281:../srccode/device.c ****                 for(i = 0; 0 != pucStrPt2[i]; i++)
 762              		.loc 1 281 0
 763 03b0 01E0FCE5 		ldrb	lr, [ip, #1]!	@ zero_extendqisi2
 764 03b4 319063E2 		rsb	r9, r3, #49
 765 03b8 00005EE3 		cmp	lr, #0
 766 03bc 019009E2 		and	r9, r9, #1
 284:../srccode/device.c ****                     if(uiMsgCntInBuf >= MSGBUFLEN)
ARM GAS  C:\DOCUME~1\ADMINI~1\LOCALS~1\Temp\cc6GBC3y.s 			page 24


 767              		.loc 1 284 0
 768 03c0 034084E2 		add	r4, r4, #3
 290:../srccode/device.c ****                     uiMsgCntInBuf++;
 769              		.loc 1 290 0
 770 03c4 013083E2 		add	r3, r3, #1
 771              	.LVL29:
 281:../srccode/device.c ****                 for(i = 0; 0 != pucStrPt2[i]; i++)
 772              		.loc 1 281 0
 773 03c8 1700000A 		beq	.L151
 284:../srccode/device.c ****                     if(uiMsgCntInBuf >= MSGBUFLEN)
 774              		.loc 1 284 0
 775 03cc 320053E3 		cmp	r3, #50
 776 03d0 1500000A 		beq	.L151
 777 03d4 000059E3 		cmp	r9, #0
 778 03d8 0500000A 		beq	.L152
 289:../srccode/device.c ****                     pstrMsgBuf->aucBuf[uiMsgCntInBuf] = pucStrPt2[i];
 779              		.loc 1 289 0
 780 03dc 01E0E4E5 		strb	lr, [r4, #1]!
 281:../srccode/device.c ****                 for(i = 0; 0 != pucStrPt2[i]; i++)
 781              		.loc 1 281 0
 782 03e0 01E0FCE5 		ldrb	lr, [ip, #1]!	@ zero_extendqisi2
 783 03e4 00005EE3 		cmp	lr, #0
 290:../srccode/device.c ****                     uiMsgCntInBuf++;
 784              		.loc 1 290 0
 785 03e8 013083E2 		add	r3, r3, #1
 786              	.LVL30:
 281:../srccode/device.c ****                 for(i = 0; 0 != pucStrPt2[i]; i++)
 787              		.loc 1 281 0
 788 03ec 0C00001A 		bne	.L160
 789 03f0 0D0000EA 		b	.L151
 790              	.L152:
 289:../srccode/device.c ****                     pstrMsgBuf->aucBuf[uiMsgCntInBuf] = pucStrPt2[i];
 791              		.loc 1 289 0
 792 03f4 01E0C4E5 		strb	lr, [r4, #1]
 281:../srccode/device.c ****                 for(i = 0; 0 != pucStrPt2[i]; i++)
 793              		.loc 1 281 0
 794 03f8 01E0FCE5 		ldrb	lr, [ip, #1]!	@ zero_extendqisi2
 795 03fc 00005EE3 		cmp	lr, #0
 284:../srccode/device.c ****                     if(uiMsgCntInBuf >= MSGBUFLEN)
 796              		.loc 1 284 0
 797 0400 014084E2 		add	r4, r4, #1
 290:../srccode/device.c ****                     uiMsgCntInBuf++;
 798              		.loc 1 290 0
 799 0404 013083E2 		add	r3, r3, #1
 800              	.LVL31:
 281:../srccode/device.c ****                 for(i = 0; 0 != pucStrPt2[i]; i++)
 801              		.loc 1 281 0
 802 0408 0700000A 		beq	.L151
 289:../srccode/device.c ****                     pstrMsgBuf->aucBuf[uiMsgCntInBuf] = pucStrPt2[i];
 803              		.loc 1 289 0
 804 040c 01E0C4E5 		strb	lr, [r4, #1]
 281:../srccode/device.c ****                 for(i = 0; 0 != pucStrPt2[i]; i++)
 805              		.loc 1 281 0
 806 0410 01E0FCE5 		ldrb	lr, [ip, #1]!	@ zero_extendqisi2
 807 0414 00005EE3 		cmp	lr, #0
 290:../srccode/device.c ****                     uiMsgCntInBuf++;
 808              		.loc 1 290 0
ARM GAS  C:\DOCUME~1\ADMINI~1\LOCALS~1\Temp\cc6GBC3y.s 			page 25


 809 0418 013083E2 		add	r3, r3, #1
 810              	.LVL32:
 284:../srccode/device.c ****                     if(uiMsgCntInBuf >= MSGBUFLEN)
 811              		.loc 1 284 0
 812 041c 014084E2 		add	r4, r4, #1
 281:../srccode/device.c ****                 for(i = 0; 0 != pucStrPt2[i]; i++)
 813              		.loc 1 281 0
 814 0420 0100000A 		beq	.L151
 815              	.L160:
 284:../srccode/device.c ****                     if(uiMsgCntInBuf >= MSGBUFLEN)
 816              		.loc 1 284 0
 817 0424 320053E3 		cmp	r3, #50
 818 0428 F1FFFF1A 		bne	.L152
 819              	.LVL33:
 820              	.L151:
 294:../srccode/device.c ****                 uiMsgCntInStr++;
 821              		.loc 1 294 0
 822 042c 012082E2 		add	r2, r2, #1
 823              	.LVL34:
 824              	.L181:
 297:../srccode/device.c ****                 ppucParaPt++;
 825              		.loc 1 297 0
 826 0430 045085E2 		add	r5, r5, #4
 827              	.LVL35:
 828 0434 B5FFFFEA 		b	.L162
 829              	.L184:
 830              	.LVL36:
 178:../srccode/device.c ****                 uiPara = (U32)*ppucParaPt;
 831              		.loc 1 178 0
 832 0438 00C095E5 		ldr	ip, [r5, #0]
 833              	.LVL37:
 181:../srccode/device.c ****                 if(0 != uiPara)
 834              		.loc 1 181 0
 835 043c 00005CE3 		cmp	ip, #0
 836 0440 A900000A 		beq	.L103
 185:../srccode/device.c ****                         ucNum = (U8)(uiPara / uiPower);
 837              		.loc 1 185 0
 838 0444 80E69FE5 		ldr	lr, .L204+24
 839 0448 AC44A0E1 		mov	r4, ip, lsr #9
 840 044c 949E8EE0 		umull	r9, lr, r4, lr
 841              	.LVL38:
 186:../srccode/device.c ****                         if(0 != ucNum)
 842              		.loc 1 186 0
 843 0450 AEE3B0E1 		movs	lr, lr, lsr #7
 844              	.LVL39:
 200:../srccode/device.c ****                             pstrMsgBuf->aucBuf[uiMsgCntInBuf] = DEV_Num2Asc(ucNum);
 845              		.loc 1 200 0
 846 0454 03408110 		addne	r4, r1, r3
 847              	.LBB38:
 848              	.LBB44:
 372:../srccode/device.c ****         return (ucNum + '0');
 849              		.loc 1 372 0
 850 0458 30908E12 		addne	r9, lr, #48
 851              	.LBE44:
 852              	.LBE38:
 200:../srccode/device.c ****                             pstrMsgBuf->aucBuf[uiMsgCntInBuf] = DEV_Num2Asc(ucNum);
 853              		.loc 1 200 0
ARM GAS  C:\DOCUME~1\ADMINI~1\LOCALS~1\Temp\cc6GBC3y.s 			page 26


 854 045c 0A90C415 		strneb	r9, [r4, #10]
 205:../srccode/device.c ****                         uiPara -= ucNum * uiPower;
 855              		.loc 1 205 0
 856 0460 8E926EE0 		rsb	r9, lr, lr, asl #5
 857 0464 099369E0 		rsb	r9, r9, r9, asl #6
 186:../srccode/device.c ****                         if(0 != ucNum)
 858              		.loc 1 186 0
 859 0468 0E40A001 		moveq	r4, lr
 205:../srccode/device.c ****                         uiPara -= ucNum * uiPower;
 860              		.loc 1 205 0
 861 046c 89E18EE0 		add	lr, lr, r9, asl #3
 862 0470 0E918EE0 		add	r9, lr, lr, asl #2
 863 0474 09E189E0 		add	lr, r9, r9, asl #2
 864 0478 0E918EE0 		add	r9, lr, lr, asl #2
 865 047c 89C44CE0 		sub	ip, ip, r9, asl #9
 185:../srccode/device.c ****                         ucNum = (U8)(uiPara / uiPower);
 866              		.loc 1 185 0
 867 0480 969C8EE0 		umull	r9, lr, r6, ip
 201:../srccode/device.c ****                             uiMsgCntInBuf++;
 868              		.loc 1 201 0
 869 0484 01308312 		addne	r3, r3, #1
 870              	.LVL40:
 871 0488 0140A013 		movne	r4, #1
 872              	.LVL41:
 186:../srccode/device.c ****                         if(0 != ucNum)
 873              		.loc 1 186 0
 874 048c AEECB0E1 		movs	lr, lr, lsr #25
 875              	.LVL42:
 876 0490 FA00001A 		bne	.L52
 192:../srccode/device.c ****                         if(1 == ucNumSign)
 877              		.loc 1 192 0
 878 0494 010054E3 		cmp	r4, #1
 879 0498 F800000A 		beq	.L52
 880 049c 0E40A0E1 		mov	r4, lr
 881              	.LVL43:
 882              	.L50:
 205:../srccode/device.c ****                         uiPara -= ucNum * uiPower;
 883              		.loc 1 205 0
 884 04a0 8E926EE0 		rsb	r9, lr, lr, asl #5
 885 04a4 099369E0 		rsb	r9, r9, r9, asl #6
 886 04a8 89918EE0 		add	r9, lr, r9, asl #3
 887 04ac 09E189E0 		add	lr, r9, r9, asl #2
 888              	.LVL44:
 889 04b0 0E918EE0 		add	r9, lr, lr, asl #2
 890 04b4 09C44CE0 		sub	ip, ip, r9, asl #8
 185:../srccode/device.c ****                         ucNum = (U8)(uiPara / uiPower);
 891              		.loc 1 185 0
 892 04b8 9A9C8EE0 		umull	r9, lr, sl, ip
 893 04bc 2EEBA0E1 		mov	lr, lr, lsr #22
 894              	.LVL45:
 186:../srccode/device.c ****                         if(0 != ucNum)
 895              		.loc 1 186 0
 896 04c0 FFE01EE2 		ands	lr, lr, #255
 897              	.LVL46:
 898 04c4 0101000A 		beq	.L53
 899              	.LVL47:
 900              	.L58:
ARM GAS  C:\DOCUME~1\ADMINI~1\LOCALS~1\Temp\cc6GBC3y.s 			page 27


 195:../srccode/device.c ****                             if(uiMsgCntInBuf >= MSGBUFLEN)
 901              		.loc 1 195 0
 902 04c8 310053E3 		cmp	r3, #49
 903 04cc D6FFFF8A 		bhi	.L151
 904              	.LVL48:
 905              	.LBB51:
 906              	.LBB45:
 370:../srccode/device.c ****     if(ucNum < 0xA)                     /* 输出0~9 */
 907              		.loc 1 370 0
 908 04d0 09005EE3 		cmp	lr, #9
 372:../srccode/device.c ****         return (ucNum + '0');
 909              		.loc 1 372 0
 910 04d4 30908E92 		addls	r9, lr, #48
 370:../srccode/device.c ****     if(ucNum < 0xA)                     /* 输出0~9 */
 911              		.loc 1 370 0
 912 04d8 5901008A 		bhi	.L186
 913              	.L57:
 914              	.LBE45:
 915              	.LBE51:
 200:../srccode/device.c ****                             pstrMsgBuf->aucBuf[uiMsgCntInBuf] = DEV_Num2Asc(ucNum);
 916              		.loc 1 200 0
 917 04dc 034081E0 		add	r4, r1, r3
 918 04e0 0A90C4E5 		strb	r9, [r4, #10]
 201:../srccode/device.c ****                             uiMsgCntInBuf++;
 919              		.loc 1 201 0
 920 04e4 013083E2 		add	r3, r3, #1
 921              	.LVL49:
 922 04e8 0140A0E3 		mov	r4, #1
 923              	.LVL50:
 924              	.L56:
 205:../srccode/device.c ****                         uiPara -= ucNum * uiPower;
 925              		.loc 1 205 0
 926 04ec 8E926EE0 		rsb	r9, lr, lr, asl #5
 927 04f0 099369E0 		rsb	r9, r9, r9, asl #6
 928 04f4 89918EE0 		add	r9, lr, r9, asl #3
 929 04f8 09E189E0 		add	lr, r9, r9, asl #2
 930              	.LVL51:
 931 04fc 8EE34CE0 		sub	lr, ip, lr, asl #7
 185:../srccode/device.c ****                         ucNum = (U8)(uiPara / uiPower);
 932              		.loc 1 185 0
 933 0500 989E8CE0 		umull	r9, ip, r8, lr
 934 0504 2CC9A0E1 		mov	ip, ip, lsr #18
 935              	.LVL52:
 186:../srccode/device.c ****                         if(0 != ucNum)
 936              		.loc 1 186 0
 937 0508 FFC01CE2 		ands	ip, ip, #255
 938              	.LVL53:
 939 050c F300000A 		beq	.L59
 940              	.LVL54:
 941              	.L64:
 195:../srccode/device.c ****                             if(uiMsgCntInBuf >= MSGBUFLEN)
 942              		.loc 1 195 0
 943 0510 310053E3 		cmp	r3, #49
 944 0514 C4FFFF8A 		bhi	.L151
 945              	.LVL55:
 946              	.LBB52:
 947              	.LBB43:
ARM GAS  C:\DOCUME~1\ADMINI~1\LOCALS~1\Temp\cc6GBC3y.s 			page 28


 370:../srccode/device.c ****     if(ucNum < 0xA)                     /* 输出0~9 */
 948              		.loc 1 370 0
 949 0518 09005CE3 		cmp	ip, #9
 372:../srccode/device.c ****         return (ucNum + '0');
 950              		.loc 1 372 0
 951 051c 30908C92 		addls	r9, ip, #48
 370:../srccode/device.c ****     if(ucNum < 0xA)                     /* 输出0~9 */
 952              		.loc 1 370 0
 953 0520 4901008A 		bhi	.L187
 954              	.L63:
 955              	.LBE43:
 956              	.LBE52:
 200:../srccode/device.c ****                             pstrMsgBuf->aucBuf[uiMsgCntInBuf] = DEV_Num2Asc(ucNum);
 957              		.loc 1 200 0
 958 0524 034081E0 		add	r4, r1, r3
 959 0528 0A90C4E5 		strb	r9, [r4, #10]
 201:../srccode/device.c ****                             uiMsgCntInBuf++;
 960              		.loc 1 201 0
 961 052c 013083E2 		add	r3, r3, #1
 962              	.LVL56:
 963 0530 0140A0E3 		mov	r4, #1
 964              	.LVL57:
 965              	.L62:
 205:../srccode/device.c ****                         uiPara -= ucNum * uiPower;
 966              		.loc 1 205 0
 967 0534 8C926CE0 		rsb	r9, ip, ip, asl #5
 968 0538 099369E0 		rsb	r9, r9, r9, asl #6
 969 053c 89C18CE0 		add	ip, ip, r9, asl #3
 970              	.LVL58:
 971 0540 0CC34EE0 		sub	ip, lr, ip, asl #6
 185:../srccode/device.c ****                         ucNum = (U8)(uiPara / uiPower);
 972              		.loc 1 185 0
 973 0544 ACE2A0E1 		mov	lr, ip, lsr #5
 974 0548 979E8EE0 		umull	r9, lr, r7, lr
 975 054c AEE3A0E1 		mov	lr, lr, lsr #7
 976              	.LVL59:
 186:../srccode/device.c ****                         if(0 != ucNum)
 977              		.loc 1 186 0
 978 0550 FFE01EE2 		ands	lr, lr, #255
 979              	.LVL60:
 980 0554 E500000A 		beq	.L65
 981              	.LVL61:
 982              	.L70:
 195:../srccode/device.c ****                             if(uiMsgCntInBuf >= MSGBUFLEN)
 983              		.loc 1 195 0
 984 0558 310053E3 		cmp	r3, #49
 985 055c B2FFFF8A 		bhi	.L151
 986              	.LVL62:
 987              	.LBB53:
 988              	.LBB46:
 370:../srccode/device.c ****     if(ucNum < 0xA)                     /* 输出0~9 */
 989              		.loc 1 370 0
 990 0560 09005EE3 		cmp	lr, #9
 372:../srccode/device.c ****         return (ucNum + '0');
 991              		.loc 1 372 0
 992 0564 30908E92 		addls	r9, lr, #48
 370:../srccode/device.c ****     if(ucNum < 0xA)                     /* 输出0~9 */
ARM GAS  C:\DOCUME~1\ADMINI~1\LOCALS~1\Temp\cc6GBC3y.s 			page 29


 993              		.loc 1 370 0
 994 0568 3901008A 		bhi	.L188
 995              	.L69:
 996              	.LBE46:
 997              	.LBE53:
 200:../srccode/device.c ****                             pstrMsgBuf->aucBuf[uiMsgCntInBuf] = DEV_Num2Asc(ucNum);
 998              		.loc 1 200 0
 999 056c 034081E0 		add	r4, r1, r3
 1000 0570 0A90C4E5 		strb	r9, [r4, #10]
 201:../srccode/device.c ****                             uiMsgCntInBuf++;
 1001              		.loc 1 201 0
 1002 0574 0140A0E3 		mov	r4, #1
 1003 0578 30400BE5 		str	r4, [fp, #-48]
 1004 057c 013083E2 		add	r3, r3, #1
 1005              	.LVL63:
 1006              	.L68:
 205:../srccode/device.c ****                         uiPara -= ucNum * uiPower;
 1007              		.loc 1 205 0
 1008 0580 8E926EE0 		rsb	r9, lr, lr, asl #5
 1009 0584 09418EE0 		add	r4, lr, r9, asl #2
 1010 0588 049184E0 		add	r9, r4, r4, asl #2
 1011 058c 09E189E0 		add	lr, r9, r9, asl #2
 1012              	.LVL64:
 185:../srccode/device.c ****                         ucNum = (U8)(uiPara / uiPower);
 1013              		.loc 1 185 0
 1014 0590 38959FE5 		ldr	r9, .L204+28
 205:../srccode/device.c ****                         uiPara -= ucNum * uiPower;
 1015              		.loc 1 205 0
 1016 0594 8EE24CE0 		sub	lr, ip, lr, asl #5
 185:../srccode/device.c ****                         ucNum = (U8)(uiPara / uiPower);
 1017              		.loc 1 185 0
 1018 0598 994E8CE0 		umull	r4, ip, r9, lr
 1019 059c ACC6A0E1 		mov	ip, ip, lsr #13
 1020              	.LVL65:
 186:../srccode/device.c ****                         if(0 != ucNum)
 1021              		.loc 1 186 0
 1022 05a0 FFC01CE2 		ands	ip, ip, #255
 1023              	.LVL66:
 1024 05a4 D500000A 		beq	.L71
 1025              	.L76:
 195:../srccode/device.c ****                             if(uiMsgCntInBuf >= MSGBUFLEN)
 1026              		.loc 1 195 0
 1027 05a8 310053E3 		cmp	r3, #49
 1028 05ac 9EFFFF8A 		bhi	.L151
 1029              	.LVL67:
 1030              	.LBB54:
 1031              	.LBB42:
 370:../srccode/device.c ****     if(ucNum < 0xA)                     /* 输出0~9 */
 1032              		.loc 1 370 0
 1033 05b0 09005CE3 		cmp	ip, #9
 372:../srccode/device.c ****         return (ucNum + '0');
 1034              		.loc 1 372 0
 1035 05b4 30908C92 		addls	r9, ip, #48
 370:../srccode/device.c ****     if(ucNum < 0xA)                     /* 输出0~9 */
 1036              		.loc 1 370 0
 1037 05b8 2701008A 		bhi	.L189
 1038              	.L75:
ARM GAS  C:\DOCUME~1\ADMINI~1\LOCALS~1\Temp\cc6GBC3y.s 			page 30


 1039              	.LBE42:
 1040              	.LBE54:
 200:../srccode/device.c ****                             pstrMsgBuf->aucBuf[uiMsgCntInBuf] = DEV_Num2Asc(ucNum);
 1041              		.loc 1 200 0
 1042 05bc 034081E0 		add	r4, r1, r3
 1043 05c0 0A90C4E5 		strb	r9, [r4, #10]
 201:../srccode/device.c ****                             uiMsgCntInBuf++;
 1044              		.loc 1 201 0
 1045 05c4 0140A0E3 		mov	r4, #1
 1046 05c8 30400BE5 		str	r4, [fp, #-48]
 1047 05cc 013083E2 		add	r3, r3, #1
 1048              	.LVL68:
 1049              	.L74:
 205:../srccode/device.c ****                         uiPara -= ucNum * uiPower;
 1050              		.loc 1 205 0
 1051 05d0 8C926CE0 		rsb	r9, ip, ip, asl #5
 1052 05d4 09418CE0 		add	r4, ip, r9, asl #2
 1053 05d8 049184E0 		add	r9, r4, r4, asl #2
 1054 05dc 09E24EE0 		sub	lr, lr, r9, asl #4
 1055              	.LVL69:
 185:../srccode/device.c ****                         ucNum = (U8)(uiPara / uiPower);
 1056              		.loc 1 185 0
 1057 05e0 EC949FE5 		ldr	r9, .L204+32
 1058 05e4 994E8CE0 		umull	r4, ip, r9, lr
 1059 05e8 2CC3A0E1 		mov	ip, ip, lsr #6
 1060              	.LVL70:
 186:../srccode/device.c ****                         if(0 != ucNum)
 1061              		.loc 1 186 0
 1062 05ec FFC01CE2 		ands	ip, ip, #255
 1063              	.LVL71:
 1064 05f0 C700000A 		beq	.L77
 1065              	.L82:
 195:../srccode/device.c ****                             if(uiMsgCntInBuf >= MSGBUFLEN)
 1066              		.loc 1 195 0
 1067 05f4 310053E3 		cmp	r3, #49
 1068 05f8 8BFFFF8A 		bhi	.L151
 1069              	.LVL72:
 1070              	.LBB55:
 1071              	.LBB47:
 370:../srccode/device.c ****     if(ucNum < 0xA)                     /* 输出0~9 */
 1072              		.loc 1 370 0
 1073 05fc 09005CE3 		cmp	ip, #9
 372:../srccode/device.c ****         return (ucNum + '0');
 1074              		.loc 1 372 0
 1075 0600 30408C92 		addls	r4, ip, #48
 370:../srccode/device.c ****     if(ucNum < 0xA)                     /* 输出0~9 */
 1076              		.loc 1 370 0
 1077 0604 1601008A 		bhi	.L190
 1078              	.L81:
 1079              	.LBE47:
 1080              	.LBE55:
 200:../srccode/device.c ****                             pstrMsgBuf->aucBuf[uiMsgCntInBuf] = DEV_Num2Asc(ucNum);
 1081              		.loc 1 200 0
 1082 0608 039081E0 		add	r9, r1, r3
 1083 060c 0A40C9E5 		strb	r4, [r9, #10]
 201:../srccode/device.c ****                             uiMsgCntInBuf++;
 1084              		.loc 1 201 0
ARM GAS  C:\DOCUME~1\ADMINI~1\LOCALS~1\Temp\cc6GBC3y.s 			page 31


 1085 0610 0140A0E3 		mov	r4, #1
 1086 0614 30400BE5 		str	r4, [fp, #-48]
 205:../srccode/device.c ****                         uiPara -= ucNum * uiPower;
 1087              		.loc 1 205 0
 1088 0618 8C426CE0 		rsb	r4, ip, ip, asl #5
 1089 061c 04C18CE0 		add	ip, ip, r4, asl #2
 1090              	.LVL73:
 185:../srccode/device.c ****                         ucNum = (U8)(uiPara / uiPower);
 1091              		.loc 1 185 0
 1092 0620 B0949FE5 		ldr	r9, .L204+36
 205:../srccode/device.c ****                         uiPara -= ucNum * uiPower;
 1093              		.loc 1 205 0
 1094 0624 8CC14EE0 		sub	ip, lr, ip, asl #3
 185:../srccode/device.c ****                         ucNum = (U8)(uiPara / uiPower);
 1095              		.loc 1 185 0
 1096 0628 994C8EE0 		umull	r4, lr, r9, ip
 1097 062c AEE2A0E1 		mov	lr, lr, lsr #5
 186:../srccode/device.c ****                         if(0 != ucNum)
 1098              		.loc 1 186 0
 1099 0630 FFE01EE2 		ands	lr, lr, #255
 201:../srccode/device.c ****                             uiMsgCntInBuf++;
 1100              		.loc 1 201 0
 1101 0634 013083E2 		add	r3, r3, #1
 1102              	.LVL74:
 186:../srccode/device.c ****                         if(0 != ucNum)
 1103              		.loc 1 186 0
 1104 0638 C100000A 		beq	.L83
 1105              	.LVL75:
 1106              	.L88:
 195:../srccode/device.c ****                             if(uiMsgCntInBuf >= MSGBUFLEN)
 1107              		.loc 1 195 0
 1108 063c 310053E3 		cmp	r3, #49
 1109 0640 79FFFF8A 		bhi	.L151
 1110              	.LVL76:
 1111              	.LBB56:
 1112              	.LBB41:
 370:../srccode/device.c ****     if(ucNum < 0xA)                     /* 输出0~9 */
 1113              		.loc 1 370 0
 1114 0644 09005EE3 		cmp	lr, #9
 372:../srccode/device.c ****         return (ucNum + '0');
 1115              		.loc 1 372 0
 1116 0648 30408E92 		addls	r4, lr, #48
 370:../srccode/device.c ****     if(ucNum < 0xA)                     /* 输出0~9 */
 1117              		.loc 1 370 0
 1118 064c 0601008A 		bhi	.L191
 1119              	.L87:
 1120              	.LBE41:
 1121              	.LBE56:
 200:../srccode/device.c ****                             pstrMsgBuf->aucBuf[uiMsgCntInBuf] = DEV_Num2Asc(ucNum);
 1122              		.loc 1 200 0
 1123 0650 039081E0 		add	r9, r1, r3
 1124 0654 0A40C9E5 		strb	r4, [r9, #10]
 201:../srccode/device.c ****                             uiMsgCntInBuf++;
 1125              		.loc 1 201 0
 1126 0658 0190A0E3 		mov	r9, #1
 205:../srccode/device.c ****                         uiPara -= ucNum * uiPower;
 1127              		.loc 1 205 0
ARM GAS  C:\DOCUME~1\ADMINI~1\LOCALS~1\Temp\cc6GBC3y.s 			page 32


 1128 065c 0E418EE0 		add	r4, lr, lr, asl #2
 1129 0660 04E184E0 		add	lr, r4, r4, asl #2
 1130              	.LVL77:
 201:../srccode/device.c ****                             uiMsgCntInBuf++;
 1131              		.loc 1 201 0
 1132 0664 30900BE5 		str	r9, [fp, #-48]
 185:../srccode/device.c ****                         ucNum = (U8)(uiPara / uiPower);
 1133              		.loc 1 185 0
 1134 0668 6C949FE5 		ldr	r9, .L204+40
 205:../srccode/device.c ****                         uiPara -= ucNum * uiPower;
 1135              		.loc 1 205 0
 1136 066c 0EE14CE0 		sub	lr, ip, lr, asl #2
 185:../srccode/device.c ****                         ucNum = (U8)(uiPara / uiPower);
 1137              		.loc 1 185 0
 1138 0670 994E8CE0 		umull	r4, ip, r9, lr
 1139 0674 ACC1A0E1 		mov	ip, ip, lsr #3
 186:../srccode/device.c ****                         if(0 != ucNum)
 1140              		.loc 1 186 0
 1141 0678 FFC01CE2 		ands	ip, ip, #255
 201:../srccode/device.c ****                             uiMsgCntInBuf++;
 1142              		.loc 1 201 0
 1143 067c 013083E2 		add	r3, r3, #1
 1144              	.LVL78:
 186:../srccode/device.c ****                         if(0 != ucNum)
 1145              		.loc 1 186 0
 1146 0680 BB00000A 		beq	.L89
 1147              	.LVL79:
 1148              	.L94:
 195:../srccode/device.c ****                             if(uiMsgCntInBuf >= MSGBUFLEN)
 1149              		.loc 1 195 0
 1150 0684 310053E3 		cmp	r3, #49
 1151 0688 67FFFF8A 		bhi	.L151
 1152              	.LVL80:
 1153              	.LBB57:
 1154              	.LBB48:
 370:../srccode/device.c ****     if(ucNum < 0xA)                     /* 输出0~9 */
 1155              		.loc 1 370 0
 1156 068c 09005CE3 		cmp	ip, #9
 372:../srccode/device.c ****         return (ucNum + '0');
 1157              		.loc 1 372 0
 1158 0690 30408C92 		addls	r4, ip, #48
 370:../srccode/device.c ****     if(ucNum < 0xA)                     /* 输出0~9 */
 1159              		.loc 1 370 0
 1160 0694 F600008A 		bhi	.L192
 1161              	.L93:
 1162              	.LBE48:
 1163              	.LBE57:
 205:../srccode/device.c ****                         uiPara -= ucNum * uiPower;
 1164              		.loc 1 205 0
 1165 0698 0CC18CE0 		add	ip, ip, ip, asl #2
 1166              	.LVL81:
 1167 069c 8CC04EE0 		sub	ip, lr, ip, asl #1
 200:../srccode/device.c ****                             pstrMsgBuf->aucBuf[uiMsgCntInBuf] = DEV_Num2Asc(ucNum);
 1168              		.loc 1 200 0
 1169 06a0 039081E0 		add	r9, r1, r3
 186:../srccode/device.c ****                         if(0 != ucNum)
 1170              		.loc 1 186 0
ARM GAS  C:\DOCUME~1\ADMINI~1\LOCALS~1\Temp\cc6GBC3y.s 			page 33


 1171 06a4 FFC01CE2 		ands	ip, ip, #255
 200:../srccode/device.c ****                             pstrMsgBuf->aucBuf[uiMsgCntInBuf] = DEV_Num2Asc(ucNum);
 1172              		.loc 1 200 0
 1173 06a8 0A40C9E5 		strb	r4, [r9, #10]
 201:../srccode/device.c ****                             uiMsgCntInBuf++;
 1174              		.loc 1 201 0
 1175 06ac 013083E2 		add	r3, r3, #1
 1176              	.LVL82:
 1177 06b0 0140A0E3 		mov	r4, #1
 1178              	.LVL83:
 186:../srccode/device.c ****                         if(0 != ucNum)
 1179              		.loc 1 186 0
 1180 06b4 B600000A 		beq	.L193
 1181              	.LVL84:
 1182              	.L95:
 195:../srccode/device.c ****                             if(uiMsgCntInBuf >= MSGBUFLEN)
 1183              		.loc 1 195 0
 1184 06b8 310053E3 		cmp	r3, #49
 1185 06bc 5AFFFF8A 		bhi	.L151
 1186              	.LVL85:
 1187              	.LBB58:
 1188              	.LBB40:
 370:../srccode/device.c ****     if(ucNum < 0xA)                     /* 输出0~9 */
 1189              		.loc 1 370 0
 1190 06c0 09005CE3 		cmp	ip, #9
 1191              	.LBE40:
 1192              	.LBE58:
 200:../srccode/device.c ****                             pstrMsgBuf->aucBuf[uiMsgCntInBuf] = DEV_Num2Asc(ucNum);
 1193              		.loc 1 200 0
 1194 06c4 03E081E0 		add	lr, r1, r3
 1195              	.LBB59:
 1196              	.LBB49:
 372:../srccode/device.c ****         return (ucNum + '0');
 1197              		.loc 1 372 0
 1198 06c8 30C08C92 		addls	ip, ip, #48
 1199              	.LVL86:
 376:../srccode/device.c ****         return (ucNum - 0x0A + 'A');    /* 输出A~F */
 1200              		.loc 1 376 0
 1201 06cc 37C08C82 		addhi	ip, ip, #55
 1202              	.LBE49:
 1203              	.LBE59:
 200:../srccode/device.c ****                             pstrMsgBuf->aucBuf[uiMsgCntInBuf] = DEV_Num2Asc(ucNum);
 1204              		.loc 1 200 0
 1205 06d0 0AC0CEE5 		strb	ip, [lr, #10]
 201:../srccode/device.c ****                             uiMsgCntInBuf++;
 1206              		.loc 1 201 0
 1207 06d4 013083E2 		add	r3, r3, #1
 1208              	.LVL87:
 294:../srccode/device.c ****                 uiMsgCntInStr++;
 1209              		.loc 1 294 0
 1210 06d8 012082E2 		add	r2, r2, #1
 1211              	.LVL88:
 1212 06dc 53FFFFEA 		b	.L181
 1213              	.LVL89:
 1214              	.L185:
 230:../srccode/device.c ****                 uiPara = (U32)*ppucParaPt;
 1215              		.loc 1 230 0
ARM GAS  C:\DOCUME~1\ADMINI~1\LOCALS~1\Temp\cc6GBC3y.s 			page 34


 1216 06e0 00C095E5 		ldr	ip, [r5, #0]
 1217              	.LVL90:
 233:../srccode/device.c ****                 if(0 != uiPara)
 1218              		.loc 1 233 0
 1219 06e4 00005CE3 		cmp	ip, #0
 1220 06e8 0600001A 		bne	.L194
 1221              	.LVL91:
 1222              	.L103:
 266:../srccode/device.c ****                     pstrMsgBuf->aucBuf[uiMsgCntInBuf] = DEV_Num2Asc(0);
 1223              		.loc 1 266 0
 1224 06ec 03C081E0 		add	ip, r1, r3
 1225              	.LVL92:
 1226 06f0 30E0A0E3 		mov	lr, #48
 1227 06f4 0AE0CCE5 		strb	lr, [ip, #10]
 267:../srccode/device.c ****                     uiMsgCntInStr++;
 1228              		.loc 1 267 0
 1229 06f8 012082E2 		add	r2, r2, #1
 1230              	.LVL93:
 268:../srccode/device.c ****                     uiMsgCntInBuf++;
 1231              		.loc 1 268 0
 1232 06fc 013083E2 		add	r3, r3, #1
 1233              	.LVL94:
 297:../srccode/device.c ****                 ppucParaPt++;
 1234              		.loc 1 297 0
 1235 0700 045085E2 		add	r5, r5, #4
 1236              	.LVL95:
 1237 0704 01FFFFEA 		b	.L162
 1238              	.LVL96:
 1239              	.L194:
 238:../srccode/device.c ****                         if(0 != ucNum)
 1240              		.loc 1 238 0
 1241 0708 2CEEB0E1 		movs	lr, ip, lsr #28
 1242 070c 0E40A001 		moveq	r4, lr
 1243 0710 0600000A 		beq	.L104
 1244              	.LVL97:
 1245              	.LBB60:
 1246              	.LBB65:
 370:../srccode/device.c ****     if(ucNum < 0xA)                     /* 输出0~9 */
 1247              		.loc 1 370 0
 1248 0714 09005EE3 		cmp	lr, #9
 372:../srccode/device.c ****         return (ucNum + '0');
 1249              		.loc 1 372 0
 1250 0718 30408E92 		addls	r4, lr, #48
 370:../srccode/device.c ****     if(ucNum < 0xA)                     /* 输出0~9 */
 1251              		.loc 1 370 0
 1252 071c D600008A 		bhi	.L195
 1253              	.L107:
 1254              	.LBE65:
 1255              	.LBE60:
 252:../srccode/device.c ****                             pstrMsgBuf->aucBuf[uiMsgCntInBuf] = DEV_Num2Asc(ucNum);
 1256              		.loc 1 252 0
 1257 0720 039081E0 		add	r9, r1, r3
 1258 0724 0A40C9E5 		strb	r4, [r9, #10]
 253:../srccode/device.c ****                             uiMsgCntInBuf++;
 1259              		.loc 1 253 0
 1260 0728 013083E2 		add	r3, r3, #1
 1261              	.LVL98:
ARM GAS  C:\DOCUME~1\ADMINI~1\LOCALS~1\Temp\cc6GBC3y.s 			page 35


 1262 072c 0140A0E3 		mov	r4, #1
 1263              	.LVL99:
 1264              	.L104:
 257:../srccode/device.c ****                         uiPara -= ucNum * uiPower;
 1265              		.loc 1 257 0
 1266 0730 0ECE4CE0 		sub	ip, ip, lr, asl #28
 1267              	.LVL100:
 238:../srccode/device.c ****                         if(0 != ucNum)
 1268              		.loc 1 238 0
 1269 0734 2CECB0E1 		movs	lr, ip, lsr #24
 1270              	.LVL101:
 1271 0738 5A00001A 		bne	.L114
 244:../srccode/device.c ****                         if(1 == ucNumSign)
 1272              		.loc 1 244 0
 1273 073c 010054E3 		cmp	r4, #1
 1274 0740 5800000A 		beq	.L114
 1275 0744 0E40A0E1 		mov	r4, lr
 1276              	.LVL102:
 1277              	.L112:
 257:../srccode/device.c ****                         uiPara -= ucNum * uiPower;
 1278              		.loc 1 257 0
 1279 0748 0ECC4CE0 		sub	ip, ip, lr, asl #24
 1280              	.LVL103:
 237:../srccode/device.c ****                         ucNum = (U8)(uiPara / uiPower);
 1281              		.loc 1 237 0
 1282 074c 2CEAA0E1 		mov	lr, ip, lsr #20
 1283              	.LVL104:
 238:../srccode/device.c ****                         if(0 != ucNum)
 1284              		.loc 1 238 0
 1285 0750 FFE01EE2 		ands	lr, lr, #255
 1286              	.LVL105:
 1287 0754 9200000A 		beq	.L115
 1288              	.LVL106:
 1289              	.L120:
 247:../srccode/device.c ****                             if(uiMsgCntInBuf >= MSGBUFLEN)
 1290              		.loc 1 247 0
 1291 0758 320053E3 		cmp	r3, #50
 1292 075c 32FFFF0A 		beq	.L151
 1293              	.LVL107:
 1294              	.LBB71:
 1295              	.LBB66:
 370:../srccode/device.c ****     if(ucNum < 0xA)                     /* 输出0~9 */
 1296              		.loc 1 370 0
 1297 0760 09005EE3 		cmp	lr, #9
 372:../srccode/device.c ****         return (ucNum + '0');
 1298              		.loc 1 372 0
 1299 0764 30408E92 		addls	r4, lr, #48
 370:../srccode/device.c ****     if(ucNum < 0xA)                     /* 输出0~9 */
 1300              		.loc 1 370 0
 1301 0768 C500008A 		bhi	.L196
 1302              	.L119:
 1303              	.LBE66:
 1304              	.LBE71:
 252:../srccode/device.c ****                             pstrMsgBuf->aucBuf[uiMsgCntInBuf] = DEV_Num2Asc(ucNum);
 1305              		.loc 1 252 0
 1306 076c 039081E0 		add	r9, r1, r3
 257:../srccode/device.c ****                         uiPara -= ucNum * uiPower;
ARM GAS  C:\DOCUME~1\ADMINI~1\LOCALS~1\Temp\cc6GBC3y.s 			page 36


 1307              		.loc 1 257 0
 1308 0770 0ECA4CE0 		sub	ip, ip, lr, asl #20
 252:../srccode/device.c ****                             pstrMsgBuf->aucBuf[uiMsgCntInBuf] = DEV_Num2Asc(ucNum);
 1309              		.loc 1 252 0
 1310 0774 0A40C9E5 		strb	r4, [r9, #10]
 237:../srccode/device.c ****                         ucNum = (U8)(uiPara / uiPower);
 1311              		.loc 1 237 0
 1312 0778 2C48A0E1 		mov	r4, ip, lsr #16
 238:../srccode/device.c ****                         if(0 != ucNum)
 1313              		.loc 1 238 0
 1314 077c FF4014E2 		ands	r4, r4, #255
 253:../srccode/device.c ****                             uiMsgCntInBuf++;
 1315              		.loc 1 253 0
 1316 0780 013083E2 		add	r3, r3, #1
 1317              	.LVL108:
 1318 0784 0190A0E3 		mov	r9, #1
 1319              	.LVL109:
 238:../srccode/device.c ****                         if(0 != ucNum)
 1320              		.loc 1 238 0
 1321 0788 8C00000A 		beq	.L121
 1322              	.LVL110:
 1323              	.L126:
 247:../srccode/device.c ****                             if(uiMsgCntInBuf >= MSGBUFLEN)
 1324              		.loc 1 247 0
 1325 078c 320053E3 		cmp	r3, #50
 1326 0790 25FFFF0A 		beq	.L151
 1327              	.LVL111:
 1328              	.LBB72:
 1329              	.LBB64:
 370:../srccode/device.c ****     if(ucNum < 0xA)                     /* 输出0~9 */
 1330              		.loc 1 370 0
 1331 0794 090054E3 		cmp	r4, #9
 372:../srccode/device.c ****         return (ucNum + '0');
 1332              		.loc 1 372 0
 1333 0798 30E08492 		addls	lr, r4, #48
 370:../srccode/device.c ****     if(ucNum < 0xA)                     /* 输出0~9 */
 1334              		.loc 1 370 0
 1335 079c BC00008A 		bhi	.L197
 1336              	.L125:
 1337              	.LBE64:
 1338              	.LBE72:
 257:../srccode/device.c ****                         uiPara -= ucNum * uiPower;
 1339              		.loc 1 257 0
 1340 07a0 04C84CE0 		sub	ip, ip, r4, asl #16
 237:../srccode/device.c ****                         ucNum = (U8)(uiPara / uiPower);
 1341              		.loc 1 237 0
 1342 07a4 2C46A0E1 		mov	r4, ip, lsr #12
 1343              	.LVL112:
 252:../srccode/device.c ****                             pstrMsgBuf->aucBuf[uiMsgCntInBuf] = DEV_Num2Asc(ucNum);
 1344              		.loc 1 252 0
 1345 07a8 039081E0 		add	r9, r1, r3
 238:../srccode/device.c ****                         if(0 != ucNum)
 1346              		.loc 1 238 0
 1347 07ac FF4014E2 		ands	r4, r4, #255
 252:../srccode/device.c ****                             pstrMsgBuf->aucBuf[uiMsgCntInBuf] = DEV_Num2Asc(ucNum);
 1348              		.loc 1 252 0
 1349 07b0 0AE0C9E5 		strb	lr, [r9, #10]
ARM GAS  C:\DOCUME~1\ADMINI~1\LOCALS~1\Temp\cc6GBC3y.s 			page 37


 253:../srccode/device.c ****                             uiMsgCntInBuf++;
 1350              		.loc 1 253 0
 1351 07b4 013083E2 		add	r3, r3, #1
 1352              	.LVL113:
 1353 07b8 0190A0E3 		mov	r9, #1
 1354              	.LVL114:
 238:../srccode/device.c ****                         if(0 != ucNum)
 1355              		.loc 1 238 0
 1356 07bc 8600000A 		beq	.L127
 1357              	.LVL115:
 1358              	.L132:
 247:../srccode/device.c ****                             if(uiMsgCntInBuf >= MSGBUFLEN)
 1359              		.loc 1 247 0
 1360 07c0 320053E3 		cmp	r3, #50
 1361 07c4 18FFFF0A 		beq	.L151
 1362              	.LVL116:
 1363              	.LBB73:
 1364              	.LBB67:
 370:../srccode/device.c ****     if(ucNum < 0xA)                     /* 输出0~9 */
 1365              		.loc 1 370 0
 1366 07c8 090054E3 		cmp	r4, #9
 372:../srccode/device.c ****         return (ucNum + '0');
 1367              		.loc 1 372 0
 1368 07cc 30E08492 		addls	lr, r4, #48
 370:../srccode/device.c ****     if(ucNum < 0xA)                     /* 输出0~9 */
 1369              		.loc 1 370 0
 1370 07d0 B100008A 		bhi	.L198
 1371              	.L131:
 1372              	.LBE67:
 1373              	.LBE73:
 257:../srccode/device.c ****                         uiPara -= ucNum * uiPower;
 1374              		.loc 1 257 0
 1375 07d4 04464CE0 		sub	r4, ip, r4, asl #12
 1376              	.LVL117:
 237:../srccode/device.c ****                         ucNum = (U8)(uiPara / uiPower);
 1377              		.loc 1 237 0
 1378 07d8 24C4A0E1 		mov	ip, r4, lsr #8
 252:../srccode/device.c ****                             pstrMsgBuf->aucBuf[uiMsgCntInBuf] = DEV_Num2Asc(ucNum);
 1379              		.loc 1 252 0
 1380 07dc 039081E0 		add	r9, r1, r3
 238:../srccode/device.c ****                         if(0 != ucNum)
 1381              		.loc 1 238 0
 1382 07e0 FFC01CE2 		ands	ip, ip, #255
 252:../srccode/device.c ****                             pstrMsgBuf->aucBuf[uiMsgCntInBuf] = DEV_Num2Asc(ucNum);
 1383              		.loc 1 252 0
 1384 07e4 0AE0C9E5 		strb	lr, [r9, #10]
 253:../srccode/device.c ****                             uiMsgCntInBuf++;
 1385              		.loc 1 253 0
 1386 07e8 013083E2 		add	r3, r3, #1
 1387              	.LVL118:
 1388 07ec 01E0A0E3 		mov	lr, #1
 1389              	.LVL119:
 238:../srccode/device.c ****                         if(0 != ucNum)
 1390              		.loc 1 238 0
 1391 07f0 8000000A 		beq	.L133
 1392              	.LVL120:
 1393              	.L138:
ARM GAS  C:\DOCUME~1\ADMINI~1\LOCALS~1\Temp\cc6GBC3y.s 			page 38


 247:../srccode/device.c ****                             if(uiMsgCntInBuf >= MSGBUFLEN)
 1394              		.loc 1 247 0
 1395 07f4 320053E3 		cmp	r3, #50
 1396 07f8 0BFFFF0A 		beq	.L151
 1397              	.LVL121:
 1398              	.LBB74:
 1399              	.LBB63:
 370:../srccode/device.c ****     if(ucNum < 0xA)                     /* 输出0~9 */
 1400              		.loc 1 370 0
 1401 07fc 09005CE3 		cmp	ip, #9
 372:../srccode/device.c ****         return (ucNum + '0');
 1402              		.loc 1 372 0
 1403 0800 30E08C92 		addls	lr, ip, #48
 370:../srccode/device.c ****     if(ucNum < 0xA)                     /* 输出0~9 */
 1404              		.loc 1 370 0
 1405 0804 A600008A 		bhi	.L199
 1406              	.L137:
 1407              	.LBE63:
 1408              	.LBE74:
 252:../srccode/device.c ****                             pstrMsgBuf->aucBuf[uiMsgCntInBuf] = DEV_Num2Asc(ucNum);
 1409              		.loc 1 252 0
 1410 0808 039081E0 		add	r9, r1, r3
 257:../srccode/device.c ****                         uiPara -= ucNum * uiPower;
 1411              		.loc 1 257 0
 1412 080c 0CC444E0 		sub	ip, r4, ip, asl #8
 1413              	.LVL122:
 252:../srccode/device.c ****                             pstrMsgBuf->aucBuf[uiMsgCntInBuf] = DEV_Num2Asc(ucNum);
 1414              		.loc 1 252 0
 1415 0810 0AE0C9E5 		strb	lr, [r9, #10]
 237:../srccode/device.c ****                         ucNum = (U8)(uiPara / uiPower);
 1416              		.loc 1 237 0
 1417 0814 2CE2A0E1 		mov	lr, ip, lsr #4
 238:../srccode/device.c ****                         if(0 != ucNum)
 1418              		.loc 1 238 0
 1419 0818 FFE01EE2 		ands	lr, lr, #255
 253:../srccode/device.c ****                             uiMsgCntInBuf++;
 1420              		.loc 1 253 0
 1421 081c 013083E2 		add	r3, r3, #1
 1422              	.LVL123:
 1423 0820 0190A0E3 		mov	r9, #1
 1424              	.LVL124:
 238:../srccode/device.c ****                         if(0 != ucNum)
 1425              		.loc 1 238 0
 1426 0824 7A00000A 		beq	.L139
 1427              	.LVL125:
 1428              	.L144:
 247:../srccode/device.c ****                             if(uiMsgCntInBuf >= MSGBUFLEN)
 1429              		.loc 1 247 0
 1430 0828 320053E3 		cmp	r3, #50
 1431 082c FEFEFF0A 		beq	.L151
 1432              	.LVL126:
 1433              	.LBB75:
 1434              	.LBB68:
 370:../srccode/device.c ****     if(ucNum < 0xA)                     /* 输出0~9 */
 1435              		.loc 1 370 0
 1436 0830 09005EE3 		cmp	lr, #9
 372:../srccode/device.c ****         return (ucNum + '0');
ARM GAS  C:\DOCUME~1\ADMINI~1\LOCALS~1\Temp\cc6GBC3y.s 			page 39


 1437              		.loc 1 372 0
 1438 0834 30408E92 		addls	r4, lr, #48
 370:../srccode/device.c ****     if(ucNum < 0xA)                     /* 输出0~9 */
 1439              		.loc 1 370 0
 1440 0838 9B00008A 		bhi	.L200
 1441              	.L143:
 1442              	.LBE68:
 1443              	.LBE75:
 257:../srccode/device.c ****                         uiPara -= ucNum * uiPower;
 1444              		.loc 1 257 0
 1445 083c 0EC24CE0 		sub	ip, ip, lr, asl #4
 252:../srccode/device.c ****                             pstrMsgBuf->aucBuf[uiMsgCntInBuf] = DEV_Num2Asc(ucNum);
 1446              		.loc 1 252 0
 1447 0840 039081E0 		add	r9, r1, r3
 238:../srccode/device.c ****                         if(0 != ucNum)
 1448              		.loc 1 238 0
 1449 0844 FFE01CE2 		ands	lr, ip, #255
 1450              	.LVL127:
 252:../srccode/device.c ****                             pstrMsgBuf->aucBuf[uiMsgCntInBuf] = DEV_Num2Asc(ucNum);
 1451              		.loc 1 252 0
 1452 0848 0A40C9E5 		strb	r4, [r9, #10]
 253:../srccode/device.c ****                             uiMsgCntInBuf++;
 1453              		.loc 1 253 0
 1454 084c 013083E2 		add	r3, r3, #1
 1455              	.LVL128:
 1456 0850 0140A0E3 		mov	r4, #1
 1457              	.LVL129:
 238:../srccode/device.c ****                         if(0 != ucNum)
 1458              		.loc 1 238 0
 1459 0854 7400000A 		beq	.L201
 1460              	.LVL130:
 1461              	.L145:
 247:../srccode/device.c ****                             if(uiMsgCntInBuf >= MSGBUFLEN)
 1462              		.loc 1 247 0
 1463 0858 320053E3 		cmp	r3, #50
 1464 085c F2FEFF0A 		beq	.L151
 1465              	.LVL131:
 1466              	.LBB76:
 1467              	.LBB62:
 370:../srccode/device.c ****     if(ucNum < 0xA)                     /* 输出0~9 */
 1468              		.loc 1 370 0
 1469 0860 09005EE3 		cmp	lr, #9
 1470              	.LBE62:
 1471              	.LBE76:
 252:../srccode/device.c ****                             pstrMsgBuf->aucBuf[uiMsgCntInBuf] = DEV_Num2Asc(ucNum);
 1472              		.loc 1 252 0
 1473 0864 03C081E0 		add	ip, r1, r3
 1474              	.LBB77:
 1475              	.LBB69:
 372:../srccode/device.c ****         return (ucNum + '0');
 1476              		.loc 1 372 0
 1477 0868 30E08E92 		addls	lr, lr, #48
 1478              	.LVL132:
 376:../srccode/device.c ****         return (ucNum - 0x0A + 'A');    /* 输出A~F */
 1479              		.loc 1 376 0
 1480 086c 37E08E82 		addhi	lr, lr, #55
 1481              	.LBE69:
ARM GAS  C:\DOCUME~1\ADMINI~1\LOCALS~1\Temp\cc6GBC3y.s 			page 40


 1482              	.LBE77:
 252:../srccode/device.c ****                             pstrMsgBuf->aucBuf[uiMsgCntInBuf] = DEV_Num2Asc(ucNum);
 1483              		.loc 1 252 0
 1484 0870 0AE0CCE5 		strb	lr, [ip, #10]
 253:../srccode/device.c ****                             uiMsgCntInBuf++;
 1485              		.loc 1 253 0
 1486 0874 013083E2 		add	r3, r3, #1
 1487              	.LVL133:
 294:../srccode/device.c ****                 uiMsgCntInStr++;
 1488              		.loc 1 294 0
 1489 0878 012082E2 		add	r2, r2, #1
 1490              	.LVL134:
 1491 087c EBFEFFEA 		b	.L181
 1492              	.LVL135:
 1493              	.L52:
 195:../srccode/device.c ****                             if(uiMsgCntInBuf >= MSGBUFLEN)
 1494              		.loc 1 195 0
 1495 0880 310053E3 		cmp	r3, #49
 1496 0884 E8FEFF8A 		bhi	.L151
 1497              	.LVL136:
 1498              	.LBB78:
 1499              	.LBB39:
 370:../srccode/device.c ****     if(ucNum < 0xA)                     /* 输出0~9 */
 1500              		.loc 1 370 0
 1501 0888 09005EE3 		cmp	lr, #9
 372:../srccode/device.c ****         return (ucNum + '0');
 1502              		.loc 1 372 0
 1503 088c 30908E92 		addls	r9, lr, #48
 370:../srccode/device.c ****     if(ucNum < 0xA)                     /* 输出0~9 */
 1504              		.loc 1 370 0
 1505 0890 6900008A 		bhi	.L202
 1506              	.L51:
 1507              	.LBE39:
 1508              	.LBE78:
 200:../srccode/device.c ****                             pstrMsgBuf->aucBuf[uiMsgCntInBuf] = DEV_Num2Asc(ucNum);
 1509              		.loc 1 200 0
 1510 0894 034081E0 		add	r4, r1, r3
 1511              	.LVL137:
 1512 0898 0A90C4E5 		strb	r9, [r4, #10]
 201:../srccode/device.c ****                             uiMsgCntInBuf++;
 1513              		.loc 1 201 0
 1514 089c 013083E2 		add	r3, r3, #1
 1515              	.LVL138:
 1516 08a0 0140A0E3 		mov	r4, #1
 1517 08a4 FDFEFFEA 		b	.L50
 1518              	.LVL139:
 1519              	.L114:
 247:../srccode/device.c ****                             if(uiMsgCntInBuf >= MSGBUFLEN)
 1520              		.loc 1 247 0
 1521 08a8 320053E3 		cmp	r3, #50
 1522 08ac DEFEFF0A 		beq	.L151
 1523              	.LVL140:
 1524              	.LBB79:
 1525              	.LBB61:
 370:../srccode/device.c ****     if(ucNum < 0xA)                     /* 输出0~9 */
 1526              		.loc 1 370 0
 1527 08b0 09005EE3 		cmp	lr, #9
ARM GAS  C:\DOCUME~1\ADMINI~1\LOCALS~1\Temp\cc6GBC3y.s 			page 41


 372:../srccode/device.c ****         return (ucNum + '0');
 1528              		.loc 1 372 0
 1529 08b4 30408E92 		addls	r4, lr, #48
 1530              	.LVL141:
 370:../srccode/device.c ****     if(ucNum < 0xA)                     /* 输出0~9 */
 1531              		.loc 1 370 0
 1532 08b8 7300008A 		bhi	.L203
 1533              	.L113:
 1534              	.LBE61:
 1535              	.LBE79:
 252:../srccode/device.c ****                             pstrMsgBuf->aucBuf[uiMsgCntInBuf] = DEV_Num2Asc(ucNum);
 1536              		.loc 1 252 0
 1537 08bc 039081E0 		add	r9, r1, r3
 1538 08c0 0A40C9E5 		strb	r4, [r9, #10]
 253:../srccode/device.c ****                             uiMsgCntInBuf++;
 1539              		.loc 1 253 0
 1540 08c4 013083E2 		add	r3, r3, #1
 1541              	.LVL142:
 1542 08c8 0140A0E3 		mov	r4, #1
 1543 08cc 9DFFFFEA 		b	.L112
 1544              	.LVL143:
 1545              	.L53:
 192:../srccode/device.c ****                         if(1 == ucNumSign)
 1546              		.loc 1 192 0
 1547 08d0 010054E3 		cmp	r4, #1
 1548 08d4 FBFEFF0A 		beq	.L58
 1549 08d8 0E40A0E1 		mov	r4, lr
 1550              	.LVL144:
 1551 08dc 02FFFFEA 		b	.L56
 1552              	.LVL145:
 1553              	.L59:
 1554 08e0 010054E3 		cmp	r4, #1
 1555 08e4 09FFFF0A 		beq	.L64
 1556 08e8 0C40A0E1 		mov	r4, ip
 1557              	.LVL146:
 1558 08ec 10FFFFEA 		b	.L62
 1559              	.LVL147:
 1560              	.L65:
 1561 08f0 010054E3 		cmp	r4, #1
 1562 08f4 17FFFF0A 		beq	.L70
 1563 08f8 30E00BE5 		str	lr, [fp, #-48]
 1564 08fc 1FFFFFEA 		b	.L68
 1565              	.LVL148:
 1566              	.L71:
 1567 0900 30401BE5 		ldr	r4, [fp, #-48]
 1568 0904 010054E3 		cmp	r4, #1
 1569 0908 26FFFF0A 		beq	.L76
 1570 090c 30C00BE5 		str	ip, [fp, #-48]
 1571 0910 2EFFFFEA 		b	.L74
 1572              	.LVL149:
 1573              	.L77:
 1574 0914 30401BE5 		ldr	r4, [fp, #-48]
 1575 0918 010054E3 		cmp	r4, #1
 1576 091c 34FFFF0A 		beq	.L82
 205:../srccode/device.c ****                         uiPara -= ucNum * uiPower;
 1577              		.loc 1 205 0
 1578 0920 8C426CE0 		rsb	r4, ip, ip, asl #5
ARM GAS  C:\DOCUME~1\ADMINI~1\LOCALS~1\Temp\cc6GBC3y.s 			page 42


 192:../srccode/device.c ****                         if(1 == ucNumSign)
 1579              		.loc 1 192 0
 1580 0924 30C00BE5 		str	ip, [fp, #-48]
 1581              	.LVL150:
 185:../srccode/device.c ****                         ucNum = (U8)(uiPara / uiPower);
 1582              		.loc 1 185 0
 1583 0928 A8919FE5 		ldr	r9, .L204+36
 205:../srccode/device.c ****                         uiPara -= ucNum * uiPower;
 1584              		.loc 1 205 0
 1585 092c 04C18CE0 		add	ip, ip, r4, asl #2
 1586              	.LVL151:
 1587 0930 8CC14EE0 		sub	ip, lr, ip, asl #3
 185:../srccode/device.c ****                         ucNum = (U8)(uiPara / uiPower);
 1588              		.loc 1 185 0
 1589 0934 994C8EE0 		umull	r4, lr, r9, ip
 1590 0938 AEE2A0E1 		mov	lr, lr, lsr #5
 1591              	.LVL152:
 186:../srccode/device.c ****                         if(0 != ucNum)
 1592              		.loc 1 186 0
 1593 093c FFE01EE2 		ands	lr, lr, #255
 1594              	.LVL153:
 1595 0940 3DFFFF1A 		bne	.L88
 1596              	.LVL154:
 1597              	.L83:
 192:../srccode/device.c ****                         if(1 == ucNumSign)
 1598              		.loc 1 192 0
 1599 0944 30401BE5 		ldr	r4, [fp, #-48]
 1600 0948 010054E3 		cmp	r4, #1
 1601 094c 3AFFFF0A 		beq	.L88
 205:../srccode/device.c ****                         uiPara -= ucNum * uiPower;
 1602              		.loc 1 205 0
 1603 0950 0E418EE0 		add	r4, lr, lr, asl #2
 192:../srccode/device.c ****                         if(1 == ucNumSign)
 1604              		.loc 1 192 0
 1605 0954 30E00BE5 		str	lr, [fp, #-48]
 1606              	.LVL155:
 185:../srccode/device.c ****                         ucNum = (U8)(uiPara / uiPower);
 1607              		.loc 1 185 0
 1608 0958 7C919FE5 		ldr	r9, .L204+40
 205:../srccode/device.c ****                         uiPara -= ucNum * uiPower;
 1609              		.loc 1 205 0
 1610 095c 04E184E0 		add	lr, r4, r4, asl #2
 1611              	.LVL156:
 1612 0960 0EE14CE0 		sub	lr, ip, lr, asl #2
 185:../srccode/device.c ****                         ucNum = (U8)(uiPara / uiPower);
 1613              		.loc 1 185 0
 1614 0964 994E8CE0 		umull	r4, ip, r9, lr
 1615 0968 ACC1A0E1 		mov	ip, ip, lsr #3
 1616              	.LVL157:
 186:../srccode/device.c ****                         if(0 != ucNum)
 1617              		.loc 1 186 0
 1618 096c FFC01CE2 		ands	ip, ip, #255
 1619              	.LVL158:
 1620 0970 43FFFF1A 		bne	.L94
 1621              	.LVL159:
 1622              	.L89:
 192:../srccode/device.c ****                         if(1 == ucNumSign)
ARM GAS  C:\DOCUME~1\ADMINI~1\LOCALS~1\Temp\cc6GBC3y.s 			page 43


 1623              		.loc 1 192 0
 1624 0974 30901BE5 		ldr	r9, [fp, #-48]
 1625 0978 010059E3 		cmp	r9, #1
 1626 097c 40FFFF0A 		beq	.L94
 1627 0980 0C40A0E1 		mov	r4, ip
 1628              	.LVL160:
 205:../srccode/device.c ****                         uiPara -= ucNum * uiPower;
 1629              		.loc 1 205 0
 1630 0984 0CC18CE0 		add	ip, ip, ip, asl #2
 1631              	.LVL161:
 1632 0988 8CC04EE0 		sub	ip, lr, ip, asl #1
 1633              	.LVL162:
 186:../srccode/device.c ****                         if(0 != ucNum)
 1634              		.loc 1 186 0
 1635 098c FFC01CE2 		ands	ip, ip, #255
 1636              	.LVL163:
 1637 0990 48FFFF1A 		bne	.L95
 1638              	.LVL164:
 1639              	.L193:
 192:../srccode/device.c ****                         if(1 == ucNumSign)
 1640              		.loc 1 192 0
 1641 0994 010054E3 		cmp	r4, #1
 1642 0998 46FFFF0A 		beq	.L95
 294:../srccode/device.c ****                 uiMsgCntInStr++;
 1643              		.loc 1 294 0
 1644 099c 012082E2 		add	r2, r2, #1
 1645              	.LVL165:
 1646 09a0 A2FEFFEA 		b	.L181
 1647              	.LVL166:
 1648              	.L115:
 244:../srccode/device.c ****                         if(1 == ucNumSign)
 1649              		.loc 1 244 0
 1650 09a4 010054E3 		cmp	r4, #1
 1651 09a8 6AFFFF0A 		beq	.L120
 257:../srccode/device.c ****                         uiPara -= ucNum * uiPower;
 1652              		.loc 1 257 0
 1653 09ac 0ECA4CE0 		sub	ip, ip, lr, asl #20
 237:../srccode/device.c ****                         ucNum = (U8)(uiPara / uiPower);
 1654              		.loc 1 237 0
 1655 09b0 2C48A0E1 		mov	r4, ip, lsr #16
 1656              	.LVL167:
 238:../srccode/device.c ****                         if(0 != ucNum)
 1657              		.loc 1 238 0
 1658 09b4 FF4014E2 		ands	r4, r4, #255
 244:../srccode/device.c ****                         if(1 == ucNumSign)
 1659              		.loc 1 244 0
 1660 09b8 0E90A0E1 		mov	r9, lr
 1661              	.LVL168:
 238:../srccode/device.c ****                         if(0 != ucNum)
 1662              		.loc 1 238 0
 1663 09bc 72FFFF1A 		bne	.L126
 1664              	.LVL169:
 1665              	.L121:
 244:../srccode/device.c ****                         if(1 == ucNumSign)
 1666              		.loc 1 244 0
 1667 09c0 010059E3 		cmp	r9, #1
 1668 09c4 70FFFF0A 		beq	.L126
ARM GAS  C:\DOCUME~1\ADMINI~1\LOCALS~1\Temp\cc6GBC3y.s 			page 44


 257:../srccode/device.c ****                         uiPara -= ucNum * uiPower;
 1669              		.loc 1 257 0
 1670 09c8 04C84CE0 		sub	ip, ip, r4, asl #16
 244:../srccode/device.c ****                         if(1 == ucNumSign)
 1671              		.loc 1 244 0
 1672 09cc 0490A0E1 		mov	r9, r4
 1673              	.LVL170:
 237:../srccode/device.c ****                         ucNum = (U8)(uiPara / uiPower);
 1674              		.loc 1 237 0
 1675 09d0 2C46A0E1 		mov	r4, ip, lsr #12
 1676              	.LVL171:
 238:../srccode/device.c ****                         if(0 != ucNum)
 1677              		.loc 1 238 0
 1678 09d4 FF4014E2 		ands	r4, r4, #255
 1679              	.LVL172:
 1680 09d8 78FFFF1A 		bne	.L132
 1681              	.LVL173:
 1682              	.L127:
 244:../srccode/device.c ****                         if(1 == ucNumSign)
 1683              		.loc 1 244 0
 1684 09dc 010059E3 		cmp	r9, #1
 1685 09e0 76FFFF0A 		beq	.L132
 1686 09e4 04E0A0E1 		mov	lr, r4
 1687              	.LVL174:
 257:../srccode/device.c ****                         uiPara -= ucNum * uiPower;
 1688              		.loc 1 257 0
 1689 09e8 04464CE0 		sub	r4, ip, r4, asl #12
 1690              	.LVL175:
 237:../srccode/device.c ****                         ucNum = (U8)(uiPara / uiPower);
 1691              		.loc 1 237 0
 1692 09ec 24C4A0E1 		mov	ip, r4, lsr #8
 1693              	.LVL176:
 238:../srccode/device.c ****                         if(0 != ucNum)
 1694              		.loc 1 238 0
 1695 09f0 FFC01CE2 		ands	ip, ip, #255
 1696              	.LVL177:
 1697 09f4 7EFFFF1A 		bne	.L138
 1698              	.LVL178:
 1699              	.L133:
 244:../srccode/device.c ****                         if(1 == ucNumSign)
 1700              		.loc 1 244 0
 1701 09f8 01005EE3 		cmp	lr, #1
 1702 09fc 7CFFFF0A 		beq	.L138
 1703 0a00 0C90A0E1 		mov	r9, ip
 1704              	.LVL179:
 257:../srccode/device.c ****                         uiPara -= ucNum * uiPower;
 1705              		.loc 1 257 0
 1706 0a04 0CC444E0 		sub	ip, r4, ip, asl #8
 1707              	.LVL180:
 237:../srccode/device.c ****                         ucNum = (U8)(uiPara / uiPower);
 1708              		.loc 1 237 0
 1709 0a08 2CE2A0E1 		mov	lr, ip, lsr #4
 1710              	.LVL181:
 238:../srccode/device.c ****                         if(0 != ucNum)
 1711              		.loc 1 238 0
 1712 0a0c FFE01EE2 		ands	lr, lr, #255
 1713              	.LVL182:
ARM GAS  C:\DOCUME~1\ADMINI~1\LOCALS~1\Temp\cc6GBC3y.s 			page 45


 1714 0a10 84FFFF1A 		bne	.L144
 1715              	.LVL183:
 1716              	.L139:
 244:../srccode/device.c ****                         if(1 == ucNumSign)
 1717              		.loc 1 244 0
 1718 0a14 010059E3 		cmp	r9, #1
 1719 0a18 82FFFF0A 		beq	.L144
 257:../srccode/device.c ****                         uiPara -= ucNum * uiPower;
 1720              		.loc 1 257 0
 1721 0a1c 0EC24CE0 		sub	ip, ip, lr, asl #4
 244:../srccode/device.c ****                         if(1 == ucNumSign)
 1722              		.loc 1 244 0
 1723 0a20 0E40A0E1 		mov	r4, lr
 1724              	.LVL184:
 238:../srccode/device.c ****                         if(0 != ucNum)
 1725              		.loc 1 238 0
 1726 0a24 FFE01CE2 		ands	lr, ip, #255
 1727              	.LVL185:
 1728 0a28 8AFFFF1A 		bne	.L145
 1729              	.LVL186:
 1730              	.L201:
 244:../srccode/device.c ****                         if(1 == ucNumSign)
 1731              		.loc 1 244 0
 1732 0a2c 010054E3 		cmp	r4, #1
 1733 0a30 88FFFF0A 		beq	.L145
 294:../srccode/device.c ****                 uiMsgCntInStr++;
 1734              		.loc 1 294 0
 1735 0a34 012082E2 		add	r2, r2, #1
 1736              	.LVL187:
 1737 0a38 7CFEFFEA 		b	.L181
 1738              	.LVL188:
 1739              	.L202:
 1740              	.LBB80:
 1741              	.LBB50:
 376:../srccode/device.c ****         return (ucNum - 0x0A + 'A');    /* 输出A~F */
 1742              		.loc 1 376 0
 1743 0a3c 37908EE2 		add	r9, lr, #55
 1744 0a40 93FFFFEA 		b	.L51
 1745              	.LVL189:
 1746              	.L186:
 1747 0a44 37908EE2 		add	r9, lr, #55
 1748 0a48 A3FEFFEA 		b	.L57
 1749              	.LVL190:
 1750              	.L187:
 1751 0a4c 37908CE2 		add	r9, ip, #55
 1752 0a50 B3FEFFEA 		b	.L63
 1753              	.LVL191:
 1754              	.L188:
 1755 0a54 37908EE2 		add	r9, lr, #55
 1756 0a58 C3FEFFEA 		b	.L69
 1757              	.LVL192:
 1758              	.L189:
 1759 0a5c 37908CE2 		add	r9, ip, #55
 1760 0a60 D5FEFFEA 		b	.L75
 1761              	.LVL193:
 1762              	.L190:
 1763 0a64 37408CE2 		add	r4, ip, #55
ARM GAS  C:\DOCUME~1\ADMINI~1\LOCALS~1\Temp\cc6GBC3y.s 			page 46


 1764 0a68 E6FEFFEA 		b	.L81
 1765              	.LVL194:
 1766              	.L191:
 1767 0a6c 37408EE2 		add	r4, lr, #55
 1768 0a70 F6FEFFEA 		b	.L87
 1769              	.LVL195:
 1770              	.L192:
 1771 0a74 37408CE2 		add	r4, ip, #55
 1772 0a78 06FFFFEA 		b	.L93
 1773              	.LVL196:
 1774              	.L195:
 1775              	.LBE50:
 1776              	.LBE80:
 1777              	.LBB81:
 1778              	.LBB70:
 1779 0a7c 37408EE2 		add	r4, lr, #55
 1780 0a80 26FFFFEA 		b	.L107
 1781              	.LVL197:
 1782              	.L196:
 1783 0a84 37408EE2 		add	r4, lr, #55
 1784 0a88 37FFFFEA 		b	.L119
 1785              	.LVL198:
 1786              	.L203:
 1787 0a8c 37408EE2 		add	r4, lr, #55
 1788 0a90 89FFFFEA 		b	.L113
 1789              	.LVL199:
 1790              	.L197:
 1791 0a94 37E084E2 		add	lr, r4, #55
 1792 0a98 40FFFFEA 		b	.L125
 1793              	.L198:
 1794 0a9c 37E084E2 		add	lr, r4, #55
 1795 0aa0 4BFFFFEA 		b	.L131
 1796              	.LVL200:
 1797              	.L199:
 1798 0aa4 37E08CE2 		add	lr, ip, #55
 1799 0aa8 56FFFFEA 		b	.L137
 1800              	.LVL201:
 1801              	.L200:
 1802 0aac 37408EE2 		add	r4, lr, #55
 1803 0ab0 61FFFFEA 		b	.L143
 1804              	.L205:
 1805              		.align	2
 1806              	.L204:
 1807 0ab4 00000000 		.word	gstrBufPool
 1808 0ab8 893BE655 		.word	1441151881
 1809 0abc 6BCA5F6B 		.word	1801439851
 1810 0ac0 83DE1B43 		.word	1125899907
 1811 0ac4 C55A7C0A 		.word	175921861
 1812 0ac8 00000000 		.word	gstrPrtMsgQue
 1813 0acc 834B0400 		.word	281475
 1814 0ad0 5917B7D1 		.word	-776530087
 1815 0ad4 D34D6210 		.word	274877907
 1816 0ad8 1F85EB51 		.word	1374389535
 1817 0adc CDCCCCCC 		.word	-858993459
 1818              	.LBE70:
 1819              	.LBE81:
 1820              		.cfi_endproc
ARM GAS  C:\DOCUME~1\ADMINI~1\LOCALS~1\Temp\cc6GBC3y.s 			page 47


 1821              	.LFE5:
 1822              		.fnend
 1823              		.size	DEV_PutStrToMem, .-DEV_PutStrToMem
 1824              		.align	2
 1825              		.global	DEV_BufferFree
 1826              		.type	DEV_BufferFree, %function
 1827              	DEV_BufferFree:
 1828              		.fnstart
 1829              	.LFB13:
 439:../srccode/device.c **** 
 440:../srccode/device.c **** /***********************************************************************************
 441:../srccode/device.c **** 函数功能: 释放消息缓冲.
 442:../srccode/device.c **** 入口参数: pstrBufPool: 消息缓冲池指针.
 443:../srccode/device.c ****           pstrQueNode: 释放的缓冲节点指针.
 444:../srccode/device.c **** 返 回 值: none.
 445:../srccode/device.c **** ***********************************************************************************/
 446:../srccode/device.c **** void DEV_BufferFree(BUFPOOL* pstrBufPool, M_CHAIN* pstrQueNode)
 447:../srccode/device.c **** {
 1830              		.loc 1 447 0
 1831              		.cfi_startproc
 1832              		@ Function supports interworking.
 1833              		@ args = 0, pretend = 0, frame = 0
 1834              		@ frame_needed = 1, uses_anonymous_args = 0
 1835              	.LVL202:
 1836              		.movsp ip
 1837 0ae0 0DC0A0E1 		mov	ip, sp
 1838              	.LCFI12:
 1839              		.cfi_def_cfa_register 12
 1840 0ae4 30D82DE9 		stmfd	sp!, {r4, r5, fp, ip, lr, pc}
 1841              		.pad #4
 1842              		.save {r4, r5, fp, ip, lr}
 1843              		.setfp fp, ip, #-4
 1844 0ae8 04B04CE2 		sub	fp, ip, #4
 1845              		.cfi_offset 14, -8
 1846              		.cfi_offset 13, -12
 1847              		.cfi_offset 11, -16
 1848              		.cfi_offset 5, -20
 1849              		.cfi_offset 4, -24
 1850              	.LCFI13:
 1851              		.cfi_def_cfa 11, 4
 1852              		.loc 1 447 0
 1853 0aec 0040A0E1 		mov	r4, r0
 1854 0af0 0150A0E1 		mov	r5, r1
 448:../srccode/device.c ****     (void)MDS_IntLock();
 1855              		.loc 1 448 0
 1856 0af4 FEFFFFEB 		bl	MDS_IntLock
 1857              	.LVL203:
 449:../srccode/device.c **** 
 450:../srccode/device.c ****     /* 将释放的缓冲挂到空闲列表 */
 451:../srccode/device.c ****     MDS_ChainNodeAdd(&pstrBufPool->strFreeList, pstrQueNode);
 1858              		.loc 1 451 0
 1859 0af8 0400A0E1 		mov	r0, r4
 1860 0afc 0510A0E1 		mov	r1, r5
 1861 0b00 FEFFFFEB 		bl	MDS_ChainNodeAdd
 452:../srccode/device.c **** 
 453:../srccode/device.c ****     (void)MDS_IntUnlock();
 1862              		.loc 1 453 0
ARM GAS  C:\DOCUME~1\ADMINI~1\LOCALS~1\Temp\cc6GBC3y.s 			page 48


 1863 0b04 FEFFFFEB 		bl	MDS_IntUnlock
 454:../srccode/device.c **** }
 1864              		.loc 1 454 0
 1865 0b08 14D04BE2 		sub	sp, fp, #20
 1866 0b0c 30689DE8 		ldmfd	sp, {r4, r5, fp, sp, lr}
 1867 0b10 1EFF2FE1 		bx	lr
 1868              		.cfi_endproc
 1869              	.LFE13:
 1870              		.fnend
 1871              		.size	DEV_BufferFree, .-DEV_BufferFree
 1872              		.comm	gstrBufPool,1208,4
 1873              		.comm	gpstrMsgBufPt,4,4
 1874              	.Letext0:
 5018              		.section	.note.GNU-stack,"",%progbits
ARM GAS  C:\DOCUME~1\ADMINI~1\LOCALS~1\Temp\cc6GBC3y.s 			page 108

