ARM GAS  C:\DOCUME~1\ADMINI~1\LOCALS~1\Temp\cc1RpU0T.s 			page 1


   1              		.cpu arm7tdmi
   2              		.fpu softvfp
   3              		.eabi_attribute 20, 1
   4              		.eabi_attribute 21, 1
   5              		.eabi_attribute 23, 3
   6              		.eabi_attribute 24, 1
   7              		.eabi_attribute 25, 1
   8              		.eabi_attribute 26, 2
   9              		.eabi_attribute 30, 2
  10              		.eabi_attribute 18, 4
  11              		.file	"interrupt.c"
  12              		.section	.debug_abbrev,"",%progbits
  13              	.Ldebug_abbrev0:
  14              		.section	.debug_info,"",%progbits
  15              	.Ldebug_info0:
  16              		.section	.debug_line,"",%progbits
  17              	.Ldebug_line0:
  18 0000 85000000 		.text
  18      02005400 
  18      00000201 
  18      FB0E0D00 
  18      01010101 
  19              	.Ltext0:
  20              		.cfi_sections	.debug_frame
  21              		.align	2
  22              		.global	INT_UartPrint
  23              		.type	INT_UartPrint, %function
  24              	INT_UartPrint:
  25              		.fnstart
  26              	.LFB1:
  27              		.file 1 "../srccode/interrupt.c"
   1:../srccode/interrupt.c **** 
   2:../srccode/interrupt.c **** #include "interrupt.h"
   3:../srccode/interrupt.c **** 
   4:../srccode/interrupt.c **** 
   5:../srccode/interrupt.c **** /***********************************************************************************
   6:../srccode/interrupt.c **** 函数功能: FIQ中断处理函数.
   7:../srccode/interrupt.c **** 入口参数: none.
   8:../srccode/interrupt.c **** 返 回 值: none.
   9:../srccode/interrupt.c **** ***********************************************************************************/
  10:../srccode/interrupt.c **** void INT_FiqFunc(void)
  11:../srccode/interrupt.c **** {
  12:../srccode/interrupt.c ****     U32 uiFiqStatus;
  13:../srccode/interrupt.c **** 
  14:../srccode/interrupt.c ****     uiFiqStatus = FIQSTA;
  15:../srccode/interrupt.c **** 
  16:../srccode/interrupt.c ****     /* 串口中断 */
  17:../srccode/interrupt.c ****     if(UARTINTMASK == (UARTINTMASK & uiFiqStatus))
  18:../srccode/interrupt.c ****     {
  19:../srccode/interrupt.c ****         INT_UartPrint();
  20:../srccode/interrupt.c ****     }
  21:../srccode/interrupt.c **** }
  22:../srccode/interrupt.c **** 
  23:../srccode/interrupt.c **** /***********************************************************************************
  24:../srccode/interrupt.c **** 函数功能: 串口打印函数, 由中断触发打印.
  25:../srccode/interrupt.c **** 入口参数: none.
  26:../srccode/interrupt.c **** 返 回 值: none.
ARM GAS  C:\DOCUME~1\ADMINI~1\LOCALS~1\Temp\cc1RpU0T.s 			page 2


  27:../srccode/interrupt.c **** ***********************************************************************************/
  28:../srccode/interrupt.c **** void INT_UartPrint(void)
  29:../srccode/interrupt.c **** {
  28              		.loc 1 29 0
  29              		.cfi_startproc
  30              		@ Function supports interworking.
  31              		@ args = 0, pretend = 0, frame = 0
  32              		@ frame_needed = 1, uses_anonymous_args = 0
  33              		.movsp ip
  34 0000 0DC0A0E1 		mov	ip, sp
  35              	.LCFI0:
  36              		.cfi_def_cfa_register 12
  37 0004 18D82DE9 		stmfd	sp!, {r3, r4, fp, ip, lr, pc}
  38              		.pad #4
  39              		.save {r3, r4, fp, ip, lr}
  30:../srccode/interrupt.c ****     MSGBUF* pstrMsgBuf;
  31:../srccode/interrupt.c ****     U32 uiUartSta;
  32:../srccode/interrupt.c ****     U8 ucChar;
  33:../srccode/interrupt.c **** 
  34:../srccode/interrupt.c ****     /* 读串口中断状态寄存器清串口中断 */
  35:../srccode/interrupt.c ****     uiUartSta = COMIID0;
  40              		.loc 1 35 0
  41 0008 0F3AE0E3 		mvn	r3, #61440
  42              		.cfi_offset 14, -8
  43              		.cfi_offset 13, -12
  44              		.cfi_offset 11, -16
  45              		.cfi_offset 4, -20
  46              		.cfi_offset 3, -24
  47 000c F72813E5 		ldr	r2, [r3, #-2295]
  48              	.LVL0:
  36:../srccode/interrupt.c **** 
  37:../srccode/interrupt.c ****     /* 发送中断 */
  38:../srccode/interrupt.c ****     if(UARTINTTXMASK == (UARTINTTXMASK & uiUartSta))
  49              		.loc 1 38 0
  50 0010 020012E3 		tst	r2, #2
  29:../srccode/interrupt.c **** {
  51              		.loc 1 29 0
  52              		.setfp fp, ip, #-4
  53 0014 04B04CE2 		sub	fp, ip, #4
  54              	.LCFI1:
  55              		.cfi_def_cfa 11, 4
  56              		.loc 1 38 0
  57 0018 0D00000A 		beq	.L1
  39:../srccode/interrupt.c ****     {
  40:../srccode/interrupt.c ****         /* 没有需要打印的缓冲 */
  41:../srccode/interrupt.c ****         if(NULL == gpstrMsgBufPt)
  58              		.loc 1 41 0
  59 001c 50409FE5 		ldr	r4, .L6
  60 0020 001094E5 		ldr	r1, [r4, #0]
  61 0024 000051E3 		cmp	r1, #0
  62 0028 0900000A 		beq	.L1
  63              	.LVL1:
  42:../srccode/interrupt.c ****         {
  43:../srccode/interrupt.c ****             return;
  44:../srccode/interrupt.c ****         }
  45:../srccode/interrupt.c **** 
  46:../srccode/interrupt.c ****         /* 获取要发送的字符 */
ARM GAS  C:\DOCUME~1\ADMINI~1\LOCALS~1\Temp\cc1RpU0T.s 			page 3


  47:../srccode/interrupt.c ****         pstrMsgBuf = (MSGBUF*)gpstrMsgBufPt;
  48:../srccode/interrupt.c ****         ucChar = pstrMsgBuf->aucBuf[pstrMsgBuf->ucCounter++];
  64              		.loc 1 48 0
  65 002c 0900D1E5 		ldrb	r0, [r1, #9]	@ zero_extendqisi2
  49:../srccode/interrupt.c **** 
  50:../srccode/interrupt.c ****         /* 缓冲消息没发送完毕 */
  51:../srccode/interrupt.c ****         if(pstrMsgBuf->ucCounter <= pstrMsgBuf->ucLength)
  66              		.loc 1 51 0
  67 0030 08C0D1E5 		ldrb	ip, [r1, #8]	@ zero_extendqisi2
  48:../srccode/interrupt.c ****         ucChar = pstrMsgBuf->aucBuf[pstrMsgBuf->ucCounter++];
  68              		.loc 1 48 0
  69 0034 012080E2 		add	r2, r0, #1
  70              	.LVL2:
  71 0038 000081E0 		add	r0, r1, r0
  72 003c FF2002E2 		and	r2, r2, #255
  73 0040 0A00D0E5 		ldrb	r0, [r0, #10]	@ zero_extendqisi2
  74              	.LVL3:
  75              		.loc 1 51 0
  76 0044 02005CE1 		cmp	ip, r2
  48:../srccode/interrupt.c ****         ucChar = pstrMsgBuf->aucBuf[pstrMsgBuf->ucCounter++];
  77              		.loc 1 48 0
  78 0048 0920C1E5 		strb	r2, [r1, #9]
  52:../srccode/interrupt.c ****         {
  53:../srccode/interrupt.c ****             /* 向串口发一个字符 */
  54:../srccode/interrupt.c ****             COMTX = ucChar;
  79              		.loc 1 54 0
  80 004c FF080325 		strcs	r0, [r3, #-2303]
  51:../srccode/interrupt.c ****         if(pstrMsgBuf->ucCounter <= pstrMsgBuf->ucLength)
  81              		.loc 1 51 0
  82 0050 0200003A 		bcc	.L5
  83              	.LVL4:
  84              	.L1:
  55:../srccode/interrupt.c ****         }
  56:../srccode/interrupt.c ****         else /* 缓冲消息发送完毕, 释放缓冲 */
  57:../srccode/interrupt.c ****         {
  58:../srccode/interrupt.c ****             DEV_BufferFree(&gstrBufPool, gpstrMsgBufPt);
  59:../srccode/interrupt.c ****             gpstrMsgBufPt = (M_CHAIN*)NULL;
  60:../srccode/interrupt.c ****         }
  61:../srccode/interrupt.c ****     }
  62:../srccode/interrupt.c **** }
  85              		.loc 1 62 0
  86 0054 14D04BE2 		sub	sp, fp, #20
  87 0058 18689DE8 		ldmfd	sp, {r3, r4, fp, sp, lr}
  88 005c 1EFF2FE1 		bx	lr
  89              	.LVL5:
  90              	.L5:
  58:../srccode/interrupt.c ****             DEV_BufferFree(&gstrBufPool, gpstrMsgBufPt);
  91              		.loc 1 58 0
  92 0060 10009FE5 		ldr	r0, .L6+4
  93              	.LVL6:
  94 0064 FEFFFFEB 		bl	DEV_BufferFree
  95              	.LVL7:
  59:../srccode/interrupt.c ****             gpstrMsgBufPt = (M_CHAIN*)NULL;
  96              		.loc 1 59 0
  97 0068 0030A0E3 		mov	r3, #0
  98 006c 003084E5 		str	r3, [r4, #0]
  99 0070 F7FFFFEA 		b	.L1
ARM GAS  C:\DOCUME~1\ADMINI~1\LOCALS~1\Temp\cc1RpU0T.s 			page 4


 100              	.L7:
 101              		.align	2
 102              	.L6:
 103 0074 00000000 		.word	gpstrMsgBufPt
 104 0078 00000000 		.word	gstrBufPool
 105              		.cfi_endproc
 106              	.LFE1:
 107              		.fnend
 108              		.size	INT_UartPrint, .-INT_UartPrint
 109              		.align	2
 110              		.global	INT_FiqFunc
 111              		.type	INT_FiqFunc, %function
 112              	INT_FiqFunc:
 113              		.fnstart
 114              	.LFB0:
  11:../srccode/interrupt.c **** {
 115              		.loc 1 11 0
 116              		.cfi_startproc
 117              		@ Function supports interworking.
 118              		@ args = 0, pretend = 0, frame = 0
 119              		@ frame_needed = 0, uses_anonymous_args = 0
 120              		@ link register save eliminated.
  14:../srccode/interrupt.c ****     uiFiqStatus = FIQSTA;
 121              		.loc 1 14 0
 122 007c 0F0AE0E3 		mvn	r0, #61440
 123 0080 FF3E10E5 		ldr	r3, [r0, #-3839]
 124              	.LVL8:
  17:../srccode/interrupt.c ****     if(UARTINTMASK == (UARTINTMASK & uiFiqStatus))
 125              		.loc 1 17 0
 126 0084 010913E3 		tst	r3, #16384
 127 0088 1EFF2F01 		bxeq	lr
  21:../srccode/interrupt.c **** }
 128              		.loc 1 21 0
  19:../srccode/interrupt.c ****         INT_UartPrint();
 129              		.loc 1 19 0
 130 008c FEFFFFEA 		b	INT_UartPrint
 131              		.cfi_endproc
 132              	.LFE0:
 133              		.fnend
 134              		.size	INT_FiqFunc, .-INT_FiqFunc
 135              	.Letext0:
 136              		.section	.debug_loc,"",%progbits
 137              	.Ldebug_loc0:
 138              	.LLST0:
 139 0000 00000000 		.4byte	.LFB1-.Ltext0
 140 0004 04000000 		.4byte	.LCFI0-.Ltext0
 141 0008 0200     		.2byte	0x2
 142 000a 7D       		.byte	0x7d
 143 000b 00       		.sleb128 0
 144 000c 04000000 		.4byte	.LCFI0-.Ltext0
 145 0010 18000000 		.4byte	.LCFI1-.Ltext0
 146 0014 0200     		.2byte	0x2
 147 0016 7C       		.byte	0x7c
 148 0017 00       		.sleb128 0
 149 0018 18000000 		.4byte	.LCFI1-.Ltext0
 150 001c 7C000000 		.4byte	.LFE1-.Ltext0
 151 0020 0200     		.2byte	0x2
ARM GAS  C:\DOCUME~1\ADMINI~1\LOCALS~1\Temp\cc1RpU0T.s 			page 5


 152 0022 7B       		.byte	0x7b
 153 0023 04       		.sleb128 4
 154 0024 00000000 		.4byte	0x0
 155 0028 00000000 		.4byte	0x0
 156              	.LLST1:
 157 002c 2C000000 		.4byte	.LVL1-.Ltext0
 158 0030 54000000 		.4byte	.LVL4-.Ltext0
 159 0034 0200     		.2byte	0x2
 160 0036 74       		.byte	0x74
 161 0037 00       		.sleb128 0
 162 0038 60000000 		.4byte	.LVL5-.Ltext0
 163 003c 67000000 		.4byte	.LVL7-1-.Ltext0
 164 0040 0100     		.2byte	0x1
 165 0042 51       		.byte	0x51
 166 0043 00000000 		.4byte	0x0
 167 0047 00000000 		.4byte	0x0
 168              	.LLST2:
 169 004b 10000000 		.4byte	.LVL0-.Ltext0
 170 004f 38000000 		.4byte	.LVL2-.Ltext0
 171 0053 0100     		.2byte	0x1
 172 0055 52       		.byte	0x52
 173 0056 00000000 		.4byte	0x0
 174 005a 00000000 		.4byte	0x0
 175              	.LLST3:
 176 005e 44000000 		.4byte	.LVL3-.Ltext0
 177 0062 54000000 		.4byte	.LVL4-.Ltext0
 178 0066 0100     		.2byte	0x1
 179 0068 50       		.byte	0x50
 180 0069 60000000 		.4byte	.LVL5-.Ltext0
 181 006d 64000000 		.4byte	.LVL6-.Ltext0
 182 0071 0100     		.2byte	0x1
 183 0073 50       		.byte	0x50
 184 0074 00000000 		.4byte	0x0
 185 0078 00000000 		.4byte	0x0
 186              		.file 2 "../mindows/mds_mdsdef.h"
 187              		.file 3 "../srccode/global.h"
 188              		.section	.debug_info
 189 0000 F4010000 		.4byte	0x1f4
 190 0004 0200     		.2byte	0x2
 191 0006 00000000 		.4byte	.Ldebug_abbrev0
 192 000a 04       		.byte	0x4
 193 000b 01       		.uleb128 0x1
 194 000c 4D010000 		.4byte	.LASF28
 195 0010 01       		.byte	0x1
 196 0011 74000000 		.4byte	.LASF29
 197 0015 0A010000 		.4byte	.LASF30
 198 0019 00000000 		.4byte	.Ltext0
 199 001d 90000000 		.4byte	.Letext0
 200 0021 00000000 		.4byte	.Ldebug_line0
 201 0025 02       		.uleb128 0x2
 202 0026 04       		.byte	0x4
 203 0027 07       		.byte	0x7
 204 0028 33010000 		.4byte	.LASF0
 205 002c 02       		.uleb128 0x2
 206 002d 04       		.byte	0x4
 207 002e 07       		.byte	0x7
 208 002f BB000000 		.4byte	.LASF1
ARM GAS  C:\DOCUME~1\ADMINI~1\LOCALS~1\Temp\cc1RpU0T.s 			page 6


 209 0033 03       		.uleb128 0x3
 210 0034 553800   		.ascii	"U8\000"
 211 0037 02       		.byte	0x2
 212 0038 07       		.byte	0x7
 213 0039 3D000000 		.4byte	0x3d
 214 003d 02       		.uleb128 0x2
 215 003e 01       		.byte	0x1
 216 003f 08       		.byte	0x8
 217 0040 AD000000 		.4byte	.LASF2
 218 0044 02       		.uleb128 0x2
 219 0045 02       		.byte	0x2
 220 0046 07       		.byte	0x7
 221 0047 D3000000 		.4byte	.LASF3
 222 004b 03       		.uleb128 0x3
 223 004c 55333200 		.ascii	"U32\000"
 224 0050 02       		.byte	0x2
 225 0051 09       		.byte	0x9
 226 0052 2C000000 		.4byte	0x2c
 227 0056 02       		.uleb128 0x2
 228 0057 01       		.byte	0x1
 229 0058 08       		.byte	0x8
 230 0059 ED000000 		.4byte	.LASF4
 231 005d 02       		.uleb128 0x2
 232 005e 02       		.byte	0x2
 233 005f 05       		.byte	0x5
 234 0060 32000000 		.4byte	.LASF5
 235 0064 04       		.uleb128 0x4
 236 0065 04       		.byte	0x4
 237 0066 05       		.byte	0x5
 238 0067 696E7400 		.ascii	"int\000"
 239 006b 05       		.uleb128 0x5
 240 006c 65000000 		.4byte	.LASF9
 241 0070 08       		.byte	0x8
 242 0071 02       		.byte	0x2
 243 0072 5B       		.byte	0x5b
 244 0073 94000000 		.4byte	0x94
 245 0077 06       		.uleb128 0x6
 246 0078 00000000 		.4byte	.LASF6
 247 007c 02       		.byte	0x2
 248 007d 5D       		.byte	0x5d
 249 007e 94000000 		.4byte	0x94
 250 0082 02       		.byte	0x2
 251 0083 23       		.byte	0x23
 252 0084 00       		.uleb128 0x0
 253 0085 06       		.uleb128 0x6
 254 0086 2A010000 		.4byte	.LASF7
 255 008a 02       		.byte	0x2
 256 008b 5E       		.byte	0x5e
 257 008c 94000000 		.4byte	0x94
 258 0090 02       		.byte	0x2
 259 0091 23       		.byte	0x23
 260 0092 04       		.uleb128 0x4
 261 0093 00       		.byte	0x0
 262 0094 07       		.uleb128 0x7
 263 0095 04       		.byte	0x4
 264 0096 6B000000 		.4byte	0x6b
 265 009a 08       		.uleb128 0x8
ARM GAS  C:\DOCUME~1\ADMINI~1\LOCALS~1\Temp\cc1RpU0T.s 			page 7


 266 009b 2A000000 		.4byte	.LASF8
 267 009f 02       		.byte	0x2
 268 00a0 5F       		.byte	0x5f
 269 00a1 6B000000 		.4byte	0x6b
 270 00a5 05       		.uleb128 0x5
 271 00a6 59010000 		.4byte	.LASF10
 272 00aa 3C       		.byte	0x3c
 273 00ab 03       		.byte	0x3
 274 00ac 17       		.byte	0x17
 275 00ad EA000000 		.4byte	0xea
 276 00b1 06       		.uleb128 0x6
 277 00b2 09000000 		.4byte	.LASF11
 278 00b6 03       		.byte	0x3
 279 00b7 19       		.byte	0x19
 280 00b8 9A000000 		.4byte	0x9a
 281 00bc 02       		.byte	0x2
 282 00bd 23       		.byte	0x23
 283 00be 00       		.uleb128 0x0
 284 00bf 06       		.uleb128 0x6
 285 00c0 60010000 		.4byte	.LASF12
 286 00c4 03       		.byte	0x3
 287 00c5 1A       		.byte	0x1a
 288 00c6 33000000 		.4byte	0x33
 289 00ca 02       		.byte	0x2
 290 00cb 23       		.byte	0x23
 291 00cc 08       		.uleb128 0x8
 292 00cd 06       		.uleb128 0x6
 293 00ce 97000000 		.4byte	.LASF13
 294 00d2 03       		.byte	0x3
 295 00d3 1B       		.byte	0x1b
 296 00d4 33000000 		.4byte	0x33
 297 00d8 02       		.byte	0x2
 298 00d9 23       		.byte	0x23
 299 00da 09       		.uleb128 0x9
 300 00db 06       		.uleb128 0x6
 301 00dc 3C000000 		.4byte	.LASF14
 302 00e0 03       		.byte	0x3
 303 00e1 1C       		.byte	0x1c
 304 00e2 EA000000 		.4byte	0xea
 305 00e6 02       		.byte	0x2
 306 00e7 23       		.byte	0x23
 307 00e8 0A       		.uleb128 0xa
 308 00e9 00       		.byte	0x0
 309 00ea 09       		.uleb128 0x9
 310 00eb 33000000 		.4byte	0x33
 311 00ef FA000000 		.4byte	0xfa
 312 00f3 0A       		.uleb128 0xa
 313 00f4 2C000000 		.4byte	0x2c
 314 00f8 31       		.byte	0x31
 315 00f9 00       		.byte	0x0
 316 00fa 08       		.uleb128 0x8
 317 00fb E6000000 		.4byte	.LASF15
 318 00ff 03       		.byte	0x3
 319 0100 1D       		.byte	0x1d
 320 0101 A5000000 		.4byte	0xa5
 321 0105 0B       		.uleb128 0xb
 322 0106 5D000000 		.4byte	.LASF16
ARM GAS  C:\DOCUME~1\ADMINI~1\LOCALS~1\Temp\cc1RpU0T.s 			page 8


 323 010a B804     		.2byte	0x4b8
 324 010c 03       		.byte	0x3
 325 010d 20       		.byte	0x20
 326 010e 2F010000 		.4byte	0x12f
 327 0112 06       		.uleb128 0x6
 328 0113 1E000000 		.4byte	.LASF17
 329 0117 03       		.byte	0x3
 330 0118 22       		.byte	0x22
 331 0119 9A000000 		.4byte	0x9a
 332 011d 02       		.byte	0x2
 333 011e 23       		.byte	0x23
 334 011f 00       		.uleb128 0x0
 335 0120 06       		.uleb128 0x6
 336 0121 12000000 		.4byte	.LASF18
 337 0125 03       		.byte	0x3
 338 0126 23       		.byte	0x23
 339 0127 2F010000 		.4byte	0x12f
 340 012b 02       		.byte	0x2
 341 012c 23       		.byte	0x23
 342 012d 08       		.uleb128 0x8
 343 012e 00       		.byte	0x0
 344 012f 09       		.uleb128 0x9
 345 0130 FA000000 		.4byte	0xfa
 346 0134 3F010000 		.4byte	0x13f
 347 0138 0A       		.uleb128 0xa
 348 0139 2C000000 		.4byte	0x2c
 349 013d 13       		.byte	0x13
 350 013e 00       		.byte	0x0
 351 013f 08       		.uleb128 0x8
 352 0140 45010000 		.4byte	.LASF19
 353 0144 03       		.byte	0x3
 354 0145 24       		.byte	0x24
 355 0146 05010000 		.4byte	0x105
 356 014a 0C       		.uleb128 0xc
 357 014b 01       		.byte	0x1
 358 014c 4F000000 		.4byte	.LASF23
 359 0150 01       		.byte	0x1
 360 0151 1C       		.byte	0x1c
 361 0152 01       		.byte	0x1
 362 0153 00000000 		.4byte	.LFB1
 363 0157 7C000000 		.4byte	.LFE1
 364 015b 00000000 		.4byte	.LLST0
 365 015f 91010000 		.4byte	0x191
 366 0163 0D       		.uleb128 0xd
 367 0164 C8000000 		.4byte	.LASF20
 368 0168 01       		.byte	0x1
 369 0169 1E       		.byte	0x1e
 370 016a 91010000 		.4byte	0x191
 371 016e 2C000000 		.4byte	.LLST1
 372 0172 0D       		.uleb128 0xd
 373 0173 F2000000 		.4byte	.LASF21
 374 0177 01       		.byte	0x1
 375 0178 1F       		.byte	0x1f
 376 0179 4B000000 		.4byte	0x4b
 377 017d 4B000000 		.4byte	.LLST2
 378 0181 0D       		.uleb128 0xd
 379 0182 6D000000 		.4byte	.LASF22
ARM GAS  C:\DOCUME~1\ADMINI~1\LOCALS~1\Temp\cc1RpU0T.s 			page 9


 380 0186 01       		.byte	0x1
 381 0187 20       		.byte	0x20
 382 0188 33000000 		.4byte	0x33
 383 018c 5E000000 		.4byte	.LLST3
 384 0190 00       		.byte	0x0
 385 0191 07       		.uleb128 0x7
 386 0192 04       		.byte	0x4
 387 0193 FA000000 		.4byte	0xfa
 388 0197 0E       		.uleb128 0xe
 389 0198 01       		.byte	0x1
 390 0199 43000000 		.4byte	.LASF24
 391 019d 01       		.byte	0x1
 392 019e 0A       		.byte	0xa
 393 019f 01       		.byte	0x1
 394 01a0 7C000000 		.4byte	.LFB0
 395 01a4 90000000 		.4byte	.LFE0
 396 01a8 02       		.byte	0x2
 397 01a9 7D       		.byte	0x7d
 398 01aa 00       		.sleb128 0
 399 01ab BD010000 		.4byte	0x1bd
 400 01af 0F       		.uleb128 0xf
 401 01b0 8B000000 		.4byte	.LASF25
 402 01b4 01       		.byte	0x1
 403 01b5 0C       		.byte	0xc
 404 01b6 4B000000 		.4byte	0x4b
 405 01ba 01       		.byte	0x1
 406 01bb 53       		.byte	0x53
 407 01bc 00       		.byte	0x0
 408 01bd 10       		.uleb128 0x10
 409 01be A1000000 		.4byte	.LASF26
 410 01c2 03       		.byte	0x3
 411 01c3 2D       		.byte	0x2d
 412 01c4 3F010000 		.4byte	0x13f
 413 01c8 01       		.byte	0x1
 414 01c9 01       		.byte	0x1
 415 01ca 10       		.uleb128 0x10
 416 01cb FC000000 		.4byte	.LASF27
 417 01cf 03       		.byte	0x3
 418 01d0 2E       		.byte	0x2e
 419 01d1 D7010000 		.4byte	0x1d7
 420 01d5 01       		.byte	0x1
 421 01d6 01       		.byte	0x1
 422 01d7 07       		.uleb128 0x7
 423 01d8 04       		.byte	0x4
 424 01d9 9A000000 		.4byte	0x9a
 425 01dd 10       		.uleb128 0x10
 426 01de A1000000 		.4byte	.LASF26
 427 01e2 03       		.byte	0x3
 428 01e3 2D       		.byte	0x2d
 429 01e4 3F010000 		.4byte	0x13f
 430 01e8 01       		.byte	0x1
 431 01e9 01       		.byte	0x1
 432 01ea 10       		.uleb128 0x10
 433 01eb FC000000 		.4byte	.LASF27
 434 01ef 03       		.byte	0x3
 435 01f0 2E       		.byte	0x2e
 436 01f1 D7010000 		.4byte	0x1d7
ARM GAS  C:\DOCUME~1\ADMINI~1\LOCALS~1\Temp\cc1RpU0T.s 			page 10


 437 01f5 01       		.byte	0x1
 438 01f6 01       		.byte	0x1
 439 01f7 00       		.byte	0x0
 440              		.section	.debug_abbrev
 441 0000 01       		.uleb128 0x1
 442 0001 11       		.uleb128 0x11
 443 0002 01       		.byte	0x1
 444 0003 25       		.uleb128 0x25
 445 0004 0E       		.uleb128 0xe
 446 0005 13       		.uleb128 0x13
 447 0006 0B       		.uleb128 0xb
 448 0007 03       		.uleb128 0x3
 449 0008 0E       		.uleb128 0xe
 450 0009 1B       		.uleb128 0x1b
 451 000a 0E       		.uleb128 0xe
 452 000b 11       		.uleb128 0x11
 453 000c 01       		.uleb128 0x1
 454 000d 12       		.uleb128 0x12
 455 000e 01       		.uleb128 0x1
 456 000f 10       		.uleb128 0x10
 457 0010 06       		.uleb128 0x6
 458 0011 00       		.byte	0x0
 459 0012 00       		.byte	0x0
 460 0013 02       		.uleb128 0x2
 461 0014 24       		.uleb128 0x24
 462 0015 00       		.byte	0x0
 463 0016 0B       		.uleb128 0xb
 464 0017 0B       		.uleb128 0xb
 465 0018 3E       		.uleb128 0x3e
 466 0019 0B       		.uleb128 0xb
 467 001a 03       		.uleb128 0x3
 468 001b 0E       		.uleb128 0xe
 469 001c 00       		.byte	0x0
 470 001d 00       		.byte	0x0
 471 001e 03       		.uleb128 0x3
 472 001f 16       		.uleb128 0x16
 473 0020 00       		.byte	0x0
 474 0021 03       		.uleb128 0x3
 475 0022 08       		.uleb128 0x8
 476 0023 3A       		.uleb128 0x3a
 477 0024 0B       		.uleb128 0xb
 478 0025 3B       		.uleb128 0x3b
 479 0026 0B       		.uleb128 0xb
 480 0027 49       		.uleb128 0x49
 481 0028 13       		.uleb128 0x13
 482 0029 00       		.byte	0x0
 483 002a 00       		.byte	0x0
 484 002b 04       		.uleb128 0x4
 485 002c 24       		.uleb128 0x24
 486 002d 00       		.byte	0x0
 487 002e 0B       		.uleb128 0xb
 488 002f 0B       		.uleb128 0xb
 489 0030 3E       		.uleb128 0x3e
 490 0031 0B       		.uleb128 0xb
 491 0032 03       		.uleb128 0x3
 492 0033 08       		.uleb128 0x8
 493 0034 00       		.byte	0x0
ARM GAS  C:\DOCUME~1\ADMINI~1\LOCALS~1\Temp\cc1RpU0T.s 			page 11


 494 0035 00       		.byte	0x0
 495 0036 05       		.uleb128 0x5
 496 0037 13       		.uleb128 0x13
 497 0038 01       		.byte	0x1
 498 0039 03       		.uleb128 0x3
 499 003a 0E       		.uleb128 0xe
 500 003b 0B       		.uleb128 0xb
 501 003c 0B       		.uleb128 0xb
 502 003d 3A       		.uleb128 0x3a
 503 003e 0B       		.uleb128 0xb
 504 003f 3B       		.uleb128 0x3b
 505 0040 0B       		.uleb128 0xb
 506 0041 01       		.uleb128 0x1
 507 0042 13       		.uleb128 0x13
 508 0043 00       		.byte	0x0
 509 0044 00       		.byte	0x0
 510 0045 06       		.uleb128 0x6
 511 0046 0D       		.uleb128 0xd
 512 0047 00       		.byte	0x0
 513 0048 03       		.uleb128 0x3
 514 0049 0E       		.uleb128 0xe
 515 004a 3A       		.uleb128 0x3a
 516 004b 0B       		.uleb128 0xb
 517 004c 3B       		.uleb128 0x3b
 518 004d 0B       		.uleb128 0xb
 519 004e 49       		.uleb128 0x49
 520 004f 13       		.uleb128 0x13
 521 0050 38       		.uleb128 0x38
 522 0051 0A       		.uleb128 0xa
 523 0052 00       		.byte	0x0
 524 0053 00       		.byte	0x0
 525 0054 07       		.uleb128 0x7
 526 0055 0F       		.uleb128 0xf
 527 0056 00       		.byte	0x0
 528 0057 0B       		.uleb128 0xb
 529 0058 0B       		.uleb128 0xb
 530 0059 49       		.uleb128 0x49
 531 005a 13       		.uleb128 0x13
 532 005b 00       		.byte	0x0
 533 005c 00       		.byte	0x0
 534 005d 08       		.uleb128 0x8
 535 005e 16       		.uleb128 0x16
 536 005f 00       		.byte	0x0
 537 0060 03       		.uleb128 0x3
 538 0061 0E       		.uleb128 0xe
 539 0062 3A       		.uleb128 0x3a
 540 0063 0B       		.uleb128 0xb
 541 0064 3B       		.uleb128 0x3b
 542 0065 0B       		.uleb128 0xb
 543 0066 49       		.uleb128 0x49
 544 0067 13       		.uleb128 0x13
 545 0068 00       		.byte	0x0
 546 0069 00       		.byte	0x0
 547 006a 09       		.uleb128 0x9
 548 006b 01       		.uleb128 0x1
 549 006c 01       		.byte	0x1
 550 006d 49       		.uleb128 0x49
ARM GAS  C:\DOCUME~1\ADMINI~1\LOCALS~1\Temp\cc1RpU0T.s 			page 12


 551 006e 13       		.uleb128 0x13
 552 006f 01       		.uleb128 0x1
 553 0070 13       		.uleb128 0x13
 554 0071 00       		.byte	0x0
 555 0072 00       		.byte	0x0
 556 0073 0A       		.uleb128 0xa
 557 0074 21       		.uleb128 0x21
 558 0075 00       		.byte	0x0
 559 0076 49       		.uleb128 0x49
 560 0077 13       		.uleb128 0x13
 561 0078 2F       		.uleb128 0x2f
 562 0079 0B       		.uleb128 0xb
 563 007a 00       		.byte	0x0
 564 007b 00       		.byte	0x0
 565 007c 0B       		.uleb128 0xb
 566 007d 13       		.uleb128 0x13
 567 007e 01       		.byte	0x1
 568 007f 03       		.uleb128 0x3
 569 0080 0E       		.uleb128 0xe
 570 0081 0B       		.uleb128 0xb
 571 0082 05       		.uleb128 0x5
 572 0083 3A       		.uleb128 0x3a
 573 0084 0B       		.uleb128 0xb
 574 0085 3B       		.uleb128 0x3b
 575 0086 0B       		.uleb128 0xb
 576 0087 01       		.uleb128 0x1
 577 0088 13       		.uleb128 0x13
 578 0089 00       		.byte	0x0
 579 008a 00       		.byte	0x0
 580 008b 0C       		.uleb128 0xc
 581 008c 2E       		.uleb128 0x2e
 582 008d 01       		.byte	0x1
 583 008e 3F       		.uleb128 0x3f
 584 008f 0C       		.uleb128 0xc
 585 0090 03       		.uleb128 0x3
 586 0091 0E       		.uleb128 0xe
 587 0092 3A       		.uleb128 0x3a
 588 0093 0B       		.uleb128 0xb
 589 0094 3B       		.uleb128 0x3b
 590 0095 0B       		.uleb128 0xb
 591 0096 27       		.uleb128 0x27
 592 0097 0C       		.uleb128 0xc
 593 0098 11       		.uleb128 0x11
 594 0099 01       		.uleb128 0x1
 595 009a 12       		.uleb128 0x12
 596 009b 01       		.uleb128 0x1
 597 009c 40       		.uleb128 0x40
 598 009d 06       		.uleb128 0x6
 599 009e 01       		.uleb128 0x1
 600 009f 13       		.uleb128 0x13
 601 00a0 00       		.byte	0x0
 602 00a1 00       		.byte	0x0
 603 00a2 0D       		.uleb128 0xd
 604 00a3 34       		.uleb128 0x34
 605 00a4 00       		.byte	0x0
 606 00a5 03       		.uleb128 0x3
 607 00a6 0E       		.uleb128 0xe
ARM GAS  C:\DOCUME~1\ADMINI~1\LOCALS~1\Temp\cc1RpU0T.s 			page 13


 608 00a7 3A       		.uleb128 0x3a
 609 00a8 0B       		.uleb128 0xb
 610 00a9 3B       		.uleb128 0x3b
 611 00aa 0B       		.uleb128 0xb
 612 00ab 49       		.uleb128 0x49
 613 00ac 13       		.uleb128 0x13
 614 00ad 02       		.uleb128 0x2
 615 00ae 06       		.uleb128 0x6
 616 00af 00       		.byte	0x0
 617 00b0 00       		.byte	0x0
 618 00b1 0E       		.uleb128 0xe
 619 00b2 2E       		.uleb128 0x2e
 620 00b3 01       		.byte	0x1
 621 00b4 3F       		.uleb128 0x3f
 622 00b5 0C       		.uleb128 0xc
 623 00b6 03       		.uleb128 0x3
 624 00b7 0E       		.uleb128 0xe
 625 00b8 3A       		.uleb128 0x3a
 626 00b9 0B       		.uleb128 0xb
 627 00ba 3B       		.uleb128 0x3b
 628 00bb 0B       		.uleb128 0xb
 629 00bc 27       		.uleb128 0x27
 630 00bd 0C       		.uleb128 0xc
 631 00be 11       		.uleb128 0x11
 632 00bf 01       		.uleb128 0x1
 633 00c0 12       		.uleb128 0x12
 634 00c1 01       		.uleb128 0x1
 635 00c2 40       		.uleb128 0x40
 636 00c3 0A       		.uleb128 0xa
 637 00c4 01       		.uleb128 0x1
 638 00c5 13       		.uleb128 0x13
 639 00c6 00       		.byte	0x0
 640 00c7 00       		.byte	0x0
 641 00c8 0F       		.uleb128 0xf
 642 00c9 34       		.uleb128 0x34
 643 00ca 00       		.byte	0x0
 644 00cb 03       		.uleb128 0x3
 645 00cc 0E       		.uleb128 0xe
 646 00cd 3A       		.uleb128 0x3a
 647 00ce 0B       		.uleb128 0xb
 648 00cf 3B       		.uleb128 0x3b
 649 00d0 0B       		.uleb128 0xb
 650 00d1 49       		.uleb128 0x49
 651 00d2 13       		.uleb128 0x13
 652 00d3 02       		.uleb128 0x2
 653 00d4 0A       		.uleb128 0xa
 654 00d5 00       		.byte	0x0
 655 00d6 00       		.byte	0x0
 656 00d7 10       		.uleb128 0x10
 657 00d8 34       		.uleb128 0x34
 658 00d9 00       		.byte	0x0
 659 00da 03       		.uleb128 0x3
 660 00db 0E       		.uleb128 0xe
 661 00dc 3A       		.uleb128 0x3a
 662 00dd 0B       		.uleb128 0xb
 663 00de 3B       		.uleb128 0x3b
 664 00df 0B       		.uleb128 0xb
ARM GAS  C:\DOCUME~1\ADMINI~1\LOCALS~1\Temp\cc1RpU0T.s 			page 14


 665 00e0 49       		.uleb128 0x49
 666 00e1 13       		.uleb128 0x13
 667 00e2 3F       		.uleb128 0x3f
 668 00e3 0C       		.uleb128 0xc
 669 00e4 3C       		.uleb128 0x3c
 670 00e5 0C       		.uleb128 0xc
 671 00e6 00       		.byte	0x0
 672 00e7 00       		.byte	0x0
 673 00e8 00       		.byte	0x0
 674              		.section	.debug_pubnames,"",%progbits
 675 0000 30000000 		.4byte	0x30
 676 0004 0200     		.2byte	0x2
 677 0006 00000000 		.4byte	.Ldebug_info0
 678 000a F8010000 		.4byte	0x1f8
 679 000e 4A010000 		.4byte	0x14a
 680 0012 494E545F 		.ascii	"INT_UartPrint\000"
 680      55617274 
 680      5072696E 
 680      7400
 681 0020 97010000 		.4byte	0x197
 682 0024 494E545F 		.ascii	"INT_FiqFunc\000"
 682      46697146 
 682      756E6300 
 683 0030 00000000 		.4byte	0x0
 684              		.section	.debug_pubtypes,"",%progbits
 685 0000 63000000 		.4byte	0x63
 686 0004 0200     		.2byte	0x2
 687 0006 00000000 		.4byte	.Ldebug_info0
 688 000a F8010000 		.4byte	0x1f8
 689 000e 33000000 		.4byte	0x33
 690 0012 553800   		.ascii	"U8\000"
 691 0015 4B000000 		.4byte	0x4b
 692 0019 55333200 		.ascii	"U32\000"
 693 001d 6B000000 		.4byte	0x6b
 694 0021 6D5F6368 		.ascii	"m_chain\000"
 694      61696E00 
 695 0029 9A000000 		.4byte	0x9a
 696 002d 4D5F4348 		.ascii	"M_CHAIN\000"
 696      41494E00 
 697 0035 A5000000 		.4byte	0xa5
 698 0039 6D736762 		.ascii	"msgbuf\000"
 698      756600
 699 0040 FA000000 		.4byte	0xfa
 700 0044 4D534742 		.ascii	"MSGBUF\000"
 700      554600
 701 004b 05010000 		.4byte	0x105
 702 004f 62756670 		.ascii	"bufpool\000"
 702      6F6F6C00 
 703 0057 3F010000 		.4byte	0x13f
 704 005b 42554650 		.ascii	"BUFPOOL\000"
 704      4F4F4C00 
 705 0063 00000000 		.4byte	0x0
 706              		.section	.debug_aranges,"",%progbits
 707 0000 1C000000 		.4byte	0x1c
 708 0004 0200     		.2byte	0x2
 709 0006 00000000 		.4byte	.Ldebug_info0
 710 000a 04       		.byte	0x4
ARM GAS  C:\DOCUME~1\ADMINI~1\LOCALS~1\Temp\cc1RpU0T.s 			page 15


 711 000b 00       		.byte	0x0
 712 000c 0000     		.2byte	0x0
 713 000e 0000     		.2byte	0x0
 714 0010 00000000 		.4byte	.Ltext0
 715 0014 90000000 		.4byte	.Letext0-.Ltext0
 716 0018 00000000 		.4byte	0x0
 717 001c 00000000 		.4byte	0x0
 718              		.section	.debug_str,"MS",%progbits,1
 719              	.LASF6:
 720 0000 70737472 		.ascii	"pstrHead\000"
 720      48656164 
 720      00
 721              	.LASF11:
 722 0009 73747243 		.ascii	"strChain\000"
 722      6861696E 
 722      00
 723              	.LASF18:
 724 0012 61737472 		.ascii	"astrBufPool\000"
 724      42756650 
 724      6F6F6C00 
 725              	.LASF17:
 726 001e 73747246 		.ascii	"strFreeList\000"
 726      7265654C 
 726      69737400 
 727              	.LASF8:
 728 002a 4D5F4348 		.ascii	"M_CHAIN\000"
 728      41494E00 
 729              	.LASF5:
 730 0032 73686F72 		.ascii	"short int\000"
 730      7420696E 
 730      7400
 731              	.LASF14:
 732 003c 61756342 		.ascii	"aucBuf\000"
 732      756600
 733              	.LASF24:
 734 0043 494E545F 		.ascii	"INT_FiqFunc\000"
 734      46697146 
 734      756E6300 
 735              	.LASF23:
 736 004f 494E545F 		.ascii	"INT_UartPrint\000"
 736      55617274 
 736      5072696E 
 736      7400
 737              	.LASF16:
 738 005d 62756670 		.ascii	"bufpool\000"
 738      6F6F6C00 
 739              	.LASF9:
 740 0065 6D5F6368 		.ascii	"m_chain\000"
 740      61696E00 
 741              	.LASF22:
 742 006d 75634368 		.ascii	"ucChar\000"
 742      617200
 743              	.LASF29:
 744 0074 2E2E2F73 		.ascii	"../srccode/interrupt.c\000"
 744      7263636F 
 744      64652F69 
 744      6E746572 
ARM GAS  C:\DOCUME~1\ADMINI~1\LOCALS~1\Temp\cc1RpU0T.s 			page 16


 744      72757074 
 745              	.LASF25:
 746 008b 75694669 		.ascii	"uiFiqStatus\000"
 746      71537461 
 746      74757300 
 747              	.LASF13:
 748 0097 7563436F 		.ascii	"ucCounter\000"
 748      756E7465 
 748      7200
 749              	.LASF26:
 750 00a1 67737472 		.ascii	"gstrBufPool\000"
 750      42756650 
 750      6F6F6C00 
 751              	.LASF2:
 752 00ad 756E7369 		.ascii	"unsigned char\000"
 752      676E6564 
 752      20636861 
 752      7200
 753              	.LASF1:
 754 00bb 756E7369 		.ascii	"unsigned int\000"
 754      676E6564 
 754      20696E74 
 754      00
 755              	.LASF20:
 756 00c8 70737472 		.ascii	"pstrMsgBuf\000"
 756      4D736742 
 756      756600
 757              	.LASF3:
 758 00d3 73686F72 		.ascii	"short unsigned int\000"
 758      7420756E 
 758      7369676E 
 758      65642069 
 758      6E7400
 759              	.LASF15:
 760 00e6 4D534742 		.ascii	"MSGBUF\000"
 760      554600
 761              	.LASF4:
 762 00ed 63686172 		.ascii	"char\000"
 762      00
 763              	.LASF21:
 764 00f2 75695561 		.ascii	"uiUartSta\000"
 764      72745374 
 764      6100
 765              	.LASF27:
 766 00fc 67707374 		.ascii	"gpstrMsgBufPt\000"
 766      724D7367 
 766      42756650 
 766      7400
 767              	.LASF30:
 768 010a 463A5C77 		.ascii	"F:\\workdir\\RTOS_Mindows\\project\000"
 768      6F726B64 
 768      69725C52 
 768      544F535F 
 768      4D696E64 
 769              	.LASF7:
 770 012a 70737472 		.ascii	"pstrTail\000"
 770      5461696C 
ARM GAS  C:\DOCUME~1\ADMINI~1\LOCALS~1\Temp\cc1RpU0T.s 			page 17


 770      00
 771              	.LASF0:
 772 0133 6C6F6E67 		.ascii	"long unsigned int\000"
 772      20756E73 
 772      69676E65 
 772      6420696E 
 772      7400
 773              	.LASF19:
 774 0145 42554650 		.ascii	"BUFPOOL\000"
 774      4F4F4C00 
 775              	.LASF28:
 776 014d 474E5520 		.ascii	"GNU C 4.5.2\000"
 776      4320342E 
 776      352E3200 
 777              	.LASF10:
 778 0159 6D736762 		.ascii	"msgbuf\000"
 778      756600
 779              	.LASF12:
 780 0160 75634C65 		.ascii	"ucLength\000"
 780      6E677468 
 780      00
 781              		.ident	"GCC: (Sourcery G++ Lite 2011.03-41) 4.5.2"
 782              		.section	.note.GNU-stack,"",%progbits
ARM GAS  C:\DOCUME~1\ADMINI~1\LOCALS~1\Temp\cc1RpU0T.s 			page 18


DEFINED SYMBOLS
                            *ABS*:00000000 interrupt.c
C:\DOCUME~1\ADMINI~1\LOCALS~1\Temp\cc1RpU0T.s:21     .text:00000000 $a
C:\DOCUME~1\ADMINI~1\LOCALS~1\Temp\cc1RpU0T.s:24     .text:00000000 INT_UartPrint
C:\DOCUME~1\ADMINI~1\LOCALS~1\Temp\cc1RpU0T.s:103    .text:00000074 $d
                       .ARM.extab:00000000 $d
                       .ARM.exidx:00000000 $d
C:\DOCUME~1\ADMINI~1\LOCALS~1\Temp\cc1RpU0T.s:109    .text:0000007c $a
C:\DOCUME~1\ADMINI~1\LOCALS~1\Temp\cc1RpU0T.s:112    .text:0000007c INT_FiqFunc
                     .debug_frame:00000010 $d

UNDEFINED SYMBOLS
DEV_BufferFree
gpstrMsgBufPt
gstrBufPool
__aeabi_unwind_cpp_pr1
__aeabi_unwind_cpp_pr0
