ARM GAS  C:\DOCUME~1\ADMINI~1\LOCALS~1\Temp\cc1RpU0T.s 			page 1


   1              		.cpu arm7tdmi
   2              		.fpu softvfp
   3              		.eabi_attribute 20, 1
   4              		.eabi_attribute 21, 1
   5              		.eabi_attribute 23, 3
   6              		.eabi_attribute 24, 1
   7              		.eabi_attribute 25, 1
   8              		.eabi_attribute 26, 2
   9              		.eabi_attribute 30, 2
  10              		.eabi_attribute 18, 4
  11              		.file	"interrupt.c"
  18 0000 85000000 		.text
  18      02005400 
  18      00000201 
  18      FB0E0D00 
  18      01010101 
  19              	.Ltext0:
  20              		.cfi_sections	.debug_frame
  21              		.align	2
  22              		.global	INT_UartPrint
  23              		.type	INT_UartPrint, %function
  24              	INT_UartPrint:
  25              		.fnstart
  26              	.LFB1:
  27              		.file 1 "../srccode/interrupt.c"
   1:../srccode/interrupt.c **** 
   2:../srccode/interrupt.c **** #include "interrupt.h"
   3:../srccode/interrupt.c **** 
   4:../srccode/interrupt.c **** 
   5:../srccode/interrupt.c **** /***********************************************************************************
   6:../srccode/interrupt.c **** 函数功能: FIQ中断处理函数.
   7:../srccode/interrupt.c **** 入口参数: none.
   8:../srccode/interrupt.c **** 返 回 值: none.
   9:../srccode/interrupt.c **** ***********************************************************************************/
  10:../srccode/interrupt.c **** void INT_FiqFunc(void)
  11:../srccode/interrupt.c **** {
  12:../srccode/interrupt.c ****     U32 uiFiqStatus;
  13:../srccode/interrupt.c **** 
  14:../srccode/interrupt.c ****     uiFiqStatus = FIQSTA;
  15:../srccode/interrupt.c **** 
  16:../srccode/interrupt.c ****     /* 串口中断 */
  17:../srccode/interrupt.c ****     if(UARTINTMASK == (UARTINTMASK & uiFiqStatus))
  18:../srccode/interrupt.c ****     {
  19:../srccode/interrupt.c ****         INT_UartPrint();
  20:../srccode/interrupt.c ****     }
  21:../srccode/interrupt.c **** }
  22:../srccode/interrupt.c **** 
  23:../srccode/interrupt.c **** /***********************************************************************************
  24:../srccode/interrupt.c **** 函数功能: 串口打印函数, 由中断触发打印.
  25:../srccode/interrupt.c **** 入口参数: none.
  26:../srccode/interrupt.c **** 返 回 值: none.
ARM GAS  C:\DOCUME~1\ADMINI~1\LOCALS~1\Temp\cc1RpU0T.s 			page 2


  27:../srccode/interrupt.c **** ***********************************************************************************/
  28:../srccode/interrupt.c **** void INT_UartPrint(void)
  29:../srccode/interrupt.c **** {
  28              		.loc 1 29 0
  29              		.cfi_startproc
  30              		@ Function supports interworking.
  31              		@ args = 0, pretend = 0, frame = 0
  32              		@ frame_needed = 1, uses_anonymous_args = 0
  33              		.movsp ip
  34 0000 0DC0A0E1 		mov	ip, sp
  35              	.LCFI0:
  36              		.cfi_def_cfa_register 12
  37 0004 18D82DE9 		stmfd	sp!, {r3, r4, fp, ip, lr, pc}
  38              		.pad #4
  39              		.save {r3, r4, fp, ip, lr}
  30:../srccode/interrupt.c ****     MSGBUF* pstrMsgBuf;
  31:../srccode/interrupt.c ****     U32 uiUartSta;
  32:../srccode/interrupt.c ****     U8 ucChar;
  33:../srccode/interrupt.c **** 
  34:../srccode/interrupt.c ****     /* 读串口中断状态寄存器清串口中断 */
  35:../srccode/interrupt.c ****     uiUartSta = COMIID0;
  40              		.loc 1 35 0
  41 0008 0F3AE0E3 		mvn	r3, #61440
  42              		.cfi_offset 14, -8
  43              		.cfi_offset 13, -12
  44              		.cfi_offset 11, -16
  45              		.cfi_offset 4, -20
  46              		.cfi_offset 3, -24
  47 000c F72813E5 		ldr	r2, [r3, #-2295]
  48              	.LVL0:
  36:../srccode/interrupt.c **** 
  37:../srccode/interrupt.c ****     /* 发送中断 */
  38:../srccode/interrupt.c ****     if(UARTINTTXMASK == (UARTINTTXMASK & uiUartSta))
  49              		.loc 1 38 0
  50 0010 020012E3 		tst	r2, #2
  29:../srccode/interrupt.c **** {
  51              		.loc 1 29 0
  52              		.setfp fp, ip, #-4
  53 0014 04B04CE2 		sub	fp, ip, #4
  54              	.LCFI1:
  55              		.cfi_def_cfa 11, 4
  56              		.loc 1 38 0
  57 0018 0D00000A 		beq	.L1
  39:../srccode/interrupt.c ****     {
  40:../srccode/interrupt.c ****         /* 没有需要打印的缓冲 */
  41:../srccode/interrupt.c ****         if(NULL == gpstrMsgBufPt)
  58              		.loc 1 41 0
  59 001c 50409FE5 		ldr	r4, .L6
  60 0020 001094E5 		ldr	r1, [r4, #0]
  61 0024 000051E3 		cmp	r1, #0
  62 0028 0900000A 		beq	.L1
  63              	.LVL1:
  42:../srccode/interrupt.c ****         {
  43:../srccode/interrupt.c ****             return;
  44:../srccode/interrupt.c ****         }
  45:../srccode/interrupt.c **** 
  46:../srccode/interrupt.c ****         /* 获取要发送的字符 */
ARM GAS  C:\DOCUME~1\ADMINI~1\LOCALS~1\Temp\cc1RpU0T.s 			page 3


  47:../srccode/interrupt.c ****         pstrMsgBuf = (MSGBUF*)gpstrMsgBufPt;
  48:../srccode/interrupt.c ****         ucChar = pstrMsgBuf->aucBuf[pstrMsgBuf->ucCounter++];
  64              		.loc 1 48 0
  65 002c 0900D1E5 		ldrb	r0, [r1, #9]	@ zero_extendqisi2
  49:../srccode/interrupt.c **** 
  50:../srccode/interrupt.c ****         /* 缓冲消息没发送完毕 */
  51:../srccode/interrupt.c ****         if(pstrMsgBuf->ucCounter <= pstrMsgBuf->ucLength)
  66              		.loc 1 51 0
  67 0030 08C0D1E5 		ldrb	ip, [r1, #8]	@ zero_extendqisi2
  48:../srccode/interrupt.c ****         ucChar = pstrMsgBuf->aucBuf[pstrMsgBuf->ucCounter++];
  68              		.loc 1 48 0
  69 0034 012080E2 		add	r2, r0, #1
  70              	.LVL2:
  71 0038 000081E0 		add	r0, r1, r0
  72 003c FF2002E2 		and	r2, r2, #255
  73 0040 0A00D0E5 		ldrb	r0, [r0, #10]	@ zero_extendqisi2
  74              	.LVL3:
  75              		.loc 1 51 0
  76 0044 02005CE1 		cmp	ip, r2
  48:../srccode/interrupt.c ****         ucChar = pstrMsgBuf->aucBuf[pstrMsgBuf->ucCounter++];
  77              		.loc 1 48 0
  78 0048 0920C1E5 		strb	r2, [r1, #9]
  52:../srccode/interrupt.c ****         {
  53:../srccode/interrupt.c ****             /* 向串口发一个字符 */
  54:../srccode/interrupt.c ****             COMTX = ucChar;
  79              		.loc 1 54 0
  80 004c FF080325 		strcs	r0, [r3, #-2303]
  51:../srccode/interrupt.c ****         if(pstrMsgBuf->ucCounter <= pstrMsgBuf->ucLength)
  81              		.loc 1 51 0
  82 0050 0200003A 		bcc	.L5
  83              	.LVL4:
  84              	.L1:
  55:../srccode/interrupt.c ****         }
  56:../srccode/interrupt.c ****         else /* 缓冲消息发送完毕, 释放缓冲 */
  57:../srccode/interrupt.c ****         {
  58:../srccode/interrupt.c ****             DEV_BufferFree(&gstrBufPool, gpstrMsgBufPt);
  59:../srccode/interrupt.c ****             gpstrMsgBufPt = (M_CHAIN*)NULL;
  60:../srccode/interrupt.c ****         }
  61:../srccode/interrupt.c ****     }
  62:../srccode/interrupt.c **** }
  85              		.loc 1 62 0
  86 0054 14D04BE2 		sub	sp, fp, #20
  87 0058 18689DE8 		ldmfd	sp, {r3, r4, fp, sp, lr}
  88 005c 1EFF2FE1 		bx	lr
  89              	.LVL5:
  90              	.L5:
  58:../srccode/interrupt.c ****             DEV_BufferFree(&gstrBufPool, gpstrMsgBufPt);
  91              		.loc 1 58 0
  92 0060 10009FE5 		ldr	r0, .L6+4
  93              	.LVL6:
  94 0064 FEFFFFEB 		bl	DEV_BufferFree
  95              	.LVL7:
  59:../srccode/interrupt.c ****             gpstrMsgBufPt = (M_CHAIN*)NULL;
  96              		.loc 1 59 0
  97 0068 0030A0E3 		mov	r3, #0
  98 006c 003084E5 		str	r3, [r4, #0]
  99 0070 F7FFFFEA 		b	.L1
ARM GAS  C:\DOCUME~1\ADMINI~1\LOCALS~1\Temp\cc1RpU0T.s 			page 4


 100              	.L7:
 101              		.align	2
 102              	.L6:
 103 0074 00000000 		.word	gpstrMsgBufPt
 104 0078 00000000 		.word	gstrBufPool
 105              		.cfi_endproc
 106              	.LFE1:
 107              		.fnend
 108              		.size	INT_UartPrint, .-INT_UartPrint
 109              		.align	2
 110              		.global	INT_FiqFunc
 111              		.type	INT_FiqFunc, %function
 112              	INT_FiqFunc:
 113              		.fnstart
 114              	.LFB0:
  11:../srccode/interrupt.c **** {
 115              		.loc 1 11 0
 116              		.cfi_startproc
 117              		@ Function supports interworking.
 118              		@ args = 0, pretend = 0, frame = 0
 119              		@ frame_needed = 0, uses_anonymous_args = 0
 120              		@ link register save eliminated.
  14:../srccode/interrupt.c ****     uiFiqStatus = FIQSTA;
 121              		.loc 1 14 0
 122 007c 0F0AE0E3 		mvn	r0, #61440
 123 0080 FF3E10E5 		ldr	r3, [r0, #-3839]
 124              	.LVL8:
  17:../srccode/interrupt.c ****     if(UARTINTMASK == (UARTINTMASK & uiFiqStatus))
 125              		.loc 1 17 0
 126 0084 010913E3 		tst	r3, #16384
 127 0088 1EFF2F01 		bxeq	lr
  21:../srccode/interrupt.c **** }
 128              		.loc 1 21 0
  19:../srccode/interrupt.c ****         INT_UartPrint();
 129              		.loc 1 19 0
 130 008c FEFFFFEA 		b	INT_UartPrint
 131              		.cfi_endproc
 132              	.LFE0:
 133              		.fnend
 134              		.size	INT_FiqFunc, .-INT_FiqFunc
 135              	.Letext0:
 782              		.section	.note.GNU-stack,"",%progbits
ARM GAS  C:\DOCUME~1\ADMINI~1\LOCALS~1\Temp\cc1RpU0T.s 			page 18

