ARM GAS  C:\DOCUME~1\ADMINI~1\LOCALS~1\Temp\cc1YUc9t.s 			page 1


   1              		.cpu arm7tdmi
   2              		.fpu softvfp
   3              		.eabi_attribute 20, 1
   4              		.eabi_attribute 21, 1
   5              		.eabi_attribute 23, 3
   6              		.eabi_attribute 24, 1
   7              		.eabi_attribute 25, 1
   8              		.eabi_attribute 26, 2
   9              		.eabi_attribute 30, 2
  10              		.eabi_attribute 18, 4
  11              		.file	"mds_sem.c"
  18 0000 4B010000 		.text
  18      02005100 
  18      00000201 
  18      FB0E0D00 
  18      01010101 
  19              	.Ltext0:
  20              		.cfi_sections	.debug_frame
  21              		.align	2
  22              		.global	MDS_SemCreate
  23              		.type	MDS_SemCreate, %function
  24              	MDS_SemCreate:
  25              		.fnstart
  26              	.LFB0:
  27              		.file 1 "../mindows/mds_sem.c"
   1:../mindows/mds_sem.c **** 
   2:../mindows/mds_sem.c **** #include "mindows_inner.h"
   3:../mindows/mds_sem.c **** 
   4:../mindows/mds_sem.c **** 
   5:../mindows/mds_sem.c **** /***********************************************************************************
   6:../mindows/mds_sem.c **** 函数功能: 创建一个信号量.
   7:../mindows/mds_sem.c **** 入口参数: pstrSem: 信号量所使用的内存指针.
   8:../mindows/mds_sem.c ****           uiSemOpt: 创建信号量所用的选项.
   9:../mindows/mds_sem.c ****                     优先级:
  10:../mindows/mds_sem.c ****                     SEMPRIO: 信号量队列采用优先级队列, 释放信号量时先激活pend任务中
  11:../mindows/mds_sem.c ****                              优先级最高的任务.
  12:../mindows/mds_sem.c ****                     SEMFIFO: 信号量队列采用先进先出队列, 释放信号量时先激活最先被
  13:../mindows/mds_sem.c ****                              pend的任务.
  14:../mindows/mds_sem.c ****                     信号量类型:
  15:../mindows/mds_sem.c ****                     SEMBIN: 创建二进制信号量.
  16:../mindows/mds_sem.c ****                     SEMCNT: 创建计数信号量.
  17:../mindows/mds_sem.c ****           uiInitVal: 信号量的初始值.
  18:../mindows/mds_sem.c ****                      SEMEMPTY: 信号量为空状态, 不可获取.
  19:../mindows/mds_sem.c ****                      SEMFULL: 信号量为满状态, 可获取.
  20:../mindows/mds_sem.c **** 返 回 值: RTN_SUCD: 创建信号量成功.
  21:../mindows/mds_sem.c ****           RTN_FAIL: 创建信号量失败.
  22:../mindows/mds_sem.c **** ***********************************************************************************/
  23:../mindows/mds_sem.c **** U32 MDS_SemCreate(M_SEM* pstrSem, U32 uiSemOpt, U32 uiInitVal)
  24:../mindows/mds_sem.c **** {
  28              		.loc 1 24 0
  29              		.cfi_startproc
ARM GAS  C:\DOCUME~1\ADMINI~1\LOCALS~1\Temp\cc1YUc9t.s 			page 2


  30              		@ Function supports interworking.
  31              		@ args = 0, pretend = 0, frame = 8
  32              		@ frame_needed = 1, uses_anonymous_args = 0
  33              	.LVL0:
  34              		.movsp ip
  35 0000 0DC0A0E1 		mov	ip, sp
  36              	.LCFI0:
  37              		.cfi_def_cfa_register 12
  38 0004 10D82DE9 		stmfd	sp!, {r4, fp, ip, lr, pc}
  39              		.pad #4
  40              		.save {r4, fp, ip, lr}
  41              		.setfp fp, ip, #-4
  42 0008 04B04CE2 		sub	fp, ip, #4
  43              		.cfi_offset 14, -8
  44              		.cfi_offset 13, -12
  45              		.cfi_offset 11, -16
  46              		.cfi_offset 4, -20
  47              	.LCFI1:
  48              		.cfi_def_cfa 11, 4
  49              		.pad #12
  50 000c 0CD04DE2 		sub	sp, sp, #12
  25:../mindows/mds_sem.c ****     /* 入口参数检查 */
  26:../mindows/mds_sem.c ****     if(NULL == pstrSem)
  51              		.loc 1 26 0
  52 0010 004050E2 		subs	r4, r0, #0
  53              		.loc 1 26 0
  54 0014 0700000A 		beq	.L7
  27:../mindows/mds_sem.c ****     {
  28:../mindows/mds_sem.c ****         return RTN_FAIL;
  29:../mindows/mds_sem.c ****     }
  30:../mindows/mds_sem.c **** 
  31:../mindows/mds_sem.c ****     /* 信号量选项检查 */
  32:../mindows/mds_sem.c ****     if(((SEMBIN != (SEMTYPEMASK & uiSemOpt))
  55              		.loc 1 32 0
  56 0018 0C3001E2 		and	r3, r1, #12
  57 001c 080053E3 		cmp	r3, #8
  58 0020 04005313 		cmpne	r3, #4
  59 0024 0300001A 		bne	.L7
  33:../mindows/mds_sem.c ****         && (SEMCNT != (SEMTYPEMASK & uiSemOpt)))
  34:../mindows/mds_sem.c ****        || ((SEMFIFO != (SEMSCHEDOPTMASK & uiSemOpt))
  60              		.loc 1 34 0
  61 0028 03C001E2 		and	ip, r1, #3
  35:../mindows/mds_sem.c ****            && (SEMPRIO != (SEMSCHEDOPTMASK & uiSemOpt))))
  62              		.loc 1 35 0
  63 002c 01004CE2 		sub	r0, ip, #1
  64              	.LVL1:
  34:../mindows/mds_sem.c ****        || ((SEMFIFO != (SEMSCHEDOPTMASK & uiSemOpt))
  65              		.loc 1 34 0
  66 0030 010050E3 		cmp	r0, #1
  67 0034 0300009A 		bls	.L9
  68              	.L7:
  36:../mindows/mds_sem.c ****     {
  37:../mindows/mds_sem.c ****         return RTN_FAIL;
  38:../mindows/mds_sem.c ****     }
  39:../mindows/mds_sem.c **** 
  40:../mindows/mds_sem.c ****     /* 二进制信号量初始值只能是空或者满 */
  41:../mindows/mds_sem.c ****     if(SEMBIN == (SEMTYPEMASK & uiSemOpt))
ARM GAS  C:\DOCUME~1\ADMINI~1\LOCALS~1\Temp\cc1YUc9t.s 			page 3


  42:../mindows/mds_sem.c ****     {
  43:../mindows/mds_sem.c ****         if((SEMEMPTY != uiInitVal) && (SEMFULL != uiInitVal))
  44:../mindows/mds_sem.c ****         {
  45:../mindows/mds_sem.c ****             return RTN_FAIL;
  69              		.loc 1 45 0
  70 0038 0100A0E3 		mov	r0, #1
  71              	.LVL2:
  72              	.L2:
  46:../mindows/mds_sem.c ****         }
  47:../mindows/mds_sem.c ****     }
  48:../mindows/mds_sem.c **** 
  49:../mindows/mds_sem.c ****     /* 初始化信号量调度表 */
  50:../mindows/mds_sem.c ****     MDS_TaskSchedTabInit(&pstrSem->strSemTab);
  51:../mindows/mds_sem.c **** 
  52:../mindows/mds_sem.c ****     /* 初始化信号量初始值 */
  53:../mindows/mds_sem.c ****     pstrSem->uiCounter = uiInitVal;
  54:../mindows/mds_sem.c **** 
  55:../mindows/mds_sem.c ****     /* 初始化信号量参数 */
  56:../mindows/mds_sem.c ****     pstrSem->uiSemOpt = uiSemOpt;
  57:../mindows/mds_sem.c **** 
  58:../mindows/mds_sem.c ****     return RTN_SUCD;
  59:../mindows/mds_sem.c **** }
  73              		.loc 1 59 0
  74 003c 10D04BE2 		sub	sp, fp, #16
  75 0040 10689DE8 		ldmfd	sp, {r4, fp, sp, lr}
  76 0044 1EFF2FE1 		bx	lr
  77              	.LVL3:
  78              	.L9:
  41:../mindows/mds_sem.c ****     if(SEMBIN == (SEMTYPEMASK & uiSemOpt))
  79              		.loc 1 41 0
  80 0048 040053E3 		cmp	r3, #4
  81 004c 0900000A 		beq	.L10
  82              	.L3:
  50:../mindows/mds_sem.c ****     MDS_TaskSchedTabInit(&pstrSem->strSemTab);
  83              		.loc 1 50 0
  84 0050 0400A0E1 		mov	r0, r4
  85 0054 18100BE5 		str	r1, [fp, #-24]
  86 0058 1C200BE5 		str	r2, [fp, #-28]
  87 005c FEFFFFEB 		bl	MDS_TaskSchedTabInit
  88              	.LVL4:
  53:../mindows/mds_sem.c ****     pstrSem->uiCounter = uiInitVal;
  89              		.loc 1 53 0
  90 0060 1C201BE5 		ldr	r2, [fp, #-28]
  56:../mindows/mds_sem.c ****     pstrSem->uiSemOpt = uiSemOpt;
  91              		.loc 1 56 0
  92 0064 18101BE5 		ldr	r1, [fp, #-24]
  53:../mindows/mds_sem.c ****     pstrSem->uiCounter = uiInitVal;
  93              		.loc 1 53 0
  94 0068 442084E5 		str	r2, [r4, #68]
  56:../mindows/mds_sem.c ****     pstrSem->uiSemOpt = uiSemOpt;
  95              		.loc 1 56 0
  96 006c 481084E5 		str	r1, [r4, #72]
  58:../mindows/mds_sem.c ****     return RTN_SUCD;
  97              		.loc 1 58 0
  98 0070 0000A0E3 		mov	r0, #0
  99 0074 F0FFFFEA 		b	.L2
 100              	.LVL5:
ARM GAS  C:\DOCUME~1\ADMINI~1\LOCALS~1\Temp\cc1YUc9t.s 			page 4


 101              	.L10:
  43:../mindows/mds_sem.c ****         if((SEMEMPTY != uiInitVal) && (SEMFULL != uiInitVal))
 102              		.loc 1 43 0
 103 0078 013042E2 		sub	r3, r2, #1
 104 007c 030073E3 		cmn	r3, #3
 105 0080 F2FFFF8A 		bhi	.L3
 106 0084 EBFFFFEA 		b	.L7
 107              		.cfi_endproc
 108              	.LFE0:
 109              		.fnend
 110              		.size	MDS_SemCreate, .-MDS_SemCreate
 111              		.align	2
 112              		.global	MDS_SemTake
 113              		.type	MDS_SemTake, %function
 114              	MDS_SemTake:
 115              		.fnstart
 116              	.LFB1:
  60:../mindows/mds_sem.c **** 
  61:../mindows/mds_sem.c **** /***********************************************************************************
  62:../mindows/mds_sem.c **** 函数功能: 获取一个信号量, 当信号量为满时可获取, 当信号量为空时无法获取, 可能会使任务
  63:../mindows/mds_sem.c ****           变为pend状态, 发生任务切换.
  64:../mindows/mds_sem.c **** 入口参数: pstrSem: 要获取的信号量指针.
  65:../mindows/mds_sem.c ****           uiDelayTick: 获取信号量等待的时间, 单位: tick.
  66:../mindows/mds_sem.c ****                        SEMNOWAIT: 不等待, 无论是否获取到信号量都继续执行该任务.
  67:../mindows/mds_sem.c ****                        SEMWAITFEV: 永久等待, 若获取不到信号量则该任务切换为pend状态
  68:../mindows/mds_sem.c ****                                    一直等待.
  69:../mindows/mds_sem.c ****                        其它: 若在该时间内获取到信号量则结束该任务的pend状态, 返回
  70:../mindows/mds_sem.c ****                              RTN_SUCD, 若在该时间内获取不到信号量则结束该任务的pend
  71:../mindows/mds_sem.c ****                              状态, 返回RTN_SMTKTO.
  72:../mindows/mds_sem.c **** 返 回 值: RTN_SUCD: 在延迟时间内获取到信号量.
  73:../mindows/mds_sem.c ****           RTN_FAIL: 获取信号量失败.
  74:../mindows/mds_sem.c ****           RTN_SMTKTO: 信号量时间耗尽, 超时返回.
  75:../mindows/mds_sem.c ****           RTN_SMTKRT: 任务延迟状态被中断, 没有获取到信号量.
  76:../mindows/mds_sem.c ****           RTN_SMTKDL: 信号量被删除.
  77:../mindows/mds_sem.c **** ***********************************************************************************/
  78:../mindows/mds_sem.c **** U32 MDS_SemTake(M_SEM* pstrSem, U32 uiDelayTick)
  79:../mindows/mds_sem.c **** {
 117              		.loc 1 79 0
 118              		.cfi_startproc
 119              		@ Function supports interworking.
 120              		@ args = 0, pretend = 0, frame = 0
 121              		@ frame_needed = 1, uses_anonymous_args = 0
 122              	.LVL6:
 123              		.movsp ip
 124 0088 0DC0A0E1 		mov	ip, sp
 125              	.LCFI2:
 126              		.cfi_def_cfa_register 12
 127 008c 78D82DE9 		stmfd	sp!, {r3, r4, r5, r6, fp, ip, lr, pc}
 128              		.pad #4
 129              		.save {r3, r4, r5, r6, fp, ip, lr}
  80:../mindows/mds_sem.c ****     /* 入口参数检查 */
  81:../mindows/mds_sem.c ****     if(NULL == pstrSem)
 130              		.loc 1 81 0
 131 0090 004050E2 		subs	r4, r0, #0
 132              		.cfi_offset 14, -8
 133              		.cfi_offset 13, -12
 134              		.cfi_offset 11, -16
ARM GAS  C:\DOCUME~1\ADMINI~1\LOCALS~1\Temp\cc1YUc9t.s 			page 5


 135              		.cfi_offset 6, -20
 136              		.cfi_offset 5, -24
 137              		.cfi_offset 4, -28
 138              		.cfi_offset 3, -32
  79:../mindows/mds_sem.c **** {
 139              		.loc 1 79 0
 140              		.setfp fp, ip, #-4
 141 0094 04B04CE2 		sub	fp, ip, #4
 142              	.LCFI3:
 143              		.cfi_def_cfa 11, 4
  79:../mindows/mds_sem.c **** {
 144              		.loc 1 79 0
 145 0098 0160A0E1 		mov	r6, r1
  82:../mindows/mds_sem.c ****     {
  83:../mindows/mds_sem.c ****         return RTN_FAIL;
 146              		.loc 1 83 0
 147 009c 0100A003 		moveq	r0, #1
 148              	.LVL7:
  81:../mindows/mds_sem.c ****     if(NULL == pstrSem)
 149              		.loc 1 81 0
 150 00a0 0E00000A 		beq	.L12
  84:../mindows/mds_sem.c ****     }
  85:../mindows/mds_sem.c **** 
  86:../mindows/mds_sem.c ****     (void)MDS_IntLock();
  87:../mindows/mds_sem.c **** 
  88:../mindows/mds_sem.c ****     /* 更新与当前任务相关的信号量 */
  89:../mindows/mds_sem.c ****     gpstrCurTcb->pstrSem = pstrSem;
 151              		.loc 1 89 0
 152 00a4 E4509FE5 		ldr	r5, .L30
  86:../mindows/mds_sem.c ****     (void)MDS_IntLock();
 153              		.loc 1 86 0
 154 00a8 FEFFFFEB 		bl	MDS_IntLock
 155              	.LVL8:
 156              		.loc 1 89 0
 157 00ac 003095E5 		ldr	r3, [r5, #0]
  90:../mindows/mds_sem.c **** 
  91:../mindows/mds_sem.c ****     /* 获取信号量时不等待时间 */
  92:../mindows/mds_sem.c ****     if(SEMNOWAIT == uiDelayTick)
 158              		.loc 1 92 0
 159 00b0 000056E3 		cmp	r6, #0
  89:../mindows/mds_sem.c ****     gpstrCurTcb->pstrSem = pstrSem;
 160              		.loc 1 89 0
 161 00b4 5C4083E5 		str	r4, [r3, #92]
 162              		.loc 1 92 0
 163 00b8 0B00001A 		bne	.L13
  93:../mindows/mds_sem.c ****     {
  94:../mindows/mds_sem.c ****         /* 二进制信号量 */
  95:../mindows/mds_sem.c ****         if(SEMBIN == (SEMTYPEMASK & pstrSem->uiSemOpt))
 164              		.loc 1 95 0
 165 00bc 481094E5 		ldr	r1, [r4, #72]
 166 00c0 0C0001E2 		and	r0, r1, #12
 167 00c4 040050E3 		cmp	r0, #4
 168 00c8 2300000A 		beq	.L26
  96:../mindows/mds_sem.c ****         {
  97:../mindows/mds_sem.c ****             /* 信号量为满, 可获取到信号量 */
  98:../mindows/mds_sem.c ****             if(SEMFULL == pstrSem->uiCounter)
  99:../mindows/mds_sem.c ****             {
ARM GAS  C:\DOCUME~1\ADMINI~1\LOCALS~1\Temp\cc1YUc9t.s 			page 6


 100:../mindows/mds_sem.c ****                 /* 获取到信号量后将信号量置为空 */
 101:../mindows/mds_sem.c ****                 pstrSem->uiCounter = SEMEMPTY;
 102:../mindows/mds_sem.c **** 
 103:../mindows/mds_sem.c ****                 (void)MDS_IntUnlock();
 104:../mindows/mds_sem.c **** 
 105:../mindows/mds_sem.c ****                 return RTN_SUCD;
 106:../mindows/mds_sem.c ****             }
 107:../mindows/mds_sem.c ****             else /* 信号量为空, 无法获取到信号量 */
 108:../mindows/mds_sem.c ****             {
 109:../mindows/mds_sem.c ****                 (void)MDS_IntUnlock();
 110:../mindows/mds_sem.c **** 
 111:../mindows/mds_sem.c ****                 return RTN_SMTKRT;
 112:../mindows/mds_sem.c ****             }
 113:../mindows/mds_sem.c ****         }
 114:../mindows/mds_sem.c ****         else /* 计数信号量 */
 115:../mindows/mds_sem.c ****         {
 116:../mindows/mds_sem.c ****             /* 信号量不为空, 可获取到信号量 */
 117:../mindows/mds_sem.c ****             if(SEMEMPTY != pstrSem->uiCounter)
 169              		.loc 1 117 0
 170 00cc 443094E5 		ldr	r3, [r4, #68]
 171 00d0 000053E3 		cmp	r3, #0
 172 00d4 1B00001A 		bne	.L27
 173              	.L16:
 118:../mindows/mds_sem.c ****             {
 119:../mindows/mds_sem.c ****                 /* 获取到信号量后将信号量计数值-1 */
 120:../mindows/mds_sem.c ****                 pstrSem->uiCounter--;
 121:../mindows/mds_sem.c **** 
 122:../mindows/mds_sem.c ****                 (void)MDS_IntUnlock();
 123:../mindows/mds_sem.c **** 
 124:../mindows/mds_sem.c ****                 return RTN_SUCD;
 125:../mindows/mds_sem.c ****             }
 126:../mindows/mds_sem.c ****             else /* 信号量为空, 无法获取到信号量 */
 127:../mindows/mds_sem.c ****             {
 128:../mindows/mds_sem.c ****                 (void)MDS_IntUnlock();
 174              		.loc 1 128 0
 175 00d8 FEFFFFEB 		bl	MDS_IntUnlock
 129:../mindows/mds_sem.c **** 
 130:../mindows/mds_sem.c ****                 return RTN_SMTKRT;
 176              		.loc 1 130 0
 177 00dc 0300A0E3 		mov	r0, #3
 178              	.LVL9:
 179              	.L12:
 131:../mindows/mds_sem.c ****             }
 132:../mindows/mds_sem.c ****         }
 133:../mindows/mds_sem.c ****     }
 134:../mindows/mds_sem.c ****     else /* 获取信号量时需要等待时间 */
 135:../mindows/mds_sem.c ****     {
 136:../mindows/mds_sem.c ****         /* 二进制信号量 */
 137:../mindows/mds_sem.c ****         if(SEMBIN == (SEMTYPEMASK & pstrSem->uiSemOpt))
 138:../mindows/mds_sem.c ****         {
 139:../mindows/mds_sem.c ****             /* 信号量为满, 可获取到信号量 */
 140:../mindows/mds_sem.c ****             if(SEMFULL == pstrSem->uiCounter)
 141:../mindows/mds_sem.c ****             {
 142:../mindows/mds_sem.c ****                 /* 获取到信号量后将信号量置为空 */
 143:../mindows/mds_sem.c ****                 pstrSem->uiCounter = SEMEMPTY;
 144:../mindows/mds_sem.c **** 
 145:../mindows/mds_sem.c ****                 (void)MDS_IntUnlock();
ARM GAS  C:\DOCUME~1\ADMINI~1\LOCALS~1\Temp\cc1YUc9t.s 			page 7


 146:../mindows/mds_sem.c **** 
 147:../mindows/mds_sem.c ****                 return RTN_SUCD;
 148:../mindows/mds_sem.c ****             }
 149:../mindows/mds_sem.c ****             else /* 信号量为空, 无法获取到信号量, 需要切换任务 */
 150:../mindows/mds_sem.c ****             {
 151:../mindows/mds_sem.c ****                 /* 将任务置为pend状态 */
 152:../mindows/mds_sem.c ****                 if(RTN_FAIL == MDS_TaskPend(pstrSem, uiDelayTick))
 153:../mindows/mds_sem.c ****                 {
 154:../mindows/mds_sem.c ****                     (void)MDS_IntUnlock();
 155:../mindows/mds_sem.c **** 
 156:../mindows/mds_sem.c ****                     /* 任务pend失败 */
 157:../mindows/mds_sem.c ****                     return RTN_FAIL;
 158:../mindows/mds_sem.c ****                 }
 159:../mindows/mds_sem.c **** 
 160:../mindows/mds_sem.c ****                 (void)MDS_IntUnlock();
 161:../mindows/mds_sem.c **** 
 162:../mindows/mds_sem.c ****                 /* 使用软中断调度任务 */
 163:../mindows/mds_sem.c ****                 MDS_TaskSwiSched();
 164:../mindows/mds_sem.c **** 
 165:../mindows/mds_sem.c ****                 /* 任务pend返回值, 该值在任务pend状态结束时被保存在uiDelayTick中 */
 166:../mindows/mds_sem.c ****                 return gpstrCurTcb->strTaskOpt.uiDelayTick;
 167:../mindows/mds_sem.c ****             }
 168:../mindows/mds_sem.c ****         }
 169:../mindows/mds_sem.c ****         else /* 计数信号量 */
 170:../mindows/mds_sem.c ****         {
 171:../mindows/mds_sem.c ****             /* 信号量不为空, 可获取到信号量 */
 172:../mindows/mds_sem.c ****             if(SEMEMPTY != pstrSem->uiCounter)
 173:../mindows/mds_sem.c ****             {
 174:../mindows/mds_sem.c ****                 /* 获取到信号量后将信号量计数值-1 */
 175:../mindows/mds_sem.c ****                 pstrSem->uiCounter--;
 176:../mindows/mds_sem.c **** 
 177:../mindows/mds_sem.c ****                 (void)MDS_IntUnlock();
 178:../mindows/mds_sem.c **** 
 179:../mindows/mds_sem.c ****                 return RTN_SUCD;
 180:../mindows/mds_sem.c ****             }
 181:../mindows/mds_sem.c ****             else /* 信号量为空, 无法获取到信号量, 需要切换任务 */
 182:../mindows/mds_sem.c ****             {
 183:../mindows/mds_sem.c ****                 /* 将任务置为pend状态 */
 184:../mindows/mds_sem.c ****                 if(RTN_FAIL == MDS_TaskPend(pstrSem, uiDelayTick))
 185:../mindows/mds_sem.c ****                 {
 186:../mindows/mds_sem.c ****                     (void)MDS_IntUnlock();
 187:../mindows/mds_sem.c **** 
 188:../mindows/mds_sem.c ****                     /* 任务pend失败 */
 189:../mindows/mds_sem.c ****                     return RTN_FAIL;
 190:../mindows/mds_sem.c ****                 }
 191:../mindows/mds_sem.c **** 
 192:../mindows/mds_sem.c ****                 (void)MDS_IntUnlock();
 193:../mindows/mds_sem.c **** 
 194:../mindows/mds_sem.c ****                 /* 使用软中断调度任务 */
 195:../mindows/mds_sem.c ****                 MDS_TaskSwiSched();
 196:../mindows/mds_sem.c **** 
 197:../mindows/mds_sem.c ****                 /* 任务pend返回值, 该值在任务pend状态结束时被保存在uiDelayTick中 */
 198:../mindows/mds_sem.c ****                 return gpstrCurTcb->strTaskOpt.uiDelayTick;
 199:../mindows/mds_sem.c ****             }
 200:../mindows/mds_sem.c ****         }
 201:../mindows/mds_sem.c ****     }
 202:../mindows/mds_sem.c **** }
ARM GAS  C:\DOCUME~1\ADMINI~1\LOCALS~1\Temp\cc1YUc9t.s 			page 8


 180              		.loc 1 202 0
 181 00e0 1CD04BE2 		sub	sp, fp, #28
 182 00e4 78689DE8 		ldmfd	sp, {r3, r4, r5, r6, fp, sp, lr}
 183 00e8 1EFF2FE1 		bx	lr
 184              	.LVL10:
 185              	.L13:
 137:../mindows/mds_sem.c ****         if(SEMBIN == (SEMTYPEMASK & pstrSem->uiSemOpt))
 186              		.loc 1 137 0
 187 00ec 483094E5 		ldr	r3, [r4, #72]
 188 00f0 0CE003E2 		and	lr, r3, #12
 189 00f4 04005EE3 		cmp	lr, #4
 190 00f8 1E00000A 		beq	.L28
 172:../mindows/mds_sem.c ****             if(SEMEMPTY != pstrSem->uiCounter)
 191              		.loc 1 172 0
 192 00fc 443094E5 		ldr	r3, [r4, #68]
 193 0100 000053E3 		cmp	r3, #0
 194 0104 0A00001A 		bne	.L29
 195              	.L20:
 184:../mindows/mds_sem.c ****                 if(RTN_FAIL == MDS_TaskPend(pstrSem, uiDelayTick))
 196              		.loc 1 184 0
 197 0108 0610A0E1 		mov	r1, r6
 198 010c 0400A0E1 		mov	r0, r4
 199 0110 FEFFFFEB 		bl	MDS_TaskPend
 200 0114 010050E3 		cmp	r0, #1
 201 0118 0060A0E1 		mov	r6, r0
 202              	.LVL11:
 203 011c 1200000A 		beq	.L24
 192:../mindows/mds_sem.c ****                 (void)MDS_IntUnlock();
 204              		.loc 1 192 0
 205 0120 FEFFFFEB 		bl	MDS_IntUnlock
 195:../mindows/mds_sem.c ****                 MDS_TaskSwiSched();
 206              		.loc 1 195 0
 207 0124 FEFFFFEB 		bl	MDS_TaskSwiSched
 198:../mindows/mds_sem.c ****                 return gpstrCurTcb->strTaskOpt.uiDelayTick;
 208              		.loc 1 198 0
 209 0128 002095E5 		ldr	r2, [r5, #0]
 210 012c 700092E5 		ldr	r0, [r2, #112]
 211 0130 EAFFFFEA 		b	.L12
 212              	.LVL12:
 213              	.L29:
 175:../mindows/mds_sem.c ****                 pstrSem->uiCounter--;
 214              		.loc 1 175 0
 215 0134 011043E2 		sub	r1, r3, #1
 216 0138 441084E5 		str	r1, [r4, #68]
 177:../mindows/mds_sem.c ****                 (void)MDS_IntUnlock();
 217              		.loc 1 177 0
 218 013c FEFFFFEB 		bl	MDS_IntUnlock
 179:../mindows/mds_sem.c ****                 return RTN_SUCD;
 219              		.loc 1 179 0
 220 0140 0000A0E3 		mov	r0, #0
 221 0144 E5FFFFEA 		b	.L12
 222              	.L27:
 120:../mindows/mds_sem.c ****                 pstrSem->uiCounter--;
 223              		.loc 1 120 0
 224 0148 01C043E2 		sub	ip, r3, #1
 225 014c 44C084E5 		str	ip, [r4, #68]
 122:../mindows/mds_sem.c ****                 (void)MDS_IntUnlock();
ARM GAS  C:\DOCUME~1\ADMINI~1\LOCALS~1\Temp\cc1YUc9t.s 			page 9


 226              		.loc 1 122 0
 227 0150 FEFFFFEB 		bl	MDS_IntUnlock
 124:../mindows/mds_sem.c ****                 return RTN_SUCD;
 228              		.loc 1 124 0
 229 0154 0600A0E1 		mov	r0, r6
 230 0158 E0FFFFEA 		b	.L12
 231              	.L26:
  98:../mindows/mds_sem.c ****             if(SEMFULL == pstrSem->uiCounter)
 232              		.loc 1 98 0
 233 015c 442094E5 		ldr	r2, [r4, #68]
 234 0160 010072E3 		cmn	r2, #1
 235 0164 DBFFFF1A 		bne	.L16
 143:../mindows/mds_sem.c ****                 pstrSem->uiCounter = SEMEMPTY;
 236              		.loc 1 143 0
 237 0168 446084E5 		str	r6, [r4, #68]
 238              	.LVL13:
 239              	.L24:
 145:../mindows/mds_sem.c ****                 (void)MDS_IntUnlock();
 240              		.loc 1 145 0
 241 016c FEFFFFEB 		bl	MDS_IntUnlock
 147:../mindows/mds_sem.c ****                 return RTN_SUCD;
 242              		.loc 1 147 0
 243 0170 0600A0E1 		mov	r0, r6
 244 0174 D9FFFFEA 		b	.L12
 245              	.LVL14:
 246              	.L28:
 140:../mindows/mds_sem.c ****             if(SEMFULL == pstrSem->uiCounter)
 247              		.loc 1 140 0
 248 0178 440094E5 		ldr	r0, [r4, #68]
 249 017c 010070E3 		cmn	r0, #1
 250 0180 E0FFFF1A 		bne	.L20
 143:../mindows/mds_sem.c ****                 pstrSem->uiCounter = SEMEMPTY;
 251              		.loc 1 143 0
 252 0184 0060A0E3 		mov	r6, #0
 253              	.LVL15:
 254 0188 446084E5 		str	r6, [r4, #68]
 255 018c F6FFFFEA 		b	.L24
 256              	.L31:
 257              		.align	2
 258              	.L30:
 259 0190 00000000 		.word	gpstrCurTcb
 260              		.cfi_endproc
 261              	.LFE1:
 262              		.fnend
 263              		.size	MDS_SemTake, .-MDS_SemTake
 264              		.align	2
 265              		.global	MDS_SemGive
 266              		.type	MDS_SemGive, %function
 267              	MDS_SemGive:
 268              		.fnstart
 269              	.LFB2:
 203:../mindows/mds_sem.c **** 
 204:../mindows/mds_sem.c **** /***********************************************************************************
 205:../mindows/mds_sem.c **** 函数功能: 释放一个信号量, 当信号量为满时任务不受影响, 当信号量为空时, 若信号量阻塞了
 206:../mindows/mds_sem.c ****           任务则将任务置为ready态, 若信号量没有阻塞任务则将信号量置为满.
 207:../mindows/mds_sem.c **** 入口参数: pstrSem: 要释放的信号量指针.
 208:../mindows/mds_sem.c **** 返 回 值: RTN_SUCD: 释放信号量成功.
ARM GAS  C:\DOCUME~1\ADMINI~1\LOCALS~1\Temp\cc1YUc9t.s 			page 10


 209:../mindows/mds_sem.c ****           RTN_FAIL: 释放信号量失败.
 210:../mindows/mds_sem.c **** ***********************************************************************************/
 211:../mindows/mds_sem.c **** U32 MDS_SemGive(M_SEM* pstrSem)
 212:../mindows/mds_sem.c **** {
 270              		.loc 1 212 0
 271              		.cfi_startproc
 272              		@ Function supports interworking.
 273              		@ args = 0, pretend = 0, frame = 0
 274              		@ frame_needed = 1, uses_anonymous_args = 0
 275              	.LVL16:
 276              		.movsp ip
 277 0194 0DC0A0E1 		mov	ip, sp
 278              	.LCFI4:
 279              		.cfi_def_cfa_register 12
 280 0198 30D82DE9 		stmfd	sp!, {r4, r5, fp, ip, lr, pc}
 281              		.pad #4
 282              		.save {r4, r5, fp, ip, lr}
 213:../mindows/mds_sem.c ****     M_TCB* pstrTcb;
 214:../mindows/mds_sem.c ****     M_CHAIN* pstrChain;
 215:../mindows/mds_sem.c ****     M_CHAIN* pstrNode;
 216:../mindows/mds_sem.c ****     M_PRIOFLAG* pstrPrioFlag;
 217:../mindows/mds_sem.c ****     U32 uiRtn;
 218:../mindows/mds_sem.c ****     U8 ucTaskPrio;
 219:../mindows/mds_sem.c **** 
 220:../mindows/mds_sem.c ****     /* 入口参数检查 */
 221:../mindows/mds_sem.c ****     if(NULL == pstrSem)
 283              		.loc 1 221 0
 284 019c 005050E2 		subs	r5, r0, #0
 285              		.cfi_offset 14, -8
 286              		.cfi_offset 13, -12
 287              		.cfi_offset 11, -16
 288              		.cfi_offset 5, -20
 289              		.cfi_offset 4, -24
 212:../mindows/mds_sem.c **** {
 290              		.loc 1 212 0
 291              		.setfp fp, ip, #-4
 292 01a0 04B04CE2 		sub	fp, ip, #4
 293              	.LCFI5:
 294              		.cfi_def_cfa 11, 4
 222:../mindows/mds_sem.c ****     {
 223:../mindows/mds_sem.c ****         return RTN_FAIL;
 295              		.loc 1 223 0
 296 01a4 0150A003 		moveq	r5, #1
 221:../mindows/mds_sem.c ****     if(NULL == pstrSem)
 297              		.loc 1 221 0
 298 01a8 0900000A 		beq	.L33
 299              	.LVL17:
 224:../mindows/mds_sem.c ****     }
 225:../mindows/mds_sem.c **** 
 226:../mindows/mds_sem.c ****     uiRtn = RTN_SUCD;
 227:../mindows/mds_sem.c **** 
 228:../mindows/mds_sem.c ****     (void)MDS_IntLock();
 300              		.loc 1 228 0
 301 01ac FEFFFFEB 		bl	MDS_IntLock
 302              	.LVL18:
 229:../mindows/mds_sem.c **** 
 230:../mindows/mds_sem.c ****     /* 信号量为空 */
ARM GAS  C:\DOCUME~1\ADMINI~1\LOCALS~1\Temp\cc1YUc9t.s 			page 11


 231:../mindows/mds_sem.c ****     if(SEMEMPTY == pstrSem->uiCounter)
 303              		.loc 1 231 0
 304 01b0 443095E5 		ldr	r3, [r5, #68]
 305 01b4 000053E3 		cmp	r3, #0
 306 01b8 0900000A 		beq	.L42
 232:../mindows/mds_sem.c ****     {
 233:../mindows/mds_sem.c ****         /* 在被该信号量阻塞的任务中获取需要释放的任务 */
 234:../mindows/mds_sem.c ****         pstrTcb = MDS_SemGetActiveTask(pstrSem);
 235:../mindows/mds_sem.c **** 
 236:../mindows/mds_sem.c ****         /* 有阻塞的任务, 释放任务 */
 237:../mindows/mds_sem.c ****         if(NULL != pstrTcb)
 238:../mindows/mds_sem.c ****         {
 239:../mindows/mds_sem.c ****             /* 从信号量调度表拆除该任务 */
 240:../mindows/mds_sem.c ****             (void)MDS_TaskDelFromSemTab(pstrTcb);
 241:../mindows/mds_sem.c **** 
 242:../mindows/mds_sem.c ****             /* 任务在delay表则从delay表拆除 */
 243:../mindows/mds_sem.c ****             if(DELAYQUEFLAG == (pstrTcb->uiTaskFlag & DELAYQUEFLAG))
 244:../mindows/mds_sem.c ****             {
 245:../mindows/mds_sem.c ****                 pstrNode = &pstrTcb->strDelayQue.strQueHead;
 246:../mindows/mds_sem.c ****                 (void)MDS_ChainCurNodeDelete(&gstrDelayTab, pstrNode);
 247:../mindows/mds_sem.c **** 
 248:../mindows/mds_sem.c ****                 /* 置任务不在delay表标志 */
 249:../mindows/mds_sem.c ****                 pstrTcb->uiTaskFlag &= (~((U32)DELAYQUEFLAG));
 250:../mindows/mds_sem.c ****             }
 251:../mindows/mds_sem.c **** 
 252:../mindows/mds_sem.c ****             /* 清除任务的pend状态 */
 253:../mindows/mds_sem.c ****             pstrTcb->strTaskOpt.ucTaskSta &= ~((U8)TASKPEND);
 254:../mindows/mds_sem.c **** 
 255:../mindows/mds_sem.c ****             /* 借用uiDelayTick变量保存pend任务的返回值 */
 256:../mindows/mds_sem.c ****             pstrTcb->strTaskOpt.uiDelayTick = RTN_SUCD;
 257:../mindows/mds_sem.c **** 
 258:../mindows/mds_sem.c ****             /* 将该任务添加到ready表中 */
 259:../mindows/mds_sem.c ****             pstrNode = &pstrTcb->strTcbQue.strQueHead;
 260:../mindows/mds_sem.c ****             ucTaskPrio = pstrTcb->ucTaskPrio;
 261:../mindows/mds_sem.c ****             pstrChain = &gstrReadyTab.astrChain[ucTaskPrio];
 262:../mindows/mds_sem.c ****             pstrPrioFlag = &gstrReadyTab.strFlag;
 263:../mindows/mds_sem.c **** 
 264:../mindows/mds_sem.c ****             MDS_TaskAddToSchedTab(pstrChain, pstrNode, pstrPrioFlag, ucTaskPrio);
 265:../mindows/mds_sem.c **** 
 266:../mindows/mds_sem.c ****             /* 增加任务的ready状态 */
 267:../mindows/mds_sem.c ****             pstrTcb->strTaskOpt.ucTaskSta |= TASKREADY;
 268:../mindows/mds_sem.c **** 
 269:../mindows/mds_sem.c ****             (void)MDS_IntUnlock();
 270:../mindows/mds_sem.c **** 
 271:../mindows/mds_sem.c ****             /* 使用软中断调度任务 */
 272:../mindows/mds_sem.c ****             MDS_TaskSwiSched();
 273:../mindows/mds_sem.c **** 
 274:../mindows/mds_sem.c ****             return uiRtn;
 275:../mindows/mds_sem.c ****         }
 276:../mindows/mds_sem.c ****         else /* 没有阻塞的任务 */
 277:../mindows/mds_sem.c ****         {
 278:../mindows/mds_sem.c ****             /* 二进制信号量 */
 279:../mindows/mds_sem.c ****             if(SEMBIN == (SEMTYPEMASK & pstrSem->uiSemOpt))
 280:../mindows/mds_sem.c ****             {
 281:../mindows/mds_sem.c ****                 /* 释放信号量后将信号量置为满 */
 282:../mindows/mds_sem.c ****                 pstrSem->uiCounter = SEMFULL;
 283:../mindows/mds_sem.c ****             }
ARM GAS  C:\DOCUME~1\ADMINI~1\LOCALS~1\Temp\cc1YUc9t.s 			page 12


 284:../mindows/mds_sem.c ****             else /* 计数信号量 */
 285:../mindows/mds_sem.c ****             {
 286:../mindows/mds_sem.c ****                 /* 释放信号量后将信号量+1. 走此分支信号量+1不会溢出 */
 287:../mindows/mds_sem.c ****                 pstrSem->uiCounter++;
 288:../mindows/mds_sem.c ****             }
 289:../mindows/mds_sem.c ****         }
 290:../mindows/mds_sem.c ****     }
 291:../mindows/mds_sem.c ****     else /* 信号量非空 */
 292:../mindows/mds_sem.c ****     {
 293:../mindows/mds_sem.c ****         /* 计数信号量 */
 294:../mindows/mds_sem.c ****         if(SEMCNT == (SEMTYPEMASK & pstrSem->uiSemOpt))
 307              		.loc 1 294 0
 308 01bc 48C095E5 		ldr	ip, [r5, #72]
 309 01c0 0C200CE2 		and	r2, ip, #12
 310 01c4 080052E3 		cmp	r2, #8
 226:../mindows/mds_sem.c ****     uiRtn = RTN_SUCD;
 311              		.loc 1 226 0
 312 01c8 0050A013 		movne	r5, #0
 313              		.loc 1 294 0
 314 01cc 2400000A 		beq	.L43
 315              	.L38:
 316              	.LVL19:
 295:../mindows/mds_sem.c ****         {
 296:../mindows/mds_sem.c ****             /* 信号量未满 */
 297:../mindows/mds_sem.c ****             if(SEMFULL != pstrSem->uiCounter)
 298:../mindows/mds_sem.c ****             {
 299:../mindows/mds_sem.c ****                 /* 释放信号量后将信号量+1 */
 300:../mindows/mds_sem.c ****                 pstrSem->uiCounter++;
 301:../mindows/mds_sem.c ****             }
 302:../mindows/mds_sem.c ****             else /* 信号量已满 */
 303:../mindows/mds_sem.c ****             {
 304:../mindows/mds_sem.c ****                 uiRtn = RTN_SMGVOV;
 305:../mindows/mds_sem.c ****             }
 306:../mindows/mds_sem.c ****         }
 307:../mindows/mds_sem.c ****     }
 308:../mindows/mds_sem.c **** 
 309:../mindows/mds_sem.c ****     (void)MDS_IntUnlock();
 317              		.loc 1 309 0
 318 01d0 FEFFFFEB 		bl	MDS_IntUnlock
 319              	.LVL20:
 320              	.L33:
 310:../mindows/mds_sem.c **** 
 311:../mindows/mds_sem.c ****     return uiRtn;
 312:../mindows/mds_sem.c **** }
 321              		.loc 1 312 0
 322 01d4 0500A0E1 		mov	r0, r5
 323 01d8 14D04BE2 		sub	sp, fp, #20
 324 01dc 30689DE8 		ldmfd	sp, {r4, r5, fp, sp, lr}
 325 01e0 1EFF2FE1 		bx	lr
 326              	.LVL21:
 327              	.L42:
 234:../mindows/mds_sem.c ****         pstrTcb = MDS_SemGetActiveTask(pstrSem);
 328              		.loc 1 234 0
 329 01e4 0500A0E1 		mov	r0, r5
 330 01e8 FEFFFFEB 		bl	MDS_SemGetActiveTask
 331              	.LVL22:
 237:../mindows/mds_sem.c ****         if(NULL != pstrTcb)
ARM GAS  C:\DOCUME~1\ADMINI~1\LOCALS~1\Temp\cc1YUc9t.s 			page 13


 332              		.loc 1 237 0
 333 01ec 004050E2 		subs	r4, r0, #0
 334 01f0 2100000A 		beq	.L35
 240:../mindows/mds_sem.c ****             (void)MDS_TaskDelFromSemTab(pstrTcb);
 335              		.loc 1 240 0
 336 01f4 FEFFFFEB 		bl	MDS_TaskDelFromSemTab
 337              	.LVL23:
 243:../mindows/mds_sem.c ****             if(DELAYQUEFLAG == (pstrTcb->uiTaskFlag & DELAYQUEFLAG))
 338              		.loc 1 243 0
 339 01f8 643094E5 		ldr	r3, [r4, #100]
 340 01fc 010013E3 		tst	r3, #1
 341 0200 0500000A 		beq	.L36
 342              	.LVL24:
 246:../mindows/mds_sem.c ****                 (void)MDS_ChainCurNodeDelete(&gstrDelayTab, pstrNode);
 343              		.loc 1 246 0
 344 0204 501084E2 		add	r1, r4, #80
 345 0208 90009FE5 		ldr	r0, .L44
 346 020c FEFFFFEB 		bl	MDS_ChainCurNodeDelete
 249:../mindows/mds_sem.c ****                 pstrTcb->uiTaskFlag &= (~((U32)DELAYQUEFLAG));
 347              		.loc 1 249 0
 348 0210 641094E5 		ldr	r1, [r4, #100]
 349 0214 0100C1E3 		bic	r0, r1, #1
 350 0218 640084E5 		str	r0, [r4, #100]
 351              	.LVL25:
 352              	.L36:
 253:../mindows/mds_sem.c ****             pstrTcb->strTaskOpt.ucTaskSta &= ~((U8)TASKPEND);
 353              		.loc 1 253 0
 354 021c 6C50D4E5 		ldrb	r5, [r4, #108]	@ zero_extendqisi2
 260:../mindows/mds_sem.c ****             ucTaskPrio = pstrTcb->ucTaskPrio;
 355              		.loc 1 260 0
 356 0220 68E0D4E5 		ldrb	lr, [r4, #104]	@ zero_extendqisi2
 261:../mindows/mds_sem.c ****             pstrChain = &gstrReadyTab.astrChain[ucTaskPrio];
 357              		.loc 1 261 0
 358 0224 78009FE5 		ldr	r0, .L44+4
 253:../mindows/mds_sem.c ****             pstrTcb->strTaskOpt.ucTaskSta &= ~((U8)TASKPEND);
 359              		.loc 1 253 0
 360 0228 08C0C5E3 		bic	ip, r5, #8
 256:../mindows/mds_sem.c ****             pstrTcb->strTaskOpt.uiDelayTick = RTN_SUCD;
 361              		.loc 1 256 0
 362 022c 0050A0E3 		mov	r5, #0
 264:../mindows/mds_sem.c ****             MDS_TaskAddToSchedTab(pstrChain, pstrNode, pstrPrioFlag, ucTaskPrio);
 363              		.loc 1 264 0
 364 0230 441084E2 		add	r1, r4, #68
 365 0234 402080E2 		add	r2, r0, #64
 366 0238 0E30A0E1 		mov	r3, lr
 367 023c 8E0180E0 		add	r0, r0, lr, asl #3
 253:../mindows/mds_sem.c ****             pstrTcb->strTaskOpt.ucTaskSta &= ~((U8)TASKPEND);
 368              		.loc 1 253 0
 369 0240 6CC0C4E5 		strb	ip, [r4, #108]
 256:../mindows/mds_sem.c ****             pstrTcb->strTaskOpt.uiDelayTick = RTN_SUCD;
 370              		.loc 1 256 0
 371 0244 705084E5 		str	r5, [r4, #112]
 372              	.LVL26:
 264:../mindows/mds_sem.c ****             MDS_TaskAddToSchedTab(pstrChain, pstrNode, pstrPrioFlag, ucTaskPrio);
 373              		.loc 1 264 0
 374 0248 FEFFFFEB 		bl	MDS_TaskAddToSchedTab
 375              	.LVL27:
ARM GAS  C:\DOCUME~1\ADMINI~1\LOCALS~1\Temp\cc1YUc9t.s 			page 14


 267:../mindows/mds_sem.c ****             pstrTcb->strTaskOpt.ucTaskSta |= TASKREADY;
 376              		.loc 1 267 0
 377 024c 6CC0D4E5 		ldrb	ip, [r4, #108]	@ zero_extendqisi2
 378 0250 02208CE3 		orr	r2, ip, #2
 379 0254 6C20C4E5 		strb	r2, [r4, #108]
 269:../mindows/mds_sem.c ****             (void)MDS_IntUnlock();
 380              		.loc 1 269 0
 381 0258 FEFFFFEB 		bl	MDS_IntUnlock
 272:../mindows/mds_sem.c ****             MDS_TaskSwiSched();
 382              		.loc 1 272 0
 383 025c FEFFFFEB 		bl	MDS_TaskSwiSched
 274:../mindows/mds_sem.c ****             return uiRtn;
 384              		.loc 1 274 0
 385 0260 DBFFFFEA 		b	.L33
 386              	.LVL28:
 387              	.L43:
 297:../mindows/mds_sem.c ****             if(SEMFULL != pstrSem->uiCounter)
 388              		.loc 1 297 0
 389 0264 010073E3 		cmn	r3, #1
 300:../mindows/mds_sem.c ****                 pstrSem->uiCounter++;
 390              		.loc 1 300 0
 391 0268 01308312 		addne	r3, r3, #1
 392 026c 44308515 		strne	r3, [r5, #68]
 304:../mindows/mds_sem.c ****                 uiRtn = RTN_SMGVOV;
 393              		.loc 1 304 0
 394 0270 0250A003 		moveq	r5, #2
 226:../mindows/mds_sem.c ****     uiRtn = RTN_SUCD;
 395              		.loc 1 226 0
 396 0274 0050A013 		movne	r5, #0
 397 0278 D4FFFFEA 		b	.L38
 398              	.LVL29:
 399              	.L35:
 279:../mindows/mds_sem.c ****             if(SEMBIN == (SEMTYPEMASK & pstrSem->uiSemOpt))
 400              		.loc 1 279 0
 401 027c 481095E5 		ldr	r1, [r5, #72]
 402 0280 0C3001E2 		and	r3, r1, #12
 403 0284 040053E3 		cmp	r3, #4
 287:../mindows/mds_sem.c ****                 pstrSem->uiCounter++;
 404              		.loc 1 287 0
 405 0288 44309515 		ldrne	r3, [r5, #68]
 282:../mindows/mds_sem.c ****                 pstrSem->uiCounter = SEMFULL;
 406              		.loc 1 282 0
 407 028c 0030E003 		mvneq	r3, #0
 287:../mindows/mds_sem.c ****                 pstrSem->uiCounter++;
 408              		.loc 1 287 0
 409 0290 01308312 		addne	r3, r3, #1
 410 0294 443085E5 		str	r3, [r5, #68]
 226:../mindows/mds_sem.c ****     uiRtn = RTN_SUCD;
 411              		.loc 1 226 0
 412 0298 0450A0E1 		mov	r5, r4
 413 029c CBFFFFEA 		b	.L38
 414              	.L45:
 415              		.align	2
 416              	.L44:
 417 02a0 00000000 		.word	gstrDelayTab
 418 02a4 00000000 		.word	gstrReadyTab
 419              		.cfi_endproc
ARM GAS  C:\DOCUME~1\ADMINI~1\LOCALS~1\Temp\cc1YUc9t.s 			page 15


 420              	.LFE2:
 421              		.fnend
 422              		.size	MDS_SemGive, .-MDS_SemGive
 423              		.align	2
 424              		.global	MDS_SemFlushValue
 425              		.type	MDS_SemFlushValue, %function
 426              	MDS_SemFlushValue:
 427              		.fnstart
 428              	.LFB3:
 313:../mindows/mds_sem.c **** 
 314:../mindows/mds_sem.c **** /***********************************************************************************
 315:../mindows/mds_sem.c **** 函数功能: 释放被该信号量所阻塞的所有任务, 去掉这些任务的pend状态, 并指定被阻塞任务的
 316:../mindows/mds_sem.c ****           返回值.
 317:../mindows/mds_sem.c **** 入口参数: pstrSem: 要释放的信号量指针.
 318:../mindows/mds_sem.c ****           uiRtnValue: 指定被阻塞任务的返回值
 319:../mindows/mds_sem.c **** 返 回 值: RTN_SUCD: 释放信号量成功.
 320:../mindows/mds_sem.c ****           RTN_FAIL: 释放信号量失败.
 321:../mindows/mds_sem.c **** ***********************************************************************************/
 322:../mindows/mds_sem.c **** U32 MDS_SemFlushValue(M_SEM* pstrSem, U32 uiRtnValue)
 323:../mindows/mds_sem.c **** {
 429              		.loc 1 323 0
 430              		.cfi_startproc
 431              		@ Function supports interworking.
 432              		@ args = 0, pretend = 0, frame = 0
 433              		@ frame_needed = 1, uses_anonymous_args = 0
 434              	.LVL30:
 435              		.movsp ip
 436 02a8 0DC0A0E1 		mov	ip, sp
 437              	.LCFI6:
 438              		.cfi_def_cfa_register 12
 439 02ac F0D82DE9 		stmfd	sp!, {r4, r5, r6, r7, fp, ip, lr, pc}
 440              		.pad #4
 441              		.save {r4, r5, r6, r7, fp, ip, lr}
 324:../mindows/mds_sem.c ****     M_TCB* pstrTcb;
 325:../mindows/mds_sem.c ****     M_CHAIN* pstrChain;
 326:../mindows/mds_sem.c ****     M_CHAIN* pstrNode;
 327:../mindows/mds_sem.c ****     M_PRIOFLAG* pstrPrioFlag;
 328:../mindows/mds_sem.c ****     U8 ucTaskPrio;
 329:../mindows/mds_sem.c **** 
 330:../mindows/mds_sem.c ****     /* 入口参数检查 */
 331:../mindows/mds_sem.c ****     if(NULL == pstrSem)
 442              		.loc 1 331 0
 443 02b0 005050E2 		subs	r5, r0, #0
 444              		.cfi_offset 14, -8
 445              		.cfi_offset 13, -12
 446              		.cfi_offset 11, -16
 447              		.cfi_offset 7, -20
 448              		.cfi_offset 6, -24
 449              		.cfi_offset 5, -28
 450              		.cfi_offset 4, -32
 323:../mindows/mds_sem.c **** {
 451              		.loc 1 323 0
 452              		.setfp fp, ip, #-4
 453 02b4 04B04CE2 		sub	fp, ip, #4
 454              	.LCFI7:
 455              		.cfi_def_cfa 11, 4
 323:../mindows/mds_sem.c **** {
ARM GAS  C:\DOCUME~1\ADMINI~1\LOCALS~1\Temp\cc1YUc9t.s 			page 16


 456              		.loc 1 323 0
 457 02b8 0160A0E1 		mov	r6, r1
 332:../mindows/mds_sem.c ****     {
 333:../mindows/mds_sem.c ****         return RTN_FAIL;
 458              		.loc 1 333 0
 459 02bc 0100A003 		moveq	r0, #1
 460              	.LVL31:
 331:../mindows/mds_sem.c ****     if(NULL == pstrSem)
 461              		.loc 1 331 0
 462 02c0 2100000A 		beq	.L47
 334:../mindows/mds_sem.c ****     }
 335:../mindows/mds_sem.c **** 
 336:../mindows/mds_sem.c ****     (void)MDS_IntLock();
 463              		.loc 1 336 0
 464 02c4 FEFFFFEB 		bl	MDS_IntLock
 465              	.LVL32:
 337:../mindows/mds_sem.c **** 
 338:../mindows/mds_sem.c ****     /* 在被该信号量阻塞的任务中获取需要释放的任务 */
 339:../mindows/mds_sem.c ****     while(1)
 340:../mindows/mds_sem.c ****     {
 341:../mindows/mds_sem.c ****         pstrTcb = MDS_SemGetActiveTask(pstrSem);
 342:../mindows/mds_sem.c **** 
 343:../mindows/mds_sem.c ****         /* 有阻塞的任务, 释放任务 */
 344:../mindows/mds_sem.c ****         if(NULL != pstrTcb)
 345:../mindows/mds_sem.c ****         {
 346:../mindows/mds_sem.c ****             /* 从信号量调度表拆除该任务 */
 347:../mindows/mds_sem.c ****             (void)MDS_TaskDelFromSemTab(pstrTcb);
 348:../mindows/mds_sem.c **** 
 349:../mindows/mds_sem.c ****             /* 任务在delay表则从delay表拆除 */
 350:../mindows/mds_sem.c ****             if(DELAYQUEFLAG == (pstrTcb->uiTaskFlag & DELAYQUEFLAG))
 351:../mindows/mds_sem.c ****             {
 352:../mindows/mds_sem.c ****                 pstrNode = &pstrTcb->strDelayQue.strQueHead;
 353:../mindows/mds_sem.c ****                 (void)MDS_ChainCurNodeDelete(&gstrDelayTab, pstrNode);
 354:../mindows/mds_sem.c **** 
 355:../mindows/mds_sem.c ****                 /* 置任务不在delay表标志 */
 356:../mindows/mds_sem.c ****                 pstrTcb->uiTaskFlag &= (~((U32)DELAYQUEFLAG));
 357:../mindows/mds_sem.c ****             }
 358:../mindows/mds_sem.c **** 
 359:../mindows/mds_sem.c ****             /* 清除任务的pend状态 */
 360:../mindows/mds_sem.c ****             pstrTcb->strTaskOpt.ucTaskSta &= ~((U8)TASKPEND);
 361:../mindows/mds_sem.c **** 
 362:../mindows/mds_sem.c ****             /* 借用uiDelayTick变量保存pend任务的返回值 */
 363:../mindows/mds_sem.c ****             pstrTcb->strTaskOpt.uiDelayTick = uiRtnValue;
 364:../mindows/mds_sem.c **** 
 365:../mindows/mds_sem.c ****             /* 将该任务添加到ready表中 */
 366:../mindows/mds_sem.c ****             pstrNode = &pstrTcb->strTcbQue.strQueHead;
 367:../mindows/mds_sem.c ****             ucTaskPrio = pstrTcb->ucTaskPrio;
 368:../mindows/mds_sem.c ****             pstrChain = &gstrReadyTab.astrChain[ucTaskPrio];
 466              		.loc 1 368 0
 467 02c8 88709FE5 		ldr	r7, .L52
 468 02cc 0B0000EA 		b	.L50
 469              	.LVL33:
 470              	.L49:
 360:../mindows/mds_sem.c ****             pstrTcb->strTaskOpt.ucTaskSta &= ~((U8)TASKPEND);
 471              		.loc 1 360 0
 472 02d0 6C00D4E5 		ldrb	r0, [r4, #108]	@ zero_extendqisi2
 367:../mindows/mds_sem.c ****             ucTaskPrio = pstrTcb->ucTaskPrio;
ARM GAS  C:\DOCUME~1\ADMINI~1\LOCALS~1\Temp\cc1YUc9t.s 			page 17


 473              		.loc 1 367 0
 474 02d4 6830D4E5 		ldrb	r3, [r4, #104]	@ zero_extendqisi2
 360:../mindows/mds_sem.c ****             pstrTcb->strTaskOpt.ucTaskSta &= ~((U8)TASKPEND);
 475              		.loc 1 360 0
 476 02d8 08E0C0E3 		bic	lr, r0, #8
 369:../mindows/mds_sem.c ****             pstrPrioFlag = &gstrReadyTab.strFlag;
 370:../mindows/mds_sem.c **** 
 371:../mindows/mds_sem.c ****             MDS_TaskAddToSchedTab(pstrChain, pstrNode, pstrPrioFlag, ucTaskPrio);
 477              		.loc 1 371 0
 478 02dc 78209FE5 		ldr	r2, .L52+4
 360:../mindows/mds_sem.c ****             pstrTcb->strTaskOpt.ucTaskSta &= ~((U8)TASKPEND);
 479              		.loc 1 360 0
 480 02e0 6CE0C4E5 		strb	lr, [r4, #108]
 363:../mindows/mds_sem.c ****             pstrTcb->strTaskOpt.uiDelayTick = uiRtnValue;
 481              		.loc 1 363 0
 482 02e4 706084E5 		str	r6, [r4, #112]
 483              	.LVL34:
 484              		.loc 1 371 0
 485 02e8 830187E0 		add	r0, r7, r3, asl #3
 486 02ec 441084E2 		add	r1, r4, #68
 487 02f0 FEFFFFEB 		bl	MDS_TaskAddToSchedTab
 488              	.LVL35:
 372:../mindows/mds_sem.c **** 
 373:../mindows/mds_sem.c ****             /* 增加任务的ready状态 */
 374:../mindows/mds_sem.c ****             pstrTcb->strTaskOpt.ucTaskSta |= TASKREADY;
 489              		.loc 1 374 0
 490 02f4 6CC0D4E5 		ldrb	ip, [r4, #108]	@ zero_extendqisi2
 491 02f8 02208CE3 		orr	r2, ip, #2
 492 02fc 6C20C4E5 		strb	r2, [r4, #108]
 493              	.LVL36:
 494              	.L50:
 341:../mindows/mds_sem.c ****         pstrTcb = MDS_SemGetActiveTask(pstrSem);
 495              		.loc 1 341 0
 496 0300 0500A0E1 		mov	r0, r5
 497 0304 FEFFFFEB 		bl	MDS_SemGetActiveTask
 498              	.LVL37:
 344:../mindows/mds_sem.c ****         if(NULL != pstrTcb)
 499              		.loc 1 344 0
 500 0308 004050E2 		subs	r4, r0, #0
 501 030c 0A00000A 		beq	.L48
 347:../mindows/mds_sem.c ****             (void)MDS_TaskDelFromSemTab(pstrTcb);
 502              		.loc 1 347 0
 503 0310 FEFFFFEB 		bl	MDS_TaskDelFromSemTab
 504              	.LVL38:
 350:../mindows/mds_sem.c ****             if(DELAYQUEFLAG == (pstrTcb->uiTaskFlag & DELAYQUEFLAG))
 505              		.loc 1 350 0
 506 0314 643094E5 		ldr	r3, [r4, #100]
 507 0318 010013E3 		tst	r3, #1
 508 031c EBFFFF0A 		beq	.L49
 509              	.LVL39:
 353:../mindows/mds_sem.c ****                 (void)MDS_ChainCurNodeDelete(&gstrDelayTab, pstrNode);
 510              		.loc 1 353 0
 511 0320 501084E2 		add	r1, r4, #80
 512 0324 34009FE5 		ldr	r0, .L52+8
 513 0328 FEFFFFEB 		bl	MDS_ChainCurNodeDelete
 356:../mindows/mds_sem.c ****                 pstrTcb->uiTaskFlag &= (~((U32)DELAYQUEFLAG));
 514              		.loc 1 356 0
ARM GAS  C:\DOCUME~1\ADMINI~1\LOCALS~1\Temp\cc1YUc9t.s 			page 18


 515 032c 641094E5 		ldr	r1, [r4, #100]
 516 0330 0100C1E3 		bic	r0, r1, #1
 517 0334 640084E5 		str	r0, [r4, #100]
 518 0338 E4FFFFEA 		b	.L49
 519              	.LVL40:
 520              	.L48:
 375:../mindows/mds_sem.c ****         }
 376:../mindows/mds_sem.c ****         else /* 没有阻塞的任务, 跳出循环操作 */
 377:../mindows/mds_sem.c ****         {
 378:../mindows/mds_sem.c ****             break;
 379:../mindows/mds_sem.c ****         }
 380:../mindows/mds_sem.c ****     }
 381:../mindows/mds_sem.c **** 
 382:../mindows/mds_sem.c ****     /* 将信号量置为空 */
 383:../mindows/mds_sem.c ****     pstrSem->uiCounter = SEMEMPTY;
 521              		.loc 1 383 0
 522 033c 444085E5 		str	r4, [r5, #68]
 384:../mindows/mds_sem.c **** 
 385:../mindows/mds_sem.c ****     (void)MDS_IntUnlock();
 523              		.loc 1 385 0
 524 0340 FEFFFFEB 		bl	MDS_IntUnlock
 386:../mindows/mds_sem.c **** 
 387:../mindows/mds_sem.c ****     /* 使用软中断调度任务 */
 388:../mindows/mds_sem.c ****     MDS_TaskSwiSched();
 525              		.loc 1 388 0
 526 0344 FEFFFFEB 		bl	MDS_TaskSwiSched
 389:../mindows/mds_sem.c **** 
 390:../mindows/mds_sem.c ****     return RTN_SUCD;
 527              		.loc 1 390 0
 528 0348 0400A0E1 		mov	r0, r4
 529              	.LVL41:
 530              	.L47:
 391:../mindows/mds_sem.c **** }
 531              		.loc 1 391 0
 532 034c 1CD04BE2 		sub	sp, fp, #28
 533 0350 F0689DE8 		ldmfd	sp, {r4, r5, r6, r7, fp, sp, lr}
 534 0354 1EFF2FE1 		bx	lr
 535              	.L53:
 536              		.align	2
 537              	.L52:
 538 0358 00000000 		.word	gstrReadyTab
 539 035c 40000000 		.word	gstrReadyTab+64
 540 0360 00000000 		.word	gstrDelayTab
 541              		.cfi_endproc
 542              	.LFE3:
 543              		.fnend
 544              		.size	MDS_SemFlushValue, .-MDS_SemFlushValue
 545              		.align	2
 546              		.global	MDS_SemFlush
 547              		.type	MDS_SemFlush, %function
 548              	MDS_SemFlush:
 549              		.fnstart
 550              	.LFB4:
 392:../mindows/mds_sem.c **** 
 393:../mindows/mds_sem.c **** /***********************************************************************************
 394:../mindows/mds_sem.c **** 函数功能: 释放被该信号量所阻塞的所有任务, 去掉这些任务的pend状态.
 395:../mindows/mds_sem.c **** 入口参数: pstrSem: 要释放的信号量指针.
ARM GAS  C:\DOCUME~1\ADMINI~1\LOCALS~1\Temp\cc1YUc9t.s 			page 19


 396:../mindows/mds_sem.c **** 返 回 值: RTN_SUCD: 释放信号量成功.
 397:../mindows/mds_sem.c ****           RTN_FAIL: 释放信号量失败.
 398:../mindows/mds_sem.c **** ***********************************************************************************/
 399:../mindows/mds_sem.c **** U32 MDS_SemFlush(M_SEM* pstrSem)
 400:../mindows/mds_sem.c **** {
 551              		.loc 1 400 0
 552              		.cfi_startproc
 553              		@ Function supports interworking.
 554              		@ args = 0, pretend = 0, frame = 0
 555              		@ frame_needed = 0, uses_anonymous_args = 0
 556              		@ link register save eliminated.
 557              	.LVL42:
 401:../mindows/mds_sem.c ****     /* 释放信号量所阻塞的所有任务, 被MDS_SemFlush释放的阻塞任务返回成功 */
 402:../mindows/mds_sem.c ****     return MDS_SemFlushValue(pstrSem, RTN_SUCD);
 558              		.loc 1 402 0
 559 0364 0010A0E3 		mov	r1, #0
 403:../mindows/mds_sem.c **** }
 560              		.loc 1 403 0
 402:../mindows/mds_sem.c ****     return MDS_SemFlushValue(pstrSem, RTN_SUCD);
 561              		.loc 1 402 0
 562 0368 FEFFFFEA 		b	MDS_SemFlushValue
 563              		.cfi_endproc
 564              	.LFE4:
 565              		.fnend
 566              		.size	MDS_SemFlush, .-MDS_SemFlush
 567              		.align	2
 568              		.global	MDS_SemDelete
 569              		.type	MDS_SemDelete, %function
 570              	MDS_SemDelete:
 571              		.fnstart
 572              	.LFB5:
 404:../mindows/mds_sem.c **** 
 405:../mindows/mds_sem.c **** /***********************************************************************************
 406:../mindows/mds_sem.c **** 函数功能: 删除一个信号量.
 407:../mindows/mds_sem.c **** 入口参数: pstrSem: 要删除的信号量指针.
 408:../mindows/mds_sem.c **** 返 回 值: RTN_SUCD: 删除信号量成功.
 409:../mindows/mds_sem.c ****           RTN_FAIL: 删除信号量失败.
 410:../mindows/mds_sem.c **** ***********************************************************************************/
 411:../mindows/mds_sem.c **** U32 MDS_SemDelete(M_SEM* pstrSem)
 412:../mindows/mds_sem.c **** {
 573              		.loc 1 412 0
 574              		.cfi_startproc
 575              		@ Function supports interworking.
 576              		@ args = 0, pretend = 0, frame = 0
 577              		@ frame_needed = 1, uses_anonymous_args = 0
 578              	.LVL43:
 579              		.movsp ip
 580 036c 0DC0A0E1 		mov	ip, sp
 581              	.LCFI8:
 582              		.cfi_def_cfa_register 12
 413:../mindows/mds_sem.c ****     /* 入口参数检查 */
 414:../mindows/mds_sem.c ****     if(NULL == pstrSem)
 583              		.loc 1 414 0
 584 0370 000050E3 		cmp	r0, #0
 412:../mindows/mds_sem.c **** {
 585              		.loc 1 412 0
 586 0374 00D82DE9 		stmfd	sp!, {fp, ip, lr, pc}
ARM GAS  C:\DOCUME~1\ADMINI~1\LOCALS~1\Temp\cc1YUc9t.s 			page 20


 587              		.pad #4
 588              		.save {fp, ip, lr}
 415:../mindows/mds_sem.c ****     {
 416:../mindows/mds_sem.c ****         return RTN_FAIL;
 589              		.loc 1 416 0
 590 0378 0100A003 		moveq	r0, #1
 591              	.LVL44:
 412:../mindows/mds_sem.c **** {
 592              		.loc 1 412 0
 593              		.setfp fp, ip, #-4
 594 037c 04B04CE2 		sub	fp, ip, #4
 595              		.cfi_offset 14, -8
 596              		.cfi_offset 13, -12
 597              		.cfi_offset 11, -16
 598              	.LCFI9:
 599              		.cfi_def_cfa 11, 4
 414:../mindows/mds_sem.c ****     if(NULL == pstrSem)
 600              		.loc 1 414 0
 601 0380 0300000A 		beq	.L56
 417:../mindows/mds_sem.c ****     }
 418:../mindows/mds_sem.c **** 
 419:../mindows/mds_sem.c ****     /* 释放信号量所阻塞的所有任务, 被MDS_SemDelete释放的阻塞任务返回信号量被删除 */
 420:../mindows/mds_sem.c ****     if(RTN_SUCD != MDS_SemFlushValue(pstrSem, RTN_SMTKDL))
 602              		.loc 1 420 0
 603 0384 0410A0E3 		mov	r1, #4
 604 0388 FEFFFFEB 		bl	MDS_SemFlushValue
 416:../mindows/mds_sem.c ****         return RTN_FAIL;
 605              		.loc 1 416 0
 606 038c 000050E2 		subs	r0, r0, #0
 607 0390 0100A013 		movne	r0, #1
 608              	.L56:
 421:../mindows/mds_sem.c ****     {
 422:../mindows/mds_sem.c ****         return RTN_FAIL;
 423:../mindows/mds_sem.c ****     }
 424:../mindows/mds_sem.c **** 
 425:../mindows/mds_sem.c ****     return RTN_SUCD;
 426:../mindows/mds_sem.c **** }
 609              		.loc 1 426 0
 610 0394 0CD04BE2 		sub	sp, fp, #12
 611 0398 00689DE8 		ldmfd	sp, {fp, sp, lr}
 612 039c 1EFF2FE1 		bx	lr
 613              		.cfi_endproc
 614              	.LFE5:
 615              		.fnend
 616              		.size	MDS_SemDelete, .-MDS_SemDelete
 617              	.Letext0:
 2200              		.section	.note.GNU-stack,"",%progbits
ARM GAS  C:\DOCUME~1\ADMINI~1\LOCALS~1\Temp\cc1YUc9t.s 			page 52

