ARM GAS  C:\DOCUME~1\ADMINI~1\LOCALS~1\Temp\cc1Hp51A.s 			page 1


   1              		.cpu arm7tdmi
   2              		.fpu softvfp
   3              		.eabi_attribute 20, 1
   4              		.eabi_attribute 21, 1
   5              		.eabi_attribute 23, 3
   6              		.eabi_attribute 24, 1
   7              		.eabi_attribute 25, 1
   8              		.eabi_attribute 26, 2
   9              		.eabi_attribute 30, 2
  10              		.eabi_attribute 18, 4
  11              		.file	"mds_core_c.c"
  12              		.section	.debug_abbrev,"",%progbits
  13              	.Ldebug_abbrev0:
  14              		.section	.debug_info,"",%progbits
  15              	.Ldebug_info0:
  16              		.section	.debug_line,"",%progbits
  17              	.Ldebug_line0:
  18 0000 32040000 		.text
  18      02007600 
  18      00000201 
  18      FB0E0D00 
  18      01010101 
  19              	.Ltext0:
  20              		.cfi_sections	.debug_frame
  21              		.align	2
  22              		.global	MDS_TickTimerInit
  23              		.type	MDS_TickTimerInit, %function
  24              	MDS_TickTimerInit:
  25              		.fnstart
  26              	.LFB1:
  27              		.file 1 "../mindows/mds_core_c.c"
   1:../mindows/mds_core_c.c **** 
   2:../mindows/mds_core_c.c **** #include "mindows_inner.h"
   3:../mindows/mds_core_c.c **** 
   4:../mindows/mds_core_c.c **** 
   5:../mindows/mds_core_c.c **** M_TASKSCHEDTAB gstrReadyTab;            /* 任务就绪表 */
   6:../mindows/mds_core_c.c **** M_CHAIN gstrDelayTab;                   /* 任务延迟表 */
   7:../mindows/mds_core_c.c **** 
   8:../mindows/mds_core_c.c **** U32 guiTick;                            /* 操作系统的tick变量 */
   9:../mindows/mds_core_c.c **** 
  10:../mindows/mds_core_c.c **** STACKREG* gpstrCurTaskSpAddr;           /* 当前运行的任务的寄存器组指针, 用于从C传递
  11:../mindows/mds_core_c.c ****                                            到汇编 */
  12:../mindows/mds_core_c.c **** STACKREG* gpstrNextTaskSpAddr;          /* 将要运行的任务的寄存器组指针, 用于从C传递
  13:../mindows/mds_core_c.c ****                                            到汇编 */
  14:../mindows/mds_core_c.c **** 
  15:../mindows/mds_core_c.c **** M_TCB* gpstrCurTcb;                     /* 当前运行的任务的TCB指针 */
  16:../mindows/mds_core_c.c **** M_TCB* gpstrRootTaskTcb;                /* root任务TCB指针 */
  17:../mindows/mds_core_c.c **** M_TCB* gpstrIdleTaskTcb;                /* idle任务TCB指针 */
  18:../mindows/mds_core_c.c **** 
  19:../mindows/mds_core_c.c **** U32 guiIntLockCounter;                  /* 锁中断计数值 */
  20:../mindows/mds_core_c.c **** 
  21:../mindows/mds_core_c.c **** const U8 caucTaskPrioUnmapTab[256] =    /* 优先级反向查找表 */
  22:../mindows/mds_core_c.c **** {
  23:../mindows/mds_core_c.c ****     0, 0, 1, 0, 2, 0, 1, 0, 3, 0, 1, 0, 2, 0, 1, 0,
  24:../mindows/mds_core_c.c ****     4, 0, 1, 0, 2, 0, 1, 0, 3, 0, 1, 0, 2, 0, 1, 0,
  25:../mindows/mds_core_c.c ****     5, 0, 1, 0, 2, 0, 1, 0, 3, 0, 1, 0, 2, 0, 1, 0,
  26:../mindows/mds_core_c.c ****     4, 0, 1, 0, 2, 0, 1, 0, 3, 0, 1, 0, 2, 0, 1, 0,
ARM GAS  C:\DOCUME~1\ADMINI~1\LOCALS~1\Temp\cc1Hp51A.s 			page 2


  27:../mindows/mds_core_c.c ****     6, 0, 1, 0, 2, 0, 1, 0, 3, 0, 1, 0, 2, 0, 1, 0,
  28:../mindows/mds_core_c.c ****     4, 0, 1, 0, 2, 0, 1, 0, 3, 0, 1, 0, 2, 0, 1, 0,
  29:../mindows/mds_core_c.c ****     5, 0, 1, 0, 2, 0, 1, 0, 3, 0, 1, 0, 2, 0, 1, 0,
  30:../mindows/mds_core_c.c ****     4, 0, 1, 0, 2, 0, 1, 0, 3, 0, 1, 0, 2, 0, 1, 0,
  31:../mindows/mds_core_c.c ****     7, 0, 1, 0, 2, 0, 1, 0, 3, 0, 1, 0, 2, 0, 1, 0,
  32:../mindows/mds_core_c.c ****     4, 0, 1, 0, 2, 0, 1, 0, 3, 0, 1, 0, 2, 0, 1, 0,
  33:../mindows/mds_core_c.c ****     5, 0, 1, 0, 2, 0, 1, 0, 3, 0, 1, 0, 2, 0, 1, 0,
  34:../mindows/mds_core_c.c ****     4, 0, 1, 0, 2, 0, 1, 0, 3, 0, 1, 0, 2, 0, 1, 0,
  35:../mindows/mds_core_c.c ****     6, 0, 1, 0, 2, 0, 1, 0, 3, 0, 1, 0, 2, 0, 1, 0,
  36:../mindows/mds_core_c.c ****     4, 0, 1, 0, 2, 0, 1, 0, 3, 0, 1, 0, 2, 0, 1, 0,
  37:../mindows/mds_core_c.c ****     5, 0, 1, 0, 2, 0, 1, 0, 3, 0, 1, 0, 2, 0, 1, 0,
  38:../mindows/mds_core_c.c ****     4, 0, 1, 0, 2, 0, 1, 0, 3, 0, 1, 0, 2, 0, 1, 0
  39:../mindows/mds_core_c.c **** };
  40:../mindows/mds_core_c.c **** 
  41:../mindows/mds_core_c.c **** 
  42:../mindows/mds_core_c.c **** /***********************************************************************************
  43:../mindows/mds_core_c.c **** 函数功能: 主函数, C程序从此函数开始运行. 该函数创建系统任务并从非任务状态切换到root
  44:../mindows/mds_core_c.c ****           任务运行.
  45:../mindows/mds_core_c.c **** 入口参数: none.
  46:../mindows/mds_core_c.c **** 返 回 值: none.
  47:../mindows/mds_core_c.c **** ***********************************************************************************/
  48:../mindows/mds_core_c.c **** S32 main(void)
  49:../mindows/mds_core_c.c **** {
  50:../mindows/mds_core_c.c ****     /* 初始化系统变量 */
  51:../mindows/mds_core_c.c ****     MDS_SystemVarInit();
  52:../mindows/mds_core_c.c **** 
  53:../mindows/mds_core_c.c ****     /* 创建根任务 */
  54:../mindows/mds_core_c.c ****     gpstrRootTaskTcb = MDS_TaskCreate((U8*)"Root", (VFUNC)MDS_RootTask,
  55:../mindows/mds_core_c.c ****                    gaucRootTaskStack, ROOTTASKSTACK, HIGHESTPRIO, (M_TASKOPT*)NULL);
  56:../mindows/mds_core_c.c **** 
  57:../mindows/mds_core_c.c ****     /* 创建空闲任务 */
  58:../mindows/mds_core_c.c ****     gpstrIdleTaskTcb = MDS_TaskCreate((U8*)"Idle", (VFUNC)MDS_IdleTask,
  59:../mindows/mds_core_c.c ****                     gaucIdleTaskStack, IDLETASKSTACK, LOWESTPRIO, (M_TASKOPT*)NULL);
  60:../mindows/mds_core_c.c **** 
  61:../mindows/mds_core_c.c ****     /* 开始任务调度, 从根任务开始执行 */
  62:../mindows/mds_core_c.c ****     MDS_TaskStart(gpstrRootTaskTcb);
  63:../mindows/mds_core_c.c **** 
  64:../mindows/mds_core_c.c ****     return 0;
  65:../mindows/mds_core_c.c **** }
  66:../mindows/mds_core_c.c **** 
  67:../mindows/mds_core_c.c **** /***********************************************************************************
  68:../mindows/mds_core_c.c **** 函数功能: 初始化tick定时器.
  69:../mindows/mds_core_c.c **** 入口参数: vfFuncPointer: 初始化tick时钟的函数指针.
  70:../mindows/mds_core_c.c **** 返 回 值: RTN_SUCD: 初始化tick时钟成功.
  71:../mindows/mds_core_c.c ****           RTN_FAIL: 初始化tick时钟失败.
  72:../mindows/mds_core_c.c **** ***********************************************************************************/
  73:../mindows/mds_core_c.c **** U32 MDS_TickTimerInit(VFUNC vfFuncPointer)
  74:../mindows/mds_core_c.c **** {
  28              		.loc 1 74 0
  29              		.cfi_startproc
  30              		@ Function supports interworking.
  31              		@ args = 0, pretend = 0, frame = 0
  32              		@ frame_needed = 1, uses_anonymous_args = 0
  33              	.LVL0:
  34              		.movsp ip
  35 0000 0DC0A0E1 		mov	ip, sp
  36              	.LCFI0:
ARM GAS  C:\DOCUME~1\ADMINI~1\LOCALS~1\Temp\cc1Hp51A.s 			page 3


  37              		.cfi_def_cfa_register 12
  75:../mindows/mds_core_c.c ****     /* 入口参数检查 */
  76:../mindows/mds_core_c.c ****     if(NULL == vfFuncPointer)
  38              		.loc 1 76 0
  39 0004 000050E3 		cmp	r0, #0
  74:../mindows/mds_core_c.c **** {
  40              		.loc 1 74 0
  41 0008 00D82DE9 		stmfd	sp!, {fp, ip, lr, pc}
  42              		.pad #4
  43              		.save {fp, ip, lr}
  77:../mindows/mds_core_c.c ****     {
  78:../mindows/mds_core_c.c ****         return RTN_FAIL;
  44              		.loc 1 78 0
  45 000c 0100A003 		moveq	r0, #1
  46              	.LVL1:
  74:../mindows/mds_core_c.c **** {
  47              		.loc 1 74 0
  48              		.setfp fp, ip, #-4
  49 0010 04B04CE2 		sub	fp, ip, #4
  50              		.cfi_offset 14, -8
  51              		.cfi_offset 13, -12
  52              		.cfi_offset 11, -16
  53              	.LCFI1:
  54              		.cfi_def_cfa 11, 4
  76:../mindows/mds_core_c.c ****     if(NULL == vfFuncPointer)
  55              		.loc 1 76 0
  56 0014 0200000A 		beq	.L2
  79:../mindows/mds_core_c.c ****     }
  80:../mindows/mds_core_c.c **** 
  81:../mindows/mds_core_c.c ****     /* 初始化tick系统时钟 */
  82:../mindows/mds_core_c.c ****     vfFuncPointer();
  57              		.loc 1 82 0
  58 0018 0FE0A0E1 		mov	lr, pc
  59 001c 10FF2FE1 		bx	r0
  83:../mindows/mds_core_c.c **** 
  84:../mindows/mds_core_c.c ****     return RTN_SUCD;
  60              		.loc 1 84 0
  61 0020 0000A0E3 		mov	r0, #0
  62              	.L2:
  85:../mindows/mds_core_c.c **** }
  63              		.loc 1 85 0
  64 0024 0CD04BE2 		sub	sp, fp, #12
  65 0028 00689DE8 		ldmfd	sp, {fp, sp, lr}
  66 002c 1EFF2FE1 		bx	lr
  67              		.cfi_endproc
  68              	.LFE1:
  69              		.fnend
  70              		.size	MDS_TickTimerInit, .-MDS_TickTimerInit
  71              		.align	2
  72              		.global	MDS_SystemVarInit
  73              		.type	MDS_SystemVarInit, %function
  74              	MDS_SystemVarInit:
  75              		.fnstart
  76              	.LFB2:
  86:../mindows/mds_core_c.c **** 
  87:../mindows/mds_core_c.c **** /***********************************************************************************
  88:../mindows/mds_core_c.c **** 函数功能: 初始化系统变量.
ARM GAS  C:\DOCUME~1\ADMINI~1\LOCALS~1\Temp\cc1Hp51A.s 			page 4


  89:../mindows/mds_core_c.c **** 入口参数: none.
  90:../mindows/mds_core_c.c **** 返 回 值: none.
  91:../mindows/mds_core_c.c **** ***********************************************************************************/
  92:../mindows/mds_core_c.c **** void MDS_SystemVarInit(void)
  93:../mindows/mds_core_c.c **** {
  77              		.loc 1 93 0
  78              		.cfi_startproc
  79              		@ Function supports interworking.
  80              		@ args = 0, pretend = 0, frame = 0
  81              		@ frame_needed = 1, uses_anonymous_args = 0
  82              		.movsp ip
  83 0030 0DC0A0E1 		mov	ip, sp
  84              	.LCFI2:
  85              		.cfi_def_cfa_register 12
  86 0034 18D82DE9 		stmfd	sp!, {r3, r4, fp, ip, lr, pc}
  87              		.pad #4
  88              		.save {r3, r4, fp, ip, lr}
  94:../mindows/mds_core_c.c ****     /* 将当前运行任务, root任务和idle任务的TCB初始化为NULL */
  95:../mindows/mds_core_c.c ****     gpstrCurTcb = (M_TCB*)NULL;
  89              		.loc 1 95 0
  90 0038 8C209FE5 		ldr	r2, .L6
  96:../mindows/mds_core_c.c ****     gpstrRootTaskTcb = (M_TCB*)NULL;
  91              		.loc 1 96 0
  92 003c 8CE09FE5 		ldr	lr, .L6+4
  93              		.cfi_offset 14, -8
  94              		.cfi_offset 13, -12
  95              		.cfi_offset 11, -16
  96              		.cfi_offset 4, -20
  97              		.cfi_offset 3, -24
  97:../mindows/mds_core_c.c ****     gpstrIdleTaskTcb = (M_TCB*)NULL;
  98:../mindows/mds_core_c.c **** 
  99:../mindows/mds_core_c.c ****     /* 初始化tick从0开始 */
 100:../mindows/mds_core_c.c ****     guiTick = 0;
  98              		.loc 1 100 0
  99 0040 8C109FE5 		ldr	r1, .L6+8
 101:../mindows/mds_core_c.c **** 
 102:../mindows/mds_core_c.c ****     /* 初始化锁中断计数为0 */
 103:../mindows/mds_core_c.c ****     guiIntLockCounter = 0;
 100              		.loc 1 103 0
 101 0044 8C009FE5 		ldr	r0, .L6+12
  95:../mindows/mds_core_c.c ****     gpstrCurTcb = (M_TCB*)NULL;
 102              		.loc 1 95 0
 103 0048 0040A0E3 		mov	r4, #0
  93:../mindows/mds_core_c.c **** {
 104              		.loc 1 93 0
 105              		.setfp fp, ip, #-4
 106 004c 04B04CE2 		sub	fp, ip, #4
 107              	.LCFI3:
 108              		.cfi_def_cfa 11, 4
  97:../mindows/mds_core_c.c ****     gpstrIdleTaskTcb = (M_TCB*)NULL;
 109              		.loc 1 97 0
 110 0050 84C09FE5 		ldr	ip, .L6+16
  95:../mindows/mds_core_c.c ****     gpstrCurTcb = (M_TCB*)NULL;
 111              		.loc 1 95 0
 112 0054 004082E5 		str	r4, [r2, #0]
  96:../mindows/mds_core_c.c ****     gpstrRootTaskTcb = (M_TCB*)NULL;
 113              		.loc 1 96 0
ARM GAS  C:\DOCUME~1\ADMINI~1\LOCALS~1\Temp\cc1Hp51A.s 			page 5


 114 0058 00408EE5 		str	r4, [lr, #0]
 100:../mindows/mds_core_c.c ****     guiTick = 0;
 115              		.loc 1 100 0
 116 005c 004081E5 		str	r4, [r1, #0]
 117              		.loc 1 103 0
 118 0060 004080E5 		str	r4, [r0, #0]
  97:../mindows/mds_core_c.c ****     gpstrIdleTaskTcb = (M_TCB*)NULL;
 119              		.loc 1 97 0
 120 0064 00408CE5 		str	r4, [ip, #0]
 104:../mindows/mds_core_c.c **** 
 105:../mindows/mds_core_c.c **** #ifdef MDS_INCLUDETASKHOOK
 106:../mindows/mds_core_c.c **** 
 107:../mindows/mds_core_c.c ****     /* 初始化钩子函数 */
 108:../mindows/mds_core_c.c ****     MDS_TaskHookInit();
 121              		.loc 1 108 0
 122 0068 FEFFFFEB 		bl	MDS_TaskHookInit
 123              	.LVL2:
 124              	.LBB94:
 125              	.LBB95:
 126              	.LBB96:
 127              	.LBB97:
 109:../mindows/mds_core_c.c **** 
 110:../mindows/mds_core_c.c **** #endif
 111:../mindows/mds_core_c.c **** 
 112:../mindows/mds_core_c.c ****     /* 初始化任务ready表 */
 113:../mindows/mds_core_c.c ****     MDS_TaskSchedTabInit(&gstrReadyTab);
 114:../mindows/mds_core_c.c **** 
 115:../mindows/mds_core_c.c ****     /* 初始化任务delay表 */
 116:../mindows/mds_core_c.c ****     MDS_ChainInit(&gstrDelayTab);
 117:../mindows/mds_core_c.c **** }
 118:../mindows/mds_core_c.c **** 
 119:../mindows/mds_core_c.c **** /***********************************************************************************
 120:../mindows/mds_core_c.c **** 函数功能: tick中断调度任务函数.
 121:../mindows/mds_core_c.c **** 入口参数: none.
 122:../mindows/mds_core_c.c **** 返 回 值: none.
 123:../mindows/mds_core_c.c **** ***********************************************************************************/
 124:../mindows/mds_core_c.c **** void MDS_TaskTick(void)
 125:../mindows/mds_core_c.c **** {
 126:../mindows/mds_core_c.c ****     /* 每个tick中断tick计数加1 */
 127:../mindows/mds_core_c.c ****     guiTick++;
 128:../mindows/mds_core_c.c **** 
 129:../mindows/mds_core_c.c ****     /* 调度任务 */
 130:../mindows/mds_core_c.c ****     MDS_TaskSched();
 131:../mindows/mds_core_c.c **** }
 132:../mindows/mds_core_c.c **** 
 133:../mindows/mds_core_c.c **** /***********************************************************************************
 134:../mindows/mds_core_c.c **** 函数功能: 为发生的任务切换做准备, 更新任务切换过程中汇编函数所使用的变量.
 135:../mindows/mds_core_c.c **** 入口参数: pstrTcb: 即将运行的任务的TCB指针.
 136:../mindows/mds_core_c.c **** 返 回 值: none.
 137:../mindows/mds_core_c.c **** ***********************************************************************************/
 138:../mindows/mds_core_c.c **** void MDS_TaskSwitch(M_TCB* pstrTcb)
 139:../mindows/mds_core_c.c **** {
 140:../mindows/mds_core_c.c ****     /* 保存当前任务的TCB备份寄存器组地址, 在汇编语言可以通过这个变量找到任务的备份寄
 141:../mindows/mds_core_c.c ****        存器组地址 */
 142:../mindows/mds_core_c.c ****     gpstrCurTaskSpAddr = &gpstrCurTcb->strStackReg;
 143:../mindows/mds_core_c.c **** 
 144:../mindows/mds_core_c.c ****     /* 保存即将运行任务的TCB备份寄存器组地址, 在汇编语言可以通过这个变量找到任务的备
ARM GAS  C:\DOCUME~1\ADMINI~1\LOCALS~1\Temp\cc1Hp51A.s 			page 6


 145:../mindows/mds_core_c.c ****        份寄存器组地址 */
 146:../mindows/mds_core_c.c ****     gpstrNextTaskSpAddr = &pstrTcb->strStackReg;
 147:../mindows/mds_core_c.c **** 
 148:../mindows/mds_core_c.c ****     /* 保存即将运行任务的TCB指针 */
 149:../mindows/mds_core_c.c ****     gpstrCurTcb = pstrTcb;
 150:../mindows/mds_core_c.c **** }
 151:../mindows/mds_core_c.c **** 
 152:../mindows/mds_core_c.c **** /***********************************************************************************
 153:../mindows/mds_core_c.c **** 函数功能: 开始进入任务调度.
 154:../mindows/mds_core_c.c **** 入口参数: pstrTcb: 即将运行的任务的TCB指针.
 155:../mindows/mds_core_c.c **** 返 回 值: none.
 156:../mindows/mds_core_c.c **** ***********************************************************************************/
 157:../mindows/mds_core_c.c **** void MDS_TaskStart(M_TCB* pstrTcb)
 158:../mindows/mds_core_c.c **** {
 159:../mindows/mds_core_c.c ****     /* 保存即将运行任务堆栈指针的地址, 在汇编语言可以通过这个变量获取任务切换后新任
 160:../mindows/mds_core_c.c ****        务的堆栈地址 */
 161:../mindows/mds_core_c.c ****     gpstrNextTaskSpAddr = &pstrTcb->strStackReg;
 162:../mindows/mds_core_c.c **** 
 163:../mindows/mds_core_c.c ****     /* 保存即将运行任务的TCB指针 */
 164:../mindows/mds_core_c.c ****     gpstrCurTcb = pstrTcb;
 165:../mindows/mds_core_c.c **** 
 166:../mindows/mds_core_c.c ****     MDS_SwitchToTask();
 167:../mindows/mds_core_c.c **** }
 168:../mindows/mds_core_c.c **** 
 169:../mindows/mds_core_c.c **** /***********************************************************************************
 170:../mindows/mds_core_c.c **** 函数功能: 初始化任务调度表.
 171:../mindows/mds_core_c.c **** 入口参数: pstrSchedTab: 调度表指针.
 172:../mindows/mds_core_c.c **** 返 回 值: none.
 173:../mindows/mds_core_c.c **** ***********************************************************************************/
 174:../mindows/mds_core_c.c **** void MDS_TaskSchedTabInit(M_TASKSCHEDTAB* pstrSchedTab)
 175:../mindows/mds_core_c.c **** {
 176:../mindows/mds_core_c.c ****     U32 i;
 177:../mindows/mds_core_c.c **** 
 178:../mindows/mds_core_c.c ****     /* 初始化每个优先级的任务ready链表 */
 179:../mindows/mds_core_c.c ****     for(i = 0; i < PRIORITYNUM; i++)
 180:../mindows/mds_core_c.c ****     {
 181:../mindows/mds_core_c.c ****         MDS_ChainInit(&pstrSchedTab->astrChain[i]);
 182:../mindows/mds_core_c.c ****     }
 183:../mindows/mds_core_c.c **** 
 184:../mindows/mds_core_c.c ****     /* 初始化ready表优先级标志 */
 185:../mindows/mds_core_c.c **** #if PRIORITYNUM >= PRIORITY128
 186:../mindows/mds_core_c.c **** 
 187:../mindows/mds_core_c.c ****     for(i = 0; i < PRIOFLAGGRP1; i++)
 188:../mindows/mds_core_c.c ****     {
 189:../mindows/mds_core_c.c ****         pstrSchedTab->strFlag.aucPrioFlagGrp1[i] = 0;
 190:../mindows/mds_core_c.c ****     }
 191:../mindows/mds_core_c.c **** 
 192:../mindows/mds_core_c.c ****     for(i = 0; i < PRIOFLAGGRP2; i++)
 193:../mindows/mds_core_c.c ****     {
 194:../mindows/mds_core_c.c ****         pstrSchedTab->strFlag.aucPrioFlagGrp2[i] = 0;
 195:../mindows/mds_core_c.c ****     }
 196:../mindows/mds_core_c.c **** 
 197:../mindows/mds_core_c.c ****     pstrSchedTab->strFlag.ucPrioFlagGrp3 = 0;
 198:../mindows/mds_core_c.c **** 
 199:../mindows/mds_core_c.c **** #elif PRIORITYNUM >= PRIORITY16
 200:../mindows/mds_core_c.c **** 
 201:../mindows/mds_core_c.c ****     for(i = 0; i< PRIOFLAGGRP1; i++)
ARM GAS  C:\DOCUME~1\ADMINI~1\LOCALS~1\Temp\cc1Hp51A.s 			page 7


 202:../mindows/mds_core_c.c ****     {
 203:../mindows/mds_core_c.c ****         pstrSchedTab->strFlag.aucPrioFlagGrp1[i] = 0;
 204:../mindows/mds_core_c.c ****     }
 205:../mindows/mds_core_c.c **** 
 206:../mindows/mds_core_c.c ****     pstrSchedTab->strFlag.ucPrioFlagGrp2 = 0;
 207:../mindows/mds_core_c.c **** 
 208:../mindows/mds_core_c.c **** #else
 209:../mindows/mds_core_c.c **** 
 210:../mindows/mds_core_c.c ****     pstrSchedTab->strFlag.ucPrioFlagGrp1 = 0;
 211:../mindows/mds_core_c.c **** 
 212:../mindows/mds_core_c.c **** #endif
 213:../mindows/mds_core_c.c **** }
 214:../mindows/mds_core_c.c **** 
 215:../mindows/mds_core_c.c **** /***********************************************************************************
 216:../mindows/mds_core_c.c **** 函数功能: 将任务添加到任务调度表.
 217:../mindows/mds_core_c.c **** 入口参数: pstrChain: 调度表指针, 将任务添加到该调度表.
 218:../mindows/mds_core_c.c ****           pstrNode: 要添加的任务节点指针.
 219:../mindows/mds_core_c.c ****           pstrPrioFlag: 该调度表对应的优先级标志表指针.
 220:../mindows/mds_core_c.c ****           ucTaskPrio: 要添加的任务的优先级.
 221:../mindows/mds_core_c.c **** 返 回 值: none.
 222:../mindows/mds_core_c.c **** ***********************************************************************************/
 223:../mindows/mds_core_c.c **** void MDS_TaskAddToSchedTab(M_CHAIN* pstrChain, M_CHAIN* pstrNode,
 224:../mindows/mds_core_c.c ****                            M_PRIOFLAG* pstrPrioFlag, U8 ucTaskPrio)
 225:../mindows/mds_core_c.c **** {
 226:../mindows/mds_core_c.c ****     /* 将该任务节点添加到调度表中 */
 227:../mindows/mds_core_c.c ****     MDS_ChainNodeAdd(pstrChain, pstrNode);
 228:../mindows/mds_core_c.c **** 
 229:../mindows/mds_core_c.c ****     /* 设置该任务对应调度表的优先级标志表 */
 230:../mindows/mds_core_c.c ****     MDS_TaskPrioFlagSet(pstrPrioFlag, ucTaskPrio);
 231:../mindows/mds_core_c.c **** }
 232:../mindows/mds_core_c.c **** 
 233:../mindows/mds_core_c.c **** /***********************************************************************************
 234:../mindows/mds_core_c.c **** 函数功能: 将任务添加到delay表, 按照任务延迟时间从少到多添加到delay表中.
 235:../mindows/mds_core_c.c **** 入口参数: pstrNode: 要添加的任务节点指针.
 236:../mindows/mds_core_c.c **** 返 回 值: none.
 237:../mindows/mds_core_c.c **** ***********************************************************************************/
 238:../mindows/mds_core_c.c **** void MDS_TaskAddToDelayTab(M_CHAIN* pstrNode)
 239:../mindows/mds_core_c.c **** {
 240:../mindows/mds_core_c.c ****     M_CHAIN* pstrTempNode;
 241:../mindows/mds_core_c.c ****     M_CHAIN* pstrNextNode;
 242:../mindows/mds_core_c.c ****     M_TCBQUE* pstrDelayQue;
 243:../mindows/mds_core_c.c ****     U32 uiStillTick;
 244:../mindows/mds_core_c.c ****     U32 uiTempStillTick;
 245:../mindows/mds_core_c.c **** 
 246:../mindows/mds_core_c.c ****     /* 获取delay表中的第一个任务节点指针 */
 247:../mindows/mds_core_c.c ****     pstrTempNode = MDS_ChainEmpInq(&gstrDelayTab);
 248:../mindows/mds_core_c.c **** 
 249:../mindows/mds_core_c.c ****     /* delay表非空 */
 250:../mindows/mds_core_c.c ****     if(NULL != pstrTempNode)
 251:../mindows/mds_core_c.c ****     {
 252:../mindows/mds_core_c.c ****         /* 获取要加入delay表的任务的延迟时间 */
 253:../mindows/mds_core_c.c ****         pstrDelayQue = (M_TCBQUE*)pstrNode;
 254:../mindows/mds_core_c.c ****         uiStillTick = pstrDelayQue->pstrTcb->uiStillTick;
 255:../mindows/mds_core_c.c **** 
 256:../mindows/mds_core_c.c ****         /* 寻找要加入delay表的任务在delay表中的位置 */
 257:../mindows/mds_core_c.c ****         while(1)
 258:../mindows/mds_core_c.c ****         {
ARM GAS  C:\DOCUME~1\ADMINI~1\LOCALS~1\Temp\cc1Hp51A.s 			page 8


 259:../mindows/mds_core_c.c ****             /* 获取delay表中任务的延迟时间 */
 260:../mindows/mds_core_c.c ****             pstrDelayQue = (M_TCBQUE*)pstrTempNode;
 261:../mindows/mds_core_c.c ****             uiTempStillTick = pstrDelayQue->pstrTcb->uiStillTick;
 262:../mindows/mds_core_c.c **** 
 263:../mindows/mds_core_c.c ****             /* 在以下各条件中判断要加入delay表的任务应该插入的位置 */
 264:../mindows/mds_core_c.c ****             if(uiStillTick < uiTempStillTick)
 265:../mindows/mds_core_c.c ****             {
 266:../mindows/mds_core_c.c ****                 if(uiStillTick > guiTick)
 267:../mindows/mds_core_c.c ****                 {
 268:../mindows/mds_core_c.c ****                     MDS_ChainCurNodeInsert(&gstrDelayTab, pstrTempNode, pstrNode);
 269:../mindows/mds_core_c.c **** 
 270:../mindows/mds_core_c.c ****                     return;
 271:../mindows/mds_core_c.c ****                 }
 272:../mindows/mds_core_c.c ****                 else if(uiStillTick < guiTick)
 273:../mindows/mds_core_c.c ****                 {
 274:../mindows/mds_core_c.c ****                     if(guiTick > uiTempStillTick)
 275:../mindows/mds_core_c.c ****                     {
 276:../mindows/mds_core_c.c ****                         MDS_ChainCurNodeInsert(&gstrDelayTab, pstrTempNode,
 277:../mindows/mds_core_c.c ****                                                pstrNode);
 278:../mindows/mds_core_c.c **** 
 279:../mindows/mds_core_c.c ****                         return;
 280:../mindows/mds_core_c.c ****                     }
 281:../mindows/mds_core_c.c ****                 }
 282:../mindows/mds_core_c.c ****             }
 283:../mindows/mds_core_c.c ****             else if(uiStillTick > uiTempStillTick)
 284:../mindows/mds_core_c.c ****             {
 285:../mindows/mds_core_c.c ****                 if(uiStillTick > guiTick)
 286:../mindows/mds_core_c.c ****                 {
 287:../mindows/mds_core_c.c ****                     if(guiTick > uiTempStillTick)
 288:../mindows/mds_core_c.c ****                     {
 289:../mindows/mds_core_c.c ****                         MDS_ChainCurNodeInsert(&gstrDelayTab, pstrTempNode,
 290:../mindows/mds_core_c.c ****                                                pstrNode);
 291:../mindows/mds_core_c.c **** 
 292:../mindows/mds_core_c.c ****                         return;
 293:../mindows/mds_core_c.c ****                     }
 294:../mindows/mds_core_c.c ****                 }
 295:../mindows/mds_core_c.c ****             }
 296:../mindows/mds_core_c.c **** 
 297:../mindows/mds_core_c.c ****             /* delay表中取出的任务延迟时间小于要键入delay表的任务延迟时间, 取出下个
 298:../mindows/mds_core_c.c ****                任务节点继续判断 */
 299:../mindows/mds_core_c.c ****             pstrNextNode = MDS_ChainNextNodeEmpInq(&gstrDelayTab, pstrTempNode);
 300:../mindows/mds_core_c.c **** 
 301:../mindows/mds_core_c.c ****             /* 搜索到delay链表最后一个节点, 将要加入delay表的任务加入到delay表尾 */
 302:../mindows/mds_core_c.c ****             if(NULL == pstrNextNode)
 303:../mindows/mds_core_c.c ****             {
 304:../mindows/mds_core_c.c ****                 MDS_ChainNodeAdd(&gstrDelayTab, pstrNode);
 305:../mindows/mds_core_c.c **** 
 306:../mindows/mds_core_c.c ****                 return;
 307:../mindows/mds_core_c.c ****             }
 308:../mindows/mds_core_c.c ****             else /* 更新delay表下个任务节点继续判断 */
 309:../mindows/mds_core_c.c ****             {
 310:../mindows/mds_core_c.c ****                 pstrTempNode = pstrNextNode;
 311:../mindows/mds_core_c.c ****             }
 312:../mindows/mds_core_c.c ****         }
 313:../mindows/mds_core_c.c ****     }
 314:../mindows/mds_core_c.c ****     else /* delay表为空则直接将要加入delay表的任务加入到delay表尾 */
 315:../mindows/mds_core_c.c ****     {
ARM GAS  C:\DOCUME~1\ADMINI~1\LOCALS~1\Temp\cc1Hp51A.s 			page 9


 316:../mindows/mds_core_c.c ****         MDS_ChainNodeAdd(&gstrDelayTab, pstrNode);
 317:../mindows/mds_core_c.c **** 
 318:../mindows/mds_core_c.c ****         return;
 319:../mindows/mds_core_c.c ****     }
 320:../mindows/mds_core_c.c **** }
 321:../mindows/mds_core_c.c **** 
 322:../mindows/mds_core_c.c **** /***********************************************************************************
 323:../mindows/mds_core_c.c **** 函数功能: 从任务调度表删除任务.
 324:../mindows/mds_core_c.c **** 入口参数: pstrChain: 调度表指针, 从该链表删除任务.
 325:../mindows/mds_core_c.c ****           pstrPrioFlag: 调度表对应的优先级标志表指针.
 326:../mindows/mds_core_c.c ****           ucTaskPrio: 要删除任务的优先级.
 327:../mindows/mds_core_c.c **** 返 回 值: 被删除的任务的节点指针.
 328:../mindows/mds_core_c.c **** ***********************************************************************************/
 329:../mindows/mds_core_c.c **** M_CHAIN* MDS_TaskDelFromSchedTab(M_CHAIN* pstrChain, M_PRIOFLAG* pstrPrioFlag,
 330:../mindows/mds_core_c.c ****                                  U8 ucTaskPrio)
 331:../mindows/mds_core_c.c **** {
 332:../mindows/mds_core_c.c ****     M_CHAIN* pstrDelNode;
 333:../mindows/mds_core_c.c **** 
 334:../mindows/mds_core_c.c ****     /* 将该任务节点从调度表中删除 */
 335:../mindows/mds_core_c.c ****     pstrDelNode = MDS_ChainNodeDelete(pstrChain);
 336:../mindows/mds_core_c.c **** 
 337:../mindows/mds_core_c.c ****     /* 如果调度表中该优先级为空则清除优先级标志 */
 338:../mindows/mds_core_c.c ****     if(NULL == MDS_ChainEmpInq(pstrChain))
 339:../mindows/mds_core_c.c ****     {
 340:../mindows/mds_core_c.c ****         MDS_TaskPrioFlagClr(pstrPrioFlag, ucTaskPrio);
 341:../mindows/mds_core_c.c ****     }
 342:../mindows/mds_core_c.c **** 
 343:../mindows/mds_core_c.c ****     /* 返回被删除任务的节点指针 */
 344:../mindows/mds_core_c.c ****     return pstrDelNode;
 345:../mindows/mds_core_c.c **** }
 346:../mindows/mds_core_c.c **** 
 347:../mindows/mds_core_c.c **** /***********************************************************************************
 348:../mindows/mds_core_c.c **** 函数功能: 将任务添加到sem调度表.
 349:../mindows/mds_core_c.c **** 入口参数: pstrTcb: 任务的TCB.
 350:../mindows/mds_core_c.c ****           pstrSem: 操作的信号量指针.
 351:../mindows/mds_core_c.c **** 返 回 值: none.
 352:../mindows/mds_core_c.c **** ***********************************************************************************/
 353:../mindows/mds_core_c.c **** void MDS_TaskAddToSemTab(M_TCB* pstrTcb, M_SEM* pstrSem)
 354:../mindows/mds_core_c.c **** {
 355:../mindows/mds_core_c.c ****     M_CHAIN* pstrChain;
 356:../mindows/mds_core_c.c ****     M_CHAIN* pstrNode;
 357:../mindows/mds_core_c.c ****     M_PRIOFLAG* pstrPrioFlag;
 358:../mindows/mds_core_c.c ****     U8 ucTaskPrio;
 359:../mindows/mds_core_c.c **** 
 360:../mindows/mds_core_c.c ****     /* 如果信号量是采用优先级调度算法 */
 361:../mindows/mds_core_c.c ****     if(SEMPRIO == (SEMSCHEDOPTMASK & pstrSem->uiSemOpt))
 362:../mindows/mds_core_c.c ****     {
 363:../mindows/mds_core_c.c ****         /* 获取任务的相关参数 */
 364:../mindows/mds_core_c.c ****         ucTaskPrio = pstrTcb->ucTaskPrio;
 365:../mindows/mds_core_c.c ****         pstrChain = &pstrSem->strSemTab.astrChain[ucTaskPrio];
 366:../mindows/mds_core_c.c ****         pstrNode = &pstrTcb->strTcbQue.strQueHead;
 367:../mindows/mds_core_c.c ****         pstrPrioFlag = &pstrSem->strSemTab.strFlag;
 368:../mindows/mds_core_c.c **** 
 369:../mindows/mds_core_c.c ****         /* 添加到sem调度表 */
 370:../mindows/mds_core_c.c ****         MDS_TaskAddToSchedTab(pstrChain, pstrNode, pstrPrioFlag, ucTaskPrio);
 371:../mindows/mds_core_c.c ****     }
 372:../mindows/mds_core_c.c ****     else /* 如果信号量采用先进先出调度算法 */
ARM GAS  C:\DOCUME~1\ADMINI~1\LOCALS~1\Temp\cc1Hp51A.s 			page 10


 373:../mindows/mds_core_c.c ****     {
 374:../mindows/mds_core_c.c ****         /* 获取任务的相关参数, 使用0优先级链表作为先进现出链表 */
 375:../mindows/mds_core_c.c ****         pstrChain = &pstrSem->strSemTab.astrChain[LOWESTPRIO];
 376:../mindows/mds_core_c.c ****         pstrNode = &pstrTcb->strTcbQue.strQueHead;
 377:../mindows/mds_core_c.c **** 
 378:../mindows/mds_core_c.c ****         /* 添加到sem调度表 */
 379:../mindows/mds_core_c.c ****         MDS_ChainNodeAdd(pstrChain, pstrNode);
 380:../mindows/mds_core_c.c ****     }
 381:../mindows/mds_core_c.c **** }
 382:../mindows/mds_core_c.c **** 
 383:../mindows/mds_core_c.c **** /***********************************************************************************
 384:../mindows/mds_core_c.c **** 函数功能: 将任务从sem调度表删除.
 385:../mindows/mds_core_c.c **** 入口参数: pstrTcb: 任务的TCB.
 386:../mindows/mds_core_c.c **** 返 回 值: 被删除任务的节点指针.
 387:../mindows/mds_core_c.c **** ***********************************************************************************/
 388:../mindows/mds_core_c.c **** M_CHAIN* MDS_TaskDelFromSemTab(M_TCB* pstrTcb)
 389:../mindows/mds_core_c.c **** {
 390:../mindows/mds_core_c.c ****     M_SEM* pstrSem;
 391:../mindows/mds_core_c.c ****     M_CHAIN* pstrChain;
 392:../mindows/mds_core_c.c ****     M_PRIOFLAG* pstrPrioFlag;
 393:../mindows/mds_core_c.c ****     U8 ucTaskPrio;
 394:../mindows/mds_core_c.c **** 
 395:../mindows/mds_core_c.c ****     /* 获取阻塞任务的信号量 */
 396:../mindows/mds_core_c.c ****     pstrSem = pstrTcb->pstrSem;
 397:../mindows/mds_core_c.c **** 
 398:../mindows/mds_core_c.c ****     /* 如果信号量是采用优先级调度算法 */
 399:../mindows/mds_core_c.c ****     if(SEMPRIO == (SEMSCHEDOPTMASK & pstrSem->uiSemOpt))
 400:../mindows/mds_core_c.c ****     {
 401:../mindows/mds_core_c.c ****         /* 获取任务的相关参数 */
 402:../mindows/mds_core_c.c ****         ucTaskPrio = pstrTcb->ucTaskPrio;
 403:../mindows/mds_core_c.c ****         pstrChain = &pstrSem->strSemTab.astrChain[ucTaskPrio];
 404:../mindows/mds_core_c.c ****         pstrPrioFlag = &pstrSem->strSemTab.strFlag;
 405:../mindows/mds_core_c.c **** 
 406:../mindows/mds_core_c.c ****         /* 从sem调度表删除当前任务 */
 407:../mindows/mds_core_c.c ****         return MDS_TaskDelFromSchedTab(pstrChain, pstrPrioFlag, ucTaskPrio);
 408:../mindows/mds_core_c.c ****     }
 409:../mindows/mds_core_c.c ****     else /* 如果信号量采用先进先出调度算法 */
 410:../mindows/mds_core_c.c ****     {
 411:../mindows/mds_core_c.c ****         /* 获取任务的相关参数, 使用0优先级链表作为先进现出链表 */
 412:../mindows/mds_core_c.c ****         pstrChain = &pstrSem->strSemTab.astrChain[LOWESTPRIO];
 413:../mindows/mds_core_c.c **** 
 414:../mindows/mds_core_c.c ****         /* 从sem调度表删除当前任务 */
 415:../mindows/mds_core_c.c ****         return MDS_ChainNodeDelete(pstrChain);
 416:../mindows/mds_core_c.c ****     }
 417:../mindows/mds_core_c.c **** }
 418:../mindows/mds_core_c.c **** 
 419:../mindows/mds_core_c.c **** /***********************************************************************************
 420:../mindows/mds_core_c.c **** 函数功能: 在被该信号量阻塞的任务中获取一个需要被最先释放的任务.
 421:../mindows/mds_core_c.c **** 入口参数: pstrSem: 信号量指针.
 422:../mindows/mds_core_c.c **** 返 回 值: 需要释放的任务的TCB指针, 若没有需要释放的任务则返回NULL.
 423:../mindows/mds_core_c.c **** ***********************************************************************************/
 424:../mindows/mds_core_c.c **** M_TCB* MDS_SemGetActiveTask(M_SEM* pstrSem)
 425:../mindows/mds_core_c.c **** {
 426:../mindows/mds_core_c.c ****     M_CHAIN* pstrNode;
 427:../mindows/mds_core_c.c ****     M_TCBQUE* pstrTaskQue;
 428:../mindows/mds_core_c.c ****     U8 ucTaskPrio;
 429:../mindows/mds_core_c.c **** 
ARM GAS  C:\DOCUME~1\ADMINI~1\LOCALS~1\Temp\cc1Hp51A.s 			page 11


 430:../mindows/mds_core_c.c ****     /* 信号量采用优先级调度算法 */
 431:../mindows/mds_core_c.c ****     if(SEMPRIO == (SEMSCHEDOPTMASK & pstrSem->uiSemOpt))
 432:../mindows/mds_core_c.c ****     {
 433:../mindows/mds_core_c.c ****         /* 获取信号量表中优先级最高的任务TCB */
 434:../mindows/mds_core_c.c ****         ucTaskPrio = MDS_TaskHighestPrioGet(&pstrSem->strSemTab.strFlag);
 435:../mindows/mds_core_c.c ****     }
 436:../mindows/mds_core_c.c ****     else /* 信号量采用先进先出调度算法 */
 437:../mindows/mds_core_c.c ****     {
 438:../mindows/mds_core_c.c ****         /* 采用0优先级的链表 */
 439:../mindows/mds_core_c.c ****         ucTaskPrio = LOWESTPRIO;
 440:../mindows/mds_core_c.c ****     }
 441:../mindows/mds_core_c.c **** 
 442:../mindows/mds_core_c.c ****     pstrNode = MDS_ChainEmpInq(&pstrSem->strSemTab.astrChain[ucTaskPrio]);
 443:../mindows/mds_core_c.c **** 
 444:../mindows/mds_core_c.c ****     /* 信号量中没有被阻塞的任务 */
 445:../mindows/mds_core_c.c ****     if(NULL == pstrNode)
 446:../mindows/mds_core_c.c ****     {
 447:../mindows/mds_core_c.c ****         return (M_TCB*)NULL;
 448:../mindows/mds_core_c.c ****     }
 449:../mindows/mds_core_c.c ****     else
 450:../mindows/mds_core_c.c ****     {
 451:../mindows/mds_core_c.c ****         pstrTaskQue = (M_TCBQUE*)pstrNode;
 452:../mindows/mds_core_c.c **** 
 453:../mindows/mds_core_c.c ****         return pstrTaskQue->pstrTcb;
 454:../mindows/mds_core_c.c ****     }
 455:../mindows/mds_core_c.c **** }
 456:../mindows/mds_core_c.c **** 
 457:../mindows/mds_core_c.c **** /***********************************************************************************
 458:../mindows/mds_core_c.c **** 函数功能: 任务调度函数, 任务各种状态转换的调度在此函数实现.
 459:../mindows/mds_core_c.c **** 入口参数: none.
 460:../mindows/mds_core_c.c **** 返 回 值: none.
 461:../mindows/mds_core_c.c **** ***********************************************************************************/
 462:../mindows/mds_core_c.c **** void MDS_TaskSched(void)
 463:../mindows/mds_core_c.c **** {
 464:../mindows/mds_core_c.c ****     M_TCB* pstrTcb;
 465:../mindows/mds_core_c.c **** 
 466:../mindows/mds_core_c.c ****     /* 调度delay表任务 */
 467:../mindows/mds_core_c.c ****     MDS_TaskDelayTabSched();
 468:../mindows/mds_core_c.c **** 
 469:../mindows/mds_core_c.c ****     /* 调度ready表任务 */
 470:../mindows/mds_core_c.c ****     pstrTcb = MDS_TaskReadyTabSched();
 471:../mindows/mds_core_c.c **** 
 472:../mindows/mds_core_c.c **** #ifdef MDS_INCLUDETASKHOOK
 473:../mindows/mds_core_c.c **** 
 474:../mindows/mds_core_c.c ****     /* 如果任务切换钩子已经挂接函数则执行该函数 */
 475:../mindows/mds_core_c.c ****     if((VFHSWT)NULL != gvfTaskSwitchHook)
 476:../mindows/mds_core_c.c ****     {
 477:../mindows/mds_core_c.c ****         /* 不同任务之间切换才执行任务切换钩子函数 */
 478:../mindows/mds_core_c.c ****         if(pstrTcb != gpstrCurTcb)
 479:../mindows/mds_core_c.c ****         {
 480:../mindows/mds_core_c.c ****             gvfTaskSwitchHook(gpstrCurTcb, pstrTcb);
 481:../mindows/mds_core_c.c ****         }
 482:../mindows/mds_core_c.c ****     }
 483:../mindows/mds_core_c.c **** 
 484:../mindows/mds_core_c.c **** #endif
 485:../mindows/mds_core_c.c **** 
 486:../mindows/mds_core_c.c ****     /* 准备任务切换 */
ARM GAS  C:\DOCUME~1\ADMINI~1\LOCALS~1\Temp\cc1Hp51A.s 			page 12


 487:../mindows/mds_core_c.c ****     MDS_TaskSwitch(pstrTcb);
 488:../mindows/mds_core_c.c **** }
 489:../mindows/mds_core_c.c **** 
 490:../mindows/mds_core_c.c **** /***********************************************************************************
 491:../mindows/mds_core_c.c **** 函数功能: 任务调度函数, ready态任务的调度在此函数实现.
 492:../mindows/mds_core_c.c **** 入口参数: none.
 493:../mindows/mds_core_c.c **** 返 回 值: none.
 494:../mindows/mds_core_c.c **** ***********************************************************************************/
 495:../mindows/mds_core_c.c **** void MDS_TaskReadySched(void)
 496:../mindows/mds_core_c.c **** {
 497:../mindows/mds_core_c.c ****     M_TCB* pstrTcb;
 498:../mindows/mds_core_c.c **** 
 499:../mindows/mds_core_c.c ****     /* 调度ready表任务 */
 500:../mindows/mds_core_c.c ****     pstrTcb = MDS_TaskReadyTabSched();
 501:../mindows/mds_core_c.c **** 
 502:../mindows/mds_core_c.c **** #ifdef MDS_INCLUDETASKHOOK
 503:../mindows/mds_core_c.c **** 
 504:../mindows/mds_core_c.c ****     /* 如果任务切换钩子已经挂接函数则执行该函数 */
 505:../mindows/mds_core_c.c ****     if((VFHSWT)NULL != gvfTaskSwitchHook)
 506:../mindows/mds_core_c.c ****     {
 507:../mindows/mds_core_c.c ****         /* 不同任务之间切换才执行任务切换钩子函数 */
 508:../mindows/mds_core_c.c ****         if(pstrTcb != gpstrCurTcb)
 509:../mindows/mds_core_c.c ****         {
 510:../mindows/mds_core_c.c ****             gvfTaskSwitchHook(gpstrCurTcb, pstrTcb);
 511:../mindows/mds_core_c.c ****         }
 512:../mindows/mds_core_c.c ****     }
 513:../mindows/mds_core_c.c **** 
 514:../mindows/mds_core_c.c **** #endif
 515:../mindows/mds_core_c.c **** 
 516:../mindows/mds_core_c.c ****     /* 准备任务切换 */
 517:../mindows/mds_core_c.c ****     MDS_TaskSwitch(pstrTcb);
 518:../mindows/mds_core_c.c **** }
 519:../mindows/mds_core_c.c **** 
 520:../mindows/mds_core_c.c **** /***********************************************************************************
 521:../mindows/mds_core_c.c **** 函数功能: 对ready表进行操作.
 522:../mindows/mds_core_c.c **** 入口参数: none.
 523:../mindows/mds_core_c.c **** 返 回 值: none.
 524:../mindows/mds_core_c.c **** ***********************************************************************************/
 525:../mindows/mds_core_c.c **** M_TCB* MDS_TaskReadyTabSched(void)
 526:../mindows/mds_core_c.c **** {
 527:../mindows/mds_core_c.c ****     M_TCB* pstrTcb;
 528:../mindows/mds_core_c.c ****     M_TCBQUE* pstrTaskQue;
 529:../mindows/mds_core_c.c ****     U8 ucTaskPrio;
 530:../mindows/mds_core_c.c **** 
 531:../mindows/mds_core_c.c ****     /* 获取ready表中优先级最高的任务的TCB */
 532:../mindows/mds_core_c.c ****     ucTaskPrio = MDS_TaskHighestPrioGet(&gstrReadyTab.strFlag);
 533:../mindows/mds_core_c.c ****     pstrTaskQue = (M_TCBQUE*)MDS_ChainEmpInq(&gstrReadyTab.astrChain[ucTaskPrio]);
 534:../mindows/mds_core_c.c ****     pstrTcb = pstrTaskQue->pstrTcb;
 535:../mindows/mds_core_c.c **** 
 536:../mindows/mds_core_c.c ****     return pstrTcb;
 537:../mindows/mds_core_c.c **** }
 538:../mindows/mds_core_c.c **** 
 539:../mindows/mds_core_c.c **** /***********************************************************************************
 540:../mindows/mds_core_c.c **** 函数功能: 对delay表进行操作.
 541:../mindows/mds_core_c.c **** 入口参数: none.
 542:../mindows/mds_core_c.c **** 返 回 值: none.
 543:../mindows/mds_core_c.c **** ***********************************************************************************/
ARM GAS  C:\DOCUME~1\ADMINI~1\LOCALS~1\Temp\cc1Hp51A.s 			page 13


 544:../mindows/mds_core_c.c **** void MDS_TaskDelayTabSched(void)
 545:../mindows/mds_core_c.c **** {
 546:../mindows/mds_core_c.c ****     M_TCB* pstrTcb;
 547:../mindows/mds_core_c.c ****     M_CHAIN* pstrChain;
 548:../mindows/mds_core_c.c ****     M_CHAIN* pstrNode;
 549:../mindows/mds_core_c.c ****     M_CHAIN* pstrDelayNode;
 550:../mindows/mds_core_c.c ****     M_CHAIN* pstrNextNode;
 551:../mindows/mds_core_c.c ****     M_PRIOFLAG* pstrPrioFlag;
 552:../mindows/mds_core_c.c ****     M_TCBQUE* pstrDelayQue;
 553:../mindows/mds_core_c.c ****     U32 uiTick;
 554:../mindows/mds_core_c.c ****     U8 ucTaskPrio;
 555:../mindows/mds_core_c.c **** 
 556:../mindows/mds_core_c.c ****     /* 获取delay表中的任务节点 */
 557:../mindows/mds_core_c.c ****     pstrDelayNode = MDS_ChainEmpInq(&gstrDelayTab);
 558:../mindows/mds_core_c.c **** 
 559:../mindows/mds_core_c.c ****     /* delay表中有任务, 调度delay表中的任务 */
 560:../mindows/mds_core_c.c ****     if(NULL != pstrDelayNode)
 561:../mindows/mds_core_c.c ****     {
 562:../mindows/mds_core_c.c ****         /* 判断delay表中任务的延迟时间是否结束 */
 563:../mindows/mds_core_c.c ****         while(1)
 564:../mindows/mds_core_c.c ****         {
 565:../mindows/mds_core_c.c ****             /* 获取delay表中的任务的延迟时间 */
 566:../mindows/mds_core_c.c ****             pstrDelayQue = (M_TCBQUE*)pstrDelayNode;
 567:../mindows/mds_core_c.c ****             pstrTcb = pstrDelayQue->pstrTcb;
 568:../mindows/mds_core_c.c ****             uiTick = pstrTcb->uiStillTick;
 569:../mindows/mds_core_c.c **** 
 570:../mindows/mds_core_c.c ****             /* 该任务延迟时间到, 从delay表中删除并加入到调度表中 */
 571:../mindows/mds_core_c.c ****             if(uiTick == guiTick)
 572:../mindows/mds_core_c.c ****             {
 573:../mindows/mds_core_c.c ****                 /* 从delay表拆除该任务 */
 574:../mindows/mds_core_c.c ****                 pstrNextNode = MDS_ChainCurNodeDelete(&gstrDelayTab, pstrDelayNode);
 575:../mindows/mds_core_c.c **** 
 576:../mindows/mds_core_c.c ****                 /* 置任务不在delay表标志 */
 577:../mindows/mds_core_c.c ****                 pstrTcb->uiTaskFlag &= (~((U32)DELAYQUEFLAG));
 578:../mindows/mds_core_c.c **** 
 579:../mindows/mds_core_c.c ****                 /* 更新该任务的delay和pend相关参数 */
 580:../mindows/mds_core_c.c ****                 /* 如果任务拥有delay状态则从delay状态恢复 */
 581:../mindows/mds_core_c.c ****                 if(TASKDELAY == (TASKDELAY & pstrTcb->strTaskOpt.ucTaskSta))
 582:../mindows/mds_core_c.c ****                 {
 583:../mindows/mds_core_c.c ****                     /* 清除任务的delay状态 */
 584:../mindows/mds_core_c.c ****                     pstrTcb->strTaskOpt.ucTaskSta &= ~((U8)TASKDELAY);
 585:../mindows/mds_core_c.c **** 
 586:../mindows/mds_core_c.c ****                     /* 借用uiDelayTick变量保存delay任务的返回值 */
 587:../mindows/mds_core_c.c ****                     pstrTcb->strTaskOpt.uiDelayTick = RTN_TKDLTO;
 588:../mindows/mds_core_c.c ****                 }
 589:../mindows/mds_core_c.c ****                 /* 如果任务拥有pend状态则从pend状态恢复 */
 590:../mindows/mds_core_c.c ****                 else if(TASKPEND == (TASKPEND& pstrTcb->strTaskOpt.ucTaskSta))
 591:../mindows/mds_core_c.c ****                 {
 592:../mindows/mds_core_c.c ****                     /* 从信号量调度表拆除任务 */
 593:../mindows/mds_core_c.c ****                     (void)MDS_TaskDelFromSemTab(gpstrCurTcb);
 594:../mindows/mds_core_c.c **** 
 595:../mindows/mds_core_c.c ****                     /* 清除任务的pend状态 */
 596:../mindows/mds_core_c.c ****                     pstrTcb->strTaskOpt.ucTaskSta &= ~((U8)TASKPEND);
 597:../mindows/mds_core_c.c **** 
 598:../mindows/mds_core_c.c ****                     /* 借用uiDelayTick变量保存pend任务的返回值 */
 599:../mindows/mds_core_c.c ****                     pstrTcb->strTaskOpt.uiDelayTick = RTN_SMTKTO;
 600:../mindows/mds_core_c.c ****                 }
ARM GAS  C:\DOCUME~1\ADMINI~1\LOCALS~1\Temp\cc1Hp51A.s 			page 14


 601:../mindows/mds_core_c.c **** 
 602:../mindows/mds_core_c.c ****                 /* 获取该任务的相关参数 */
 603:../mindows/mds_core_c.c ****                 pstrNode = &pstrTcb->strTcbQue.strQueHead;
 604:../mindows/mds_core_c.c ****                 ucTaskPrio = pstrTcb->ucTaskPrio;
 605:../mindows/mds_core_c.c ****                 pstrChain = &gstrReadyTab.astrChain[ucTaskPrio];
 606:../mindows/mds_core_c.c ****                 pstrPrioFlag = &gstrReadyTab.strFlag;
 607:../mindows/mds_core_c.c **** 
 608:../mindows/mds_core_c.c ****                 /* 将该任务添加到ready表中 */
 609:../mindows/mds_core_c.c ****                 MDS_TaskAddToSchedTab(pstrChain, pstrNode, pstrPrioFlag,
 610:../mindows/mds_core_c.c ****                                       ucTaskPrio);
 611:../mindows/mds_core_c.c **** 
 612:../mindows/mds_core_c.c ****                 /* 增加任务的ready状态 */
 613:../mindows/mds_core_c.c ****                 pstrTcb->strTaskOpt.ucTaskSta |= TASKREADY;
 614:../mindows/mds_core_c.c **** 
 615:../mindows/mds_core_c.c ****                 /* delay表已经调度完毕, 结束对delay表的调度 */
 616:../mindows/mds_core_c.c ****                 if(NULL == pstrNextNode)
 617:../mindows/mds_core_c.c ****                 {
 618:../mindows/mds_core_c.c ****                     break;
 619:../mindows/mds_core_c.c ****                 }
 620:../mindows/mds_core_c.c ****                 else /* delay表没调度完, 更新下个节点继续判断 */
 621:../mindows/mds_core_c.c ****                 {
 622:../mindows/mds_core_c.c ****                     pstrDelayNode = pstrNextNode;
 623:../mindows/mds_core_c.c ****                 }
 624:../mindows/mds_core_c.c ****             }
 625:../mindows/mds_core_c.c ****             else /* 所有任务都没有到时间, 结束对delay表的调度 */
 626:../mindows/mds_core_c.c ****             {
 627:../mindows/mds_core_c.c ****                 break;
 628:../mindows/mds_core_c.c ****             }
 629:../mindows/mds_core_c.c ****         }
 630:../mindows/mds_core_c.c ****     }
 631:../mindows/mds_core_c.c **** }
 632:../mindows/mds_core_c.c **** 
 633:../mindows/mds_core_c.c **** /***********************************************************************************
 634:../mindows/mds_core_c.c **** 函数功能: 将该任务添加到任务调度表对应的优先级标志表中.
 635:../mindows/mds_core_c.c **** 入口参数: pstrPrioFlag: 调度表对应的优先级标志表指针.
 636:../mindows/mds_core_c.c ****           ucTaskPrio: 任务的优先级.
 637:../mindows/mds_core_c.c **** 返 回 值: none.
 638:../mindows/mds_core_c.c **** ***********************************************************************************/
 639:../mindows/mds_core_c.c **** void MDS_TaskPrioFlagSet(M_PRIOFLAG* pstrPrioFlag, U8 ucTaskPrio)
 640:../mindows/mds_core_c.c **** {
 641:../mindows/mds_core_c.c **** #if PRIORITYNUM >= PRIORITY128
 642:../mindows/mds_core_c.c ****     U8 ucPrioFlagGrp1;
 643:../mindows/mds_core_c.c ****     U8 ucPrioFlagGrp2;
 644:../mindows/mds_core_c.c ****     U8 ucPosInGrp1;
 645:../mindows/mds_core_c.c ****     U8 ucPosInGrp2;
 646:../mindows/mds_core_c.c ****     U8 ucPosInGrp3;
 647:../mindows/mds_core_c.c **** #elif PRIORITYNUM >= PRIORITY16
 648:../mindows/mds_core_c.c ****     U8 ucPrioFlagGrp1;
 649:../mindows/mds_core_c.c ****     U8 ucPosInGrp1;
 650:../mindows/mds_core_c.c ****     U8 ucPosInGrp2;
 651:../mindows/mds_core_c.c **** #endif
 652:../mindows/mds_core_c.c **** 
 653:../mindows/mds_core_c.c ****     /* 设置调度表对应的优先级标志表 */
 654:../mindows/mds_core_c.c **** #if PRIORITYNUM >= PRIORITY128
 655:../mindows/mds_core_c.c **** 
 656:../mindows/mds_core_c.c ****     /* 获取优先级标志在第一组和第二组中的组号 */
 657:../mindows/mds_core_c.c ****     ucPrioFlagGrp1 = ucTaskPrio / 8;
ARM GAS  C:\DOCUME~1\ADMINI~1\LOCALS~1\Temp\cc1Hp51A.s 			page 15


 658:../mindows/mds_core_c.c ****     ucPrioFlagGrp2 = ucPrioFlagGrp1 / 8;
 659:../mindows/mds_core_c.c **** 
 660:../mindows/mds_core_c.c ****     /* 获取优先级标志在每一组中的位置 */
 661:../mindows/mds_core_c.c ****     ucPosInGrp1 = ucTaskPrio % 8;
 662:../mindows/mds_core_c.c ****     ucPosInGrp2 = ucPrioFlagGrp1 % 8;
 663:../mindows/mds_core_c.c ****     ucPosInGrp3 = ucPrioFlagGrp2;
 664:../mindows/mds_core_c.c **** 
 665:../mindows/mds_core_c.c ****     /* 在每一组中设置优先级标志 */
 666:../mindows/mds_core_c.c ****     pstrPrioFlag->aucPrioFlagGrp1[ucPrioFlagGrp1] |= (U8)(1 << ucPosInGrp1);
 667:../mindows/mds_core_c.c ****     pstrPrioFlag->aucPrioFlagGrp2[ucPrioFlagGrp2] |= (U8)(1 << ucPosInGrp2);
 668:../mindows/mds_core_c.c ****     pstrPrioFlag->ucPrioFlagGrp3 |= (U8)(1 << ucPosInGrp3);
 669:../mindows/mds_core_c.c **** 
 670:../mindows/mds_core_c.c **** #elif PRIORITYNUM >= PRIORITY16
 671:../mindows/mds_core_c.c **** 
 672:../mindows/mds_core_c.c ****     ucPrioFlagGrp1 = ucTaskPrio / 8;
 673:../mindows/mds_core_c.c **** 
 674:../mindows/mds_core_c.c ****     ucPosInGrp1 = ucTaskPrio % 8;
 675:../mindows/mds_core_c.c ****     ucPosInGrp2 = ucPrioFlagGrp1;
 676:../mindows/mds_core_c.c **** 
 677:../mindows/mds_core_c.c ****     pstrPrioFlag->aucPrioFlagGrp1[ucPrioFlagGrp1] |= (U8)(1 << ucPosInGrp1);
 678:../mindows/mds_core_c.c ****     pstrPrioFlag->ucPrioFlagGrp2 |= (U8)(1 << ucPosInGrp2);
 679:../mindows/mds_core_c.c **** 
 680:../mindows/mds_core_c.c **** #else
 681:../mindows/mds_core_c.c **** 
 682:../mindows/mds_core_c.c ****     pstrPrioFlag->ucPrioFlagGrp1 |= (U8)(1 << ucTaskPrio);
 683:../mindows/mds_core_c.c **** 
 684:../mindows/mds_core_c.c **** #endif
 685:../mindows/mds_core_c.c **** }
 686:../mindows/mds_core_c.c **** 
 687:../mindows/mds_core_c.c **** /***********************************************************************************
 688:../mindows/mds_core_c.c **** 函数功能: 将该任务从任务调度表对应的优先级标志表中清除.
 689:../mindows/mds_core_c.c **** 入口参数: pstrPrioFlag: 调度表对应的优先级标志表指针.
 690:../mindows/mds_core_c.c ****           ucTaskPrio: 任务的优先级.
 691:../mindows/mds_core_c.c **** 返 回 值: none.
 692:../mindows/mds_core_c.c **** ***********************************************************************************/
 693:../mindows/mds_core_c.c **** void MDS_TaskPrioFlagClr(M_PRIOFLAG* pstrPrioFlag, U8 ucTaskPrio)
 694:../mindows/mds_core_c.c **** {
 695:../mindows/mds_core_c.c **** #if PRIORITYNUM >= PRIORITY128
 696:../mindows/mds_core_c.c ****     U8 ucPrioFlagGrp1;
 697:../mindows/mds_core_c.c ****     U8 ucPrioFlagGrp2;
 698:../mindows/mds_core_c.c ****     U8 ucPosInGrp1;
 699:../mindows/mds_core_c.c ****     U8 ucPosInGrp2;
 700:../mindows/mds_core_c.c ****     U8 ucPosInGrp3;
 701:../mindows/mds_core_c.c **** #elif PRIORITYNUM >= PRIORITY16
 702:../mindows/mds_core_c.c ****     U8 ucPrioFlagGrp1;
 703:../mindows/mds_core_c.c ****     U8 ucPosInGrp1;
 704:../mindows/mds_core_c.c ****     U8 ucPosInGrp2;
 705:../mindows/mds_core_c.c **** #endif
 706:../mindows/mds_core_c.c **** 
 707:../mindows/mds_core_c.c ****     /* 清除调度表对应的优先级标志表 */
 708:../mindows/mds_core_c.c **** #if PRIORITYNUM >= PRIORITY128
 709:../mindows/mds_core_c.c **** 
 710:../mindows/mds_core_c.c ****     /* 获取优先级标志在第一组和第二组中的组号 */
 711:../mindows/mds_core_c.c ****     ucPrioFlagGrp1 = ucTaskPrio / 8;
 712:../mindows/mds_core_c.c ****     ucPrioFlagGrp2 = ucPrioFlagGrp1 / 8;
 713:../mindows/mds_core_c.c **** 
 714:../mindows/mds_core_c.c ****     /* 获取优先级标志在每一组中的位置 */
ARM GAS  C:\DOCUME~1\ADMINI~1\LOCALS~1\Temp\cc1Hp51A.s 			page 16


 715:../mindows/mds_core_c.c ****     ucPosInGrp1 = ucTaskPrio % 8;
 716:../mindows/mds_core_c.c ****     ucPosInGrp2 = ucPrioFlagGrp1 % 8;
 717:../mindows/mds_core_c.c ****     ucPosInGrp3 = ucPrioFlagGrp2;
 718:../mindows/mds_core_c.c **** 
 719:../mindows/mds_core_c.c ****     /* 在每一组中清除优先级标志 */
 720:../mindows/mds_core_c.c ****     pstrPrioFlag->aucPrioFlagGrp1[ucPrioFlagGrp1] &= ~((U8)(1 << ucPosInGrp1));
 721:../mindows/mds_core_c.c ****     if(0 == pstrPrioFlag->aucPrioFlagGrp1[ucPrioFlagGrp1])
 722:../mindows/mds_core_c.c ****     {
 723:../mindows/mds_core_c.c ****         pstrPrioFlag->aucPrioFlagGrp2[ucPrioFlagGrp2] &= ~((U8)(1 << ucPosInGrp2));
 724:../mindows/mds_core_c.c ****         if(0 == pstrPrioFlag->aucPrioFlagGrp2[ucPrioFlagGrp2])
 725:../mindows/mds_core_c.c ****         {
 726:../mindows/mds_core_c.c ****             pstrPrioFlag->ucPrioFlagGrp3 &= ~((U8)(1 << ucPosInGrp3));
 727:../mindows/mds_core_c.c ****         }
 728:../mindows/mds_core_c.c ****     }
 729:../mindows/mds_core_c.c **** 
 730:../mindows/mds_core_c.c **** #elif PRIORITYNUM >= PRIORITY16
 731:../mindows/mds_core_c.c **** 
 732:../mindows/mds_core_c.c ****     ucPrioFlagGrp1 = ucTaskPrio / 8;
 733:../mindows/mds_core_c.c **** 
 734:../mindows/mds_core_c.c ****     ucPosInGrp1 = ucTaskPrio % 8;
 735:../mindows/mds_core_c.c ****     ucPosInGrp2 = ucPrioFlagGrp1;
 736:../mindows/mds_core_c.c **** 
 737:../mindows/mds_core_c.c ****     pstrPrioFlag->aucPrioFlagGrp1[ucPrioFlagGrp1] &= ~((U8)(1 << ucPosInGrp1));
 738:../mindows/mds_core_c.c ****     if(0 == pstrPrioFlag->aucPrioFlagGrp1[ucPrioFlagGrp1])
 739:../mindows/mds_core_c.c ****     {
 740:../mindows/mds_core_c.c ****         pstrPrioFlag->ucPrioFlagGrp2 &= ~((U8)(1 << ucPosInGrp2));
 741:../mindows/mds_core_c.c ****     }
 742:../mindows/mds_core_c.c **** 
 743:../mindows/mds_core_c.c **** #else
 744:../mindows/mds_core_c.c **** 
 745:../mindows/mds_core_c.c ****     pstrPrioFlag->ucPrioFlagGrp1 &= ~((U8)(1 << ucTaskPrio));
 746:../mindows/mds_core_c.c **** 
 747:../mindows/mds_core_c.c **** #endif
 748:../mindows/mds_core_c.c **** }
 749:../mindows/mds_core_c.c **** 
 750:../mindows/mds_core_c.c **** /***********************************************************************************
 751:../mindows/mds_core_c.c **** 函数功能: 获取任务调度表中任务的最高优先级.
 752:../mindows/mds_core_c.c **** 入口参数: pstrPrioFlag: 调度表的优先级标志表指针.
 753:../mindows/mds_core_c.c **** 返 回 值: 任务调度表中的最高优先级.
 754:../mindows/mds_core_c.c **** ***********************************************************************************/
 755:../mindows/mds_core_c.c **** U8 MDS_TaskHighestPrioGet(M_PRIOFLAG* pstrPrioFlag)
 756:../mindows/mds_core_c.c **** {
 757:../mindows/mds_core_c.c **** #if PRIORITYNUM >= PRIORITY128
 758:../mindows/mds_core_c.c ****     U8 ucPrioFlagGrp1;
 759:../mindows/mds_core_c.c ****     U8 ucPrioFlagGrp2;
 760:../mindows/mds_core_c.c ****     U8 ucHighestFlagInGrp1;
 761:../mindows/mds_core_c.c **** #elif PRIORITYNUM >= PRIORITY16
 762:../mindows/mds_core_c.c ****     U8 ucPrioFlagGrp1;
 763:../mindows/mds_core_c.c ****     U8 ucHighestFlagInGrp1;
 764:../mindows/mds_core_c.c **** #endif
 765:../mindows/mds_core_c.c **** 
 766:../mindows/mds_core_c.c ****     /* 获取任务调度表中的最高优先级 */
 767:../mindows/mds_core_c.c **** #if PRIORITYNUM >= PRIORITY128
 768:../mindows/mds_core_c.c **** 
 769:../mindows/mds_core_c.c ****     ucPrioFlagGrp2 = caucTaskPrioUnmapTab[pstrPrioFlag->ucPrioFlagGrp3];
 770:../mindows/mds_core_c.c **** 
 771:../mindows/mds_core_c.c ****     ucPrioFlagGrp1 =
ARM GAS  C:\DOCUME~1\ADMINI~1\LOCALS~1\Temp\cc1Hp51A.s 			page 17


 772:../mindows/mds_core_c.c ****                 caucTaskPrioUnmapTab[pstrPrioFlag->aucPrioFlagGrp2[ucPrioFlagGrp2]];
 773:../mindows/mds_core_c.c **** 
 774:../mindows/mds_core_c.c ****     ucHighestFlagInGrp1 = caucTaskPrioUnmapTab[pstrPrioFlag->aucPrioFlagGrp1
 775:../mindows/mds_core_c.c ****                                              [ucPrioFlagGrp2 * 8 + ucPrioFlagGrp1]];
 776:../mindows/mds_core_c.c **** 
 777:../mindows/mds_core_c.c ****     return (U8)((ucPrioFlagGrp2 * 8 + ucPrioFlagGrp1) * 8 + ucHighestFlagInGrp1);
 778:../mindows/mds_core_c.c **** 
 779:../mindows/mds_core_c.c **** #elif PRIORITYNUM >= PRIORITY16
 780:../mindows/mds_core_c.c **** 
 781:../mindows/mds_core_c.c ****     ucPrioFlagGrp1 = caucTaskPrioUnmapTab[pstrPrioFlag->ucPrioFlagGrp2];
 782:../mindows/mds_core_c.c **** 
 783:../mindows/mds_core_c.c ****     ucHighestFlagInGrp1 =
 784:../mindows/mds_core_c.c ****                 caucTaskPrioUnmapTab[pstrPrioFlag->aucPrioFlagGrp1[ucPrioFlagGrp1]];
 785:../mindows/mds_core_c.c **** 
 786:../mindows/mds_core_c.c ****     return (U8)(ucPrioFlagGrp1 * 8 + ucHighestFlagInGrp1);
 787:../mindows/mds_core_c.c **** 
 788:../mindows/mds_core_c.c **** #else
 789:../mindows/mds_core_c.c **** 
 790:../mindows/mds_core_c.c ****     return caucTaskPrioUnmapTab[pstrPrioFlag->ucPrioFlagGrp1];
 791:../mindows/mds_core_c.c **** 
 792:../mindows/mds_core_c.c **** #endif
 793:../mindows/mds_core_c.c **** }
 794:../mindows/mds_core_c.c **** 
 795:../mindows/mds_core_c.c **** /***********************************************************************************
 796:../mindows/mds_core_c.c **** 函数功能: 获取系统当前的tick.
 797:../mindows/mds_core_c.c **** 入口参数: none.
 798:../mindows/mds_core_c.c **** 返 回 值: 系统当前的tick.
 799:../mindows/mds_core_c.c **** ***********************************************************************************/
 800:../mindows/mds_core_c.c **** U32 MDS_SystemTickGet(void)
 801:../mindows/mds_core_c.c **** {
 802:../mindows/mds_core_c.c ****     return guiTick;
 803:../mindows/mds_core_c.c **** }
 804:../mindows/mds_core_c.c **** 
 805:../mindows/mds_core_c.c **** /***********************************************************************************
 806:../mindows/mds_core_c.c **** 函数功能: 获取系统当前任务的TCB.
 807:../mindows/mds_core_c.c **** 入口参数: none.
 808:../mindows/mds_core_c.c **** 返 回 值: 系统当前的TCB.
 809:../mindows/mds_core_c.c **** ***********************************************************************************/
 810:../mindows/mds_core_c.c **** M_TCB* MDS_CurrentTcbGet(void)
 811:../mindows/mds_core_c.c **** {
 812:../mindows/mds_core_c.c ****     return gpstrCurTcb;
 813:../mindows/mds_core_c.c **** }
 814:../mindows/mds_core_c.c **** 
 815:../mindows/mds_core_c.c **** /***********************************************************************************
 816:../mindows/mds_core_c.c **** 函数功能: 禁止总中断, 非user模式下调用该函数不做任何操作. 必须与MDS_IntUnlock函数成
 817:../mindows/mds_core_c.c ****           对使用.
 818:../mindows/mds_core_c.c **** 入口参数: none.
 819:../mindows/mds_core_c.c **** 返 回 值: RTN_SUCD: 锁中断成功.
 820:../mindows/mds_core_c.c ****           RTN_FAIL: 锁中断失败.
 821:../mindows/mds_core_c.c **** ***********************************************************************************/
 822:../mindows/mds_core_c.c **** U32 MDS_IntLock(void)
 823:../mindows/mds_core_c.c **** {
 824:../mindows/mds_core_c.c ****     /* 非操作系统状态, 不设置中断 */
 825:../mindows/mds_core_c.c ****     if(NULL == gpstrCurTcb)
 826:../mindows/mds_core_c.c ****     {
 827:../mindows/mds_core_c.c ****         return RTN_SUCD;
 828:../mindows/mds_core_c.c ****     }
ARM GAS  C:\DOCUME~1\ADMINI~1\LOCALS~1\Temp\cc1Hp51A.s 			page 18


 829:../mindows/mds_core_c.c **** 
 830:../mindows/mds_core_c.c ****     /* 如果在中断中运行该函数则直接返回 */
 831:../mindows/mds_core_c.c ****     if(RTN_SUCD == MDS_RunInInt())
 832:../mindows/mds_core_c.c ****     {
 833:../mindows/mds_core_c.c ****         return RTN_SUCD;
 834:../mindows/mds_core_c.c ****     }
 835:../mindows/mds_core_c.c **** 
 836:../mindows/mds_core_c.c ****     /* 第一次调用该函数才做实际的锁中断操作 */
 837:../mindows/mds_core_c.c ****     if(0 == guiIntLockCounter)
 838:../mindows/mds_core_c.c ****     {
 839:../mindows/mds_core_c.c ****         MDS_TaskOccurSwi(SWI_INTDISABLE);
 840:../mindows/mds_core_c.c **** 
 841:../mindows/mds_core_c.c ****         guiIntLockCounter++;
 842:../mindows/mds_core_c.c **** 
 843:../mindows/mds_core_c.c ****         return RTN_SUCD;
 844:../mindows/mds_core_c.c ****     }
 845:../mindows/mds_core_c.c ****     /* 非第一次调用该函数并且小于最大次数则直接返回成功 */
 846:../mindows/mds_core_c.c ****     else if(guiIntLockCounter < 0xFFFFFFFF)
 847:../mindows/mds_core_c.c ****     {
 848:../mindows/mds_core_c.c ****         guiIntLockCounter++;
 849:../mindows/mds_core_c.c **** 
 850:../mindows/mds_core_c.c ****         return RTN_SUCD;
 851:../mindows/mds_core_c.c ****     }
 852:../mindows/mds_core_c.c ****     else /* 超出最大次数则直接返回失败 */
 853:../mindows/mds_core_c.c ****     {
 854:../mindows/mds_core_c.c ****         return RTN_FAIL;
 855:../mindows/mds_core_c.c ****     }
 856:../mindows/mds_core_c.c **** }
 857:../mindows/mds_core_c.c **** 
 858:../mindows/mds_core_c.c **** /***********************************************************************************
 859:../mindows/mds_core_c.c **** 函数功能: 使能总中断, 非user模式下调用该函数不做任何操作. 必须与MDS_IntLock函数成对
 860:../mindows/mds_core_c.c ****           使用.
 861:../mindows/mds_core_c.c **** 入口参数: none.
 862:../mindows/mds_core_c.c **** 返 回 值: RTN_SUCD: 解锁中断成功.
 863:../mindows/mds_core_c.c ****           RTN_FAIL: 解锁中断失败.
 864:../mindows/mds_core_c.c **** ***********************************************************************************/
 865:../mindows/mds_core_c.c **** U32 MDS_IntUnlock(void)
 866:../mindows/mds_core_c.c **** {
 867:../mindows/mds_core_c.c ****     /* 非操作系统状态, 不设置中断 */
 868:../mindows/mds_core_c.c ****     if(NULL == gpstrCurTcb)
 869:../mindows/mds_core_c.c ****     {
 870:../mindows/mds_core_c.c ****         return RTN_SUCD;
 871:../mindows/mds_core_c.c ****     }
 872:../mindows/mds_core_c.c **** 
 873:../mindows/mds_core_c.c ****     /* 如果在中断中运行该函数则直接返回 */
 874:../mindows/mds_core_c.c ****     if(RTN_SUCD == MDS_RunInInt())
 875:../mindows/mds_core_c.c ****     {
 876:../mindows/mds_core_c.c ****         return RTN_SUCD;
 877:../mindows/mds_core_c.c ****     }
 878:../mindows/mds_core_c.c **** 
 879:../mindows/mds_core_c.c ****     /* 非第一次调用该函数直接返回成功 */
 880:../mindows/mds_core_c.c ****     if(guiIntLockCounter > 1)
 881:../mindows/mds_core_c.c ****     {
 882:../mindows/mds_core_c.c ****         guiIntLockCounter--;
 883:../mindows/mds_core_c.c **** 
 884:../mindows/mds_core_c.c ****         return RTN_SUCD;
 885:../mindows/mds_core_c.c ****     }
ARM GAS  C:\DOCUME~1\ADMINI~1\LOCALS~1\Temp\cc1Hp51A.s 			page 19


 886:../mindows/mds_core_c.c ****     /* 最后一次调用该函数才做实际的解锁中断操作 */
 887:../mindows/mds_core_c.c ****     else if(1 == guiIntLockCounter)
 888:../mindows/mds_core_c.c ****     {
 889:../mindows/mds_core_c.c ****         guiIntLockCounter--;
 890:../mindows/mds_core_c.c **** 
 891:../mindows/mds_core_c.c ****         MDS_TaskOccurSwi(SWI_INTENABLE);
 892:../mindows/mds_core_c.c **** 
 893:../mindows/mds_core_c.c ****         return RTN_SUCD;
 894:../mindows/mds_core_c.c ****     }
 895:../mindows/mds_core_c.c ****     else /* 等于0次则直接返回失败 */
 896:../mindows/mds_core_c.c ****     {
 897:../mindows/mds_core_c.c ****         return RTN_FAIL;
 898:../mindows/mds_core_c.c ****     }
 899:../mindows/mds_core_c.c **** }
 900:../mindows/mds_core_c.c **** 
 901:../mindows/mds_core_c.c **** /***********************************************************************************
 902:../mindows/mds_core_c.c **** 函数功能: 初始化链表.
 903:../mindows/mds_core_c.c **** 入口参数: pstrChain: 链表根节点指针.
 904:../mindows/mds_core_c.c **** 返 回 值: none.
 905:../mindows/mds_core_c.c **** ***********************************************************************************/
 906:../mindows/mds_core_c.c **** void MDS_ChainInit(M_CHAIN* pstrChain)
 907:../mindows/mds_core_c.c **** {
 908:../mindows/mds_core_c.c ****     /* 空链表的头尾都指向空节点 */
 909:../mindows/mds_core_c.c ****     pstrChain->pstrHead = (M_CHAIN*)NULL;
 128              		.loc 1 909 0
 129 006c 6C309FE5 		ldr	r3, .L6+20
 130              	.LBE97:
 131              	.LBE96:
 132              	.LBE95:
 133              	.LBE94:
 134              	.LBB101:
 135              	.LBB102:
 136 0070 6C209FE5 		ldr	r2, .L6+24
 137              	.LBE102:
 138              	.LBE101:
 139              	.LBB104:
 140              	.LBB100:
 141              	.LBB99:
 142              	.LBB98:
 143 0074 004083E5 		str	r4, [r3, #0]
 910:../mindows/mds_core_c.c ****     pstrChain->pstrTail = (M_CHAIN*)NULL;
 144              		.loc 1 910 0
 145 0078 044083E5 		str	r4, [r3, #4]
 146              	.LVL3:
 909:../mindows/mds_core_c.c ****     pstrChain->pstrHead = (M_CHAIN*)NULL;
 147              		.loc 1 909 0
 148 007c 084083E5 		str	r4, [r3, #8]
 149              		.loc 1 910 0
 150 0080 0C4083E5 		str	r4, [r3, #12]
 151              	.LVL4:
 909:../mindows/mds_core_c.c ****     pstrChain->pstrHead = (M_CHAIN*)NULL;
 152              		.loc 1 909 0
 153 0084 104083E5 		str	r4, [r3, #16]
 154              		.loc 1 910 0
 155 0088 144083E5 		str	r4, [r3, #20]
 156              	.LVL5:
 909:../mindows/mds_core_c.c ****     pstrChain->pstrHead = (M_CHAIN*)NULL;
ARM GAS  C:\DOCUME~1\ADMINI~1\LOCALS~1\Temp\cc1Hp51A.s 			page 20


 157              		.loc 1 909 0
 158 008c 184083E5 		str	r4, [r3, #24]
 159              		.loc 1 910 0
 160 0090 1C4083E5 		str	r4, [r3, #28]
 161              	.LVL6:
 909:../mindows/mds_core_c.c ****     pstrChain->pstrHead = (M_CHAIN*)NULL;
 162              		.loc 1 909 0
 163 0094 204083E5 		str	r4, [r3, #32]
 164              		.loc 1 910 0
 165 0098 244083E5 		str	r4, [r3, #36]
 166              	.LVL7:
 909:../mindows/mds_core_c.c ****     pstrChain->pstrHead = (M_CHAIN*)NULL;
 167              		.loc 1 909 0
 168 009c 284083E5 		str	r4, [r3, #40]
 169              		.loc 1 910 0
 170 00a0 2C4083E5 		str	r4, [r3, #44]
 171              	.LVL8:
 909:../mindows/mds_core_c.c ****     pstrChain->pstrHead = (M_CHAIN*)NULL;
 172              		.loc 1 909 0
 173 00a4 304083E5 		str	r4, [r3, #48]
 174              		.loc 1 910 0
 175 00a8 344083E5 		str	r4, [r3, #52]
 176              	.LVL9:
 909:../mindows/mds_core_c.c ****     pstrChain->pstrHead = (M_CHAIN*)NULL;
 177              		.loc 1 909 0
 178 00ac 384083E5 		str	r4, [r3, #56]
 179              		.loc 1 910 0
 180 00b0 3C4083E5 		str	r4, [r3, #60]
 181              	.LVL10:
 182              	.LBE98:
 183              	.LBE99:
 210:../mindows/mds_core_c.c ****     pstrSchedTab->strFlag.ucPrioFlagGrp1 = 0;
 184              		.loc 1 210 0
 185 00b4 4040C3E5 		strb	r4, [r3, #64]
 186              	.LVL11:
 187              	.LBE100:
 188              	.LBE104:
 189              	.LBB105:
 190              	.LBB103:
 909:../mindows/mds_core_c.c ****     pstrChain->pstrHead = (M_CHAIN*)NULL;
 191              		.loc 1 909 0
 192 00b8 004082E5 		str	r4, [r2, #0]
 193              		.loc 1 910 0
 194 00bc 044082E5 		str	r4, [r2, #4]
 195              	.LBE103:
 196              	.LBE105:
 117:../mindows/mds_core_c.c **** }
 197              		.loc 1 117 0
 198 00c0 14D04BE2 		sub	sp, fp, #20
 199 00c4 18689DE8 		ldmfd	sp, {r3, r4, fp, sp, lr}
 200 00c8 1EFF2FE1 		bx	lr
 201              	.L7:
 202              		.align	2
 203              	.L6:
 204 00cc 00000000 		.word	gpstrCurTcb
 205 00d0 00000000 		.word	gpstrRootTaskTcb
 206 00d4 00000000 		.word	guiTick
ARM GAS  C:\DOCUME~1\ADMINI~1\LOCALS~1\Temp\cc1Hp51A.s 			page 21


 207 00d8 00000000 		.word	guiIntLockCounter
 208 00dc 00000000 		.word	gpstrIdleTaskTcb
 209 00e0 00000000 		.word	gstrReadyTab
 210 00e4 00000000 		.word	gstrDelayTab
 211              		.cfi_endproc
 212              	.LFE2:
 213              		.fnend
 214              		.size	MDS_SystemVarInit, .-MDS_SystemVarInit
 215              		.align	2
 216              		.global	MDS_TaskSwitch
 217              		.type	MDS_TaskSwitch, %function
 218              	MDS_TaskSwitch:
 219              		.fnstart
 220              	.LFB4:
 139:../mindows/mds_core_c.c **** {
 221              		.loc 1 139 0
 222              		.cfi_startproc
 223              		@ Function supports interworking.
 224              		@ args = 0, pretend = 0, frame = 0
 225              		@ frame_needed = 0, uses_anonymous_args = 0
 226              		@ link register save eliminated.
 227              	.LVL12:
 142:../mindows/mds_core_c.c ****     gpstrCurTaskSpAddr = &gpstrCurTcb->strStackReg;
 228              		.loc 1 142 0
 229 00e8 18309FE5 		ldr	r3, .L9
 230 00ec 18109FE5 		ldr	r1, .L9+4
 231 00f0 00C093E5 		ldr	ip, [r3, #0]
 146:../mindows/mds_core_c.c ****     gpstrNextTaskSpAddr = &pstrTcb->strStackReg;
 232              		.loc 1 146 0
 233 00f4 14209FE5 		ldr	r2, .L9+8
 142:../mindows/mds_core_c.c ****     gpstrCurTaskSpAddr = &gpstrCurTcb->strStackReg;
 234              		.loc 1 142 0
 235 00f8 00C081E5 		str	ip, [r1, #0]
 146:../mindows/mds_core_c.c ****     gpstrNextTaskSpAddr = &pstrTcb->strStackReg;
 236              		.loc 1 146 0
 237 00fc 000082E5 		str	r0, [r2, #0]
 149:../mindows/mds_core_c.c ****     gpstrCurTcb = pstrTcb;
 238              		.loc 1 149 0
 239 0100 000083E5 		str	r0, [r3, #0]
 150:../mindows/mds_core_c.c **** }
 240              		.loc 1 150 0
 241 0104 1EFF2FE1 		bx	lr
 242              	.L10:
 243              		.align	2
 244              	.L9:
 245 0108 00000000 		.word	gpstrCurTcb
 246 010c 00000000 		.word	gpstrCurTaskSpAddr
 247 0110 00000000 		.word	gpstrNextTaskSpAddr
 248              		.cfi_endproc
 249              	.LFE4:
 250              		.fnend
 251              		.size	MDS_TaskSwitch, .-MDS_TaskSwitch
 252              		.align	2
 253              		.global	MDS_TaskStart
 254              		.type	MDS_TaskStart, %function
 255              	MDS_TaskStart:
 256              		.fnstart
ARM GAS  C:\DOCUME~1\ADMINI~1\LOCALS~1\Temp\cc1Hp51A.s 			page 22


 257              	.LFB5:
 158:../mindows/mds_core_c.c **** {
 258              		.loc 1 158 0
 259              		.cfi_startproc
 260              		@ Function supports interworking.
 261              		@ args = 0, pretend = 0, frame = 0
 262              		@ frame_needed = 1, uses_anonymous_args = 0
 263              	.LVL13:
 161:../mindows/mds_core_c.c ****     gpstrNextTaskSpAddr = &pstrTcb->strStackReg;
 264              		.loc 1 161 0
 265 0114 24109FE5 		ldr	r1, .L12
 164:../mindows/mds_core_c.c ****     gpstrCurTcb = pstrTcb;
 266              		.loc 1 164 0
 267 0118 24309FE5 		ldr	r3, .L12+4
 158:../mindows/mds_core_c.c **** {
 268              		.loc 1 158 0
 269              		.movsp ip
 270 011c 0DC0A0E1 		mov	ip, sp
 271              	.LCFI4:
 272              		.cfi_def_cfa_register 12
 273 0120 00D82DE9 		stmfd	sp!, {fp, ip, lr, pc}
 274              		.pad #4
 275              		.save {fp, ip, lr}
 276              		.setfp fp, ip, #-4
 277 0124 04B04CE2 		sub	fp, ip, #4
 278              		.cfi_offset 14, -8
 279              		.cfi_offset 13, -12
 280              		.cfi_offset 11, -16
 281              	.LCFI5:
 282              		.cfi_def_cfa 11, 4
 161:../mindows/mds_core_c.c ****     gpstrNextTaskSpAddr = &pstrTcb->strStackReg;
 283              		.loc 1 161 0
 284 0128 000081E5 		str	r0, [r1, #0]
 164:../mindows/mds_core_c.c ****     gpstrCurTcb = pstrTcb;
 285              		.loc 1 164 0
 286 012c 000083E5 		str	r0, [r3, #0]
 166:../mindows/mds_core_c.c ****     MDS_SwitchToTask();
 287              		.loc 1 166 0
 288 0130 FEFFFFEB 		bl	MDS_SwitchToTask
 289              	.LVL14:
 167:../mindows/mds_core_c.c **** }
 290              		.loc 1 167 0
 291 0134 0CD04BE2 		sub	sp, fp, #12
 292 0138 00689DE8 		ldmfd	sp, {fp, sp, lr}
 293 013c 1EFF2FE1 		bx	lr
 294              	.L13:
 295              		.align	2
 296              	.L12:
 297 0140 00000000 		.word	gpstrNextTaskSpAddr
 298 0144 00000000 		.word	gpstrCurTcb
 299              		.cfi_endproc
 300              	.LFE5:
 301              		.fnend
 302              		.size	MDS_TaskStart, .-MDS_TaskStart
 303              		.align	2
 304              		.global	main
 305              		.type	main, %function
ARM GAS  C:\DOCUME~1\ADMINI~1\LOCALS~1\Temp\cc1Hp51A.s 			page 23


 306              	main:
 307              		.fnstart
 308              	.LFB0:
  49:../mindows/mds_core_c.c **** {
 309              		.loc 1 49 0
 310              		.cfi_startproc
 311              		@ Function supports interworking.
 312              		@ args = 0, pretend = 0, frame = 0
 313              		@ frame_needed = 1, uses_anonymous_args = 0
 314              		.movsp ip
 315 0148 0DC0A0E1 		mov	ip, sp
 316              	.LCFI6:
 317              		.cfi_def_cfa_register 12
 318 014c 30D82DE9 		stmfd	sp!, {r4, r5, fp, ip, lr, pc}
 319              		.pad #4
 320              		.save {r4, r5, fp, ip, lr}
 321              		.setfp fp, ip, #-4
 322 0150 04B04CE2 		sub	fp, ip, #4
 323              		.cfi_offset 14, -8
 324              		.cfi_offset 13, -12
 325              		.cfi_offset 11, -16
 326              		.cfi_offset 5, -20
 327              		.cfi_offset 4, -24
 328              	.LCFI7:
 329              		.cfi_def_cfa 11, 4
 330              		.pad #8
 331 0154 08D04DE2 		sub	sp, sp, #8
  51:../mindows/mds_core_c.c ****     MDS_SystemVarInit();
 332              		.loc 1 51 0
 333 0158 FEFFFFEB 		bl	MDS_SystemVarInit
  54:../mindows/mds_core_c.c ****     gpstrRootTaskTcb = MDS_TaskCreate((U8*)"Root", (VFUNC)MDS_RootTask,
 334              		.loc 1 54 0
 335 015c 0040A0E3 		mov	r4, #0
 336 0160 5C109FE5 		ldr	r1, .L15
 337 0164 5C209FE5 		ldr	r2, .L15+4
 338 0168 963FA0E3 		mov	r3, #600
 339 016c 58009FE5 		ldr	r0, .L15+8
 340 0170 00408DE5 		str	r4, [sp, #0]
 341 0174 04408DE5 		str	r4, [sp, #4]
 342 0178 FEFFFFEB 		bl	MDS_TaskCreate
 343 017c 4C509FE5 		ldr	r5, .L15+12
  58:../mindows/mds_core_c.c ****     gpstrIdleTaskTcb = MDS_TaskCreate((U8*)"Idle", (VFUNC)MDS_IdleTask,
 344              		.loc 1 58 0
 345 0180 07C0A0E3 		mov	ip, #7
 346 0184 48109FE5 		ldr	r1, .L15+16
  54:../mindows/mds_core_c.c ****     gpstrRootTaskTcb = MDS_TaskCreate((U8*)"Root", (VFUNC)MDS_RootTask,
 347              		.loc 1 54 0
 348 0188 000085E5 		str	r0, [r5, #0]
  58:../mindows/mds_core_c.c ****     gpstrIdleTaskTcb = MDS_TaskCreate((U8*)"Idle", (VFUNC)MDS_IdleTask,
 349              		.loc 1 58 0
 350 018c 44209FE5 		ldr	r2, .L15+20
 351 0190 963FA0E3 		mov	r3, #600
 352 0194 40009FE5 		ldr	r0, .L15+24
 353 0198 00C08DE5 		str	ip, [sp, #0]
 354 019c 04408DE5 		str	r4, [sp, #4]
 355 01a0 FEFFFFEB 		bl	MDS_TaskCreate
 356 01a4 34309FE5 		ldr	r3, .L15+28
ARM GAS  C:\DOCUME~1\ADMINI~1\LOCALS~1\Temp\cc1Hp51A.s 			page 24


 357 01a8 000083E5 		str	r0, [r3, #0]
  62:../mindows/mds_core_c.c ****     MDS_TaskStart(gpstrRootTaskTcb);
 358              		.loc 1 62 0
 359 01ac 000095E5 		ldr	r0, [r5, #0]
 360 01b0 FEFFFFEB 		bl	MDS_TaskStart
  65:../mindows/mds_core_c.c **** }
 361              		.loc 1 65 0
 362 01b4 0400A0E1 		mov	r0, r4
 363 01b8 14D04BE2 		sub	sp, fp, #20
 364 01bc 30689DE8 		ldmfd	sp, {r4, r5, fp, sp, lr}
 365 01c0 1EFF2FE1 		bx	lr
 366              	.L16:
 367              		.align	2
 368              	.L15:
 369 01c4 00000000 		.word	MDS_RootTask
 370 01c8 00000000 		.word	gaucRootTaskStack
 371 01cc 00000000 		.word	.LC0
 372 01d0 00000000 		.word	gpstrRootTaskTcb
 373 01d4 00000000 		.word	MDS_IdleTask
 374 01d8 00000000 		.word	gaucIdleTaskStack
 375 01dc 08000000 		.word	.LC1
 376 01e0 00000000 		.word	gpstrIdleTaskTcb
 377              		.cfi_endproc
 378              	.LFE0:
 379              		.fnend
 380              		.size	main, .-main
 381              		.align	2
 382              		.global	MDS_TaskSchedTabInit
 383              		.type	MDS_TaskSchedTabInit, %function
 384              	MDS_TaskSchedTabInit:
 385              		.fnstart
 386              	.LFB6:
 175:../mindows/mds_core_c.c **** {
 387              		.loc 1 175 0
 388              		.cfi_startproc
 389              		@ Function supports interworking.
 390              		@ args = 0, pretend = 0, frame = 0
 391              		@ frame_needed = 0, uses_anonymous_args = 0
 392              		@ link register save eliminated.
 393              	.LVL15:
 394              	.LBB106:
 395              	.LBB107:
 909:../mindows/mds_core_c.c ****     pstrChain->pstrHead = (M_CHAIN*)NULL;
 396              		.loc 1 909 0
 397 01e4 0030A0E3 		mov	r3, #0
 398 01e8 003080E5 		str	r3, [r0, #0]
 399              		.loc 1 910 0
 400 01ec 043080E5 		str	r3, [r0, #4]
 401              	.LVL16:
 909:../mindows/mds_core_c.c ****     pstrChain->pstrHead = (M_CHAIN*)NULL;
 402              		.loc 1 909 0
 403 01f0 083080E5 		str	r3, [r0, #8]
 404              		.loc 1 910 0
 405 01f4 0C3080E5 		str	r3, [r0, #12]
 406              	.LVL17:
 909:../mindows/mds_core_c.c ****     pstrChain->pstrHead = (M_CHAIN*)NULL;
 407              		.loc 1 909 0
ARM GAS  C:\DOCUME~1\ADMINI~1\LOCALS~1\Temp\cc1Hp51A.s 			page 25


 408 01f8 103080E5 		str	r3, [r0, #16]
 409              		.loc 1 910 0
 410 01fc 143080E5 		str	r3, [r0, #20]
 411              	.LVL18:
 909:../mindows/mds_core_c.c ****     pstrChain->pstrHead = (M_CHAIN*)NULL;
 412              		.loc 1 909 0
 413 0200 183080E5 		str	r3, [r0, #24]
 414              		.loc 1 910 0
 415 0204 1C3080E5 		str	r3, [r0, #28]
 416              	.LVL19:
 909:../mindows/mds_core_c.c ****     pstrChain->pstrHead = (M_CHAIN*)NULL;
 417              		.loc 1 909 0
 418 0208 203080E5 		str	r3, [r0, #32]
 419              		.loc 1 910 0
 420 020c 243080E5 		str	r3, [r0, #36]
 421              	.LVL20:
 909:../mindows/mds_core_c.c ****     pstrChain->pstrHead = (M_CHAIN*)NULL;
 422              		.loc 1 909 0
 423 0210 283080E5 		str	r3, [r0, #40]
 424              		.loc 1 910 0
 425 0214 2C3080E5 		str	r3, [r0, #44]
 426              	.LVL21:
 909:../mindows/mds_core_c.c ****     pstrChain->pstrHead = (M_CHAIN*)NULL;
 427              		.loc 1 909 0
 428 0218 303080E5 		str	r3, [r0, #48]
 429              		.loc 1 910 0
 430 021c 343080E5 		str	r3, [r0, #52]
 431              	.LVL22:
 909:../mindows/mds_core_c.c ****     pstrChain->pstrHead = (M_CHAIN*)NULL;
 432              		.loc 1 909 0
 433 0220 383080E5 		str	r3, [r0, #56]
 434              		.loc 1 910 0
 435 0224 3C3080E5 		str	r3, [r0, #60]
 436              	.LVL23:
 437              	.LBE107:
 438              	.LBE106:
 210:../mindows/mds_core_c.c ****     pstrSchedTab->strFlag.ucPrioFlagGrp1 = 0;
 439              		.loc 1 210 0
 440 0228 4030C0E5 		strb	r3, [r0, #64]
 213:../mindows/mds_core_c.c **** }
 441              		.loc 1 213 0
 442 022c 1EFF2FE1 		bx	lr
 443              		.cfi_endproc
 444              	.LFE6:
 445              		.fnend
 446              		.size	MDS_TaskSchedTabInit, .-MDS_TaskSchedTabInit
 447              		.align	2
 448              		.global	MDS_TaskAddToSchedTab
 449              		.type	MDS_TaskAddToSchedTab, %function
 450              	MDS_TaskAddToSchedTab:
 451              		.fnstart
 452              	.LFB7:
 225:../mindows/mds_core_c.c **** {
 453              		.loc 1 225 0
 454              		.cfi_startproc
 455              		@ Function supports interworking.
 456              		@ args = 0, pretend = 0, frame = 0
ARM GAS  C:\DOCUME~1\ADMINI~1\LOCALS~1\Temp\cc1Hp51A.s 			page 26


 457              		@ frame_needed = 0, uses_anonymous_args = 0
 458              		@ link register save eliminated.
 459              	.LVL24:
 460              	.LBB108:
 461              	.LBB109:
 911:../mindows/mds_core_c.c **** }
 912:../mindows/mds_core_c.c **** 
 913:../mindows/mds_core_c.c **** /***********************************************************************************
 914:../mindows/mds_core_c.c **** 函数功能: 向链表添加一个节点, 从链表尾部加入.
 915:../mindows/mds_core_c.c **** 入口参数: pstrChain: 链表根节点指针.
 916:../mindows/mds_core_c.c ****           pstrNode: 加入的节点指针.
 917:../mindows/mds_core_c.c **** 返 回 值: none.
 918:../mindows/mds_core_c.c **** ***********************************************************************************/
 919:../mindows/mds_core_c.c **** void MDS_ChainNodeAdd(M_CHAIN* pstrChain, M_CHAIN* pstrNode)
 920:../mindows/mds_core_c.c **** {
 921:../mindows/mds_core_c.c ****     /* 链表非空 */
 922:../mindows/mds_core_c.c ****     if(NULL != pstrChain->pstrTail)
 462              		.loc 1 922 0
 463 0230 04C090E5 		ldr	ip, [r0, #4]
 464 0234 00005CE3 		cmp	ip, #0
 465              	.LVL25:
 923:../mindows/mds_core_c.c ****     {
 924:../mindows/mds_core_c.c ****         /* 新节点的头指向原尾节点 */
 925:../mindows/mds_core_c.c ****         pstrNode->pstrHead = pstrChain->pstrHead;
 466              		.loc 1 925 0
 467 0238 00C09015 		ldrne	ip, [r0, #0]
 468 023c 00C08115 		strne	ip, [r1, #0]
 926:../mindows/mds_core_c.c **** 
 927:../mindows/mds_core_c.c ****         /* 新节点的尾指向根节点 */
 928:../mindows/mds_core_c.c ****         pstrNode->pstrTail = pstrChain;
 929:../mindows/mds_core_c.c **** 
 930:../mindows/mds_core_c.c ****         /* 原尾节点的尾指向新节点 */
 931:../mindows/mds_core_c.c ****         pstrChain->pstrHead->pstrTail = pstrNode;
 469              		.loc 1 931 0
 470 0240 00C09015 		ldrne	ip, [r0, #0]
 928:../mindows/mds_core_c.c ****         pstrNode->pstrTail = pstrChain;
 471              		.loc 1 928 0
 472 0244 04008115 		strne	r0, [r1, #4]
 932:../mindows/mds_core_c.c **** 
 933:../mindows/mds_core_c.c ****         /* 根节点的头指向新加入的节点 */
 934:../mindows/mds_core_c.c ****         pstrChain->pstrHead = pstrNode;
 935:../mindows/mds_core_c.c ****     }
 936:../mindows/mds_core_c.c ****     else /* 链表为空 */
 937:../mindows/mds_core_c.c ****     {
 938:../mindows/mds_core_c.c ****         /* 新节点的头尾都指向根节点 */
 939:../mindows/mds_core_c.c ****         pstrNode->pstrHead = pstrChain;
 473              		.loc 1 939 0
 474 0248 00008105 		streq	r0, [r1, #0]
 940:../mindows/mds_core_c.c ****         pstrNode->pstrTail = pstrChain;
 475              		.loc 1 940 0
 476 024c 04008105 		streq	r0, [r1, #4]
 934:../mindows/mds_core_c.c ****         pstrChain->pstrHead = pstrNode;
 477              		.loc 1 934 0
 478 0250 00108015 		strne	r1, [r0, #0]
 941:../mindows/mds_core_c.c **** 
 942:../mindows/mds_core_c.c ****         /* 根节点的头尾都指向新节点 */
 943:../mindows/mds_core_c.c ****         pstrChain->pstrHead = pstrNode;
ARM GAS  C:\DOCUME~1\ADMINI~1\LOCALS~1\Temp\cc1Hp51A.s 			page 27


 479              		.loc 1 943 0
 480 0254 00108005 		streq	r1, [r0, #0]
 944:../mindows/mds_core_c.c ****         pstrChain->pstrTail = pstrNode;
 481              		.loc 1 944 0
 482 0258 04108005 		streq	r1, [r0, #4]
 483              	.LVL26:
 931:../mindows/mds_core_c.c ****         pstrChain->pstrHead->pstrTail = pstrNode;
 484              		.loc 1 931 0
 485 025c 04108C15 		strne	r1, [ip, #4]
 486              	.LBE109:
 487              	.LBE108:
 488              	.LBB110:
 489              	.LBB111:
 682:../mindows/mds_core_c.c ****     pstrPrioFlag->ucPrioFlagGrp1 |= (U8)(1 << ucTaskPrio);
 490              		.loc 1 682 0
 491 0260 0010D2E5 		ldrb	r1, [r2, #0]	@ zero_extendqisi2
 492              	.LVL27:
 493 0264 0100A0E3 		mov	r0, #1
 494              	.LVL28:
 495 0268 103381E1 		orr	r3, r1, r0, asl r3
 496              	.LVL29:
 497 026c 0030C2E5 		strb	r3, [r2, #0]
 498              	.LBE111:
 499              	.LBE110:
 231:../mindows/mds_core_c.c **** }
 500              		.loc 1 231 0
 501 0270 1EFF2FE1 		bx	lr
 502              		.cfi_endproc
 503              	.LFE7:
 504              		.fnend
 505              		.size	MDS_TaskAddToSchedTab, .-MDS_TaskAddToSchedTab
 506              		.align	2
 507              		.global	MDS_TaskAddToDelayTab
 508              		.type	MDS_TaskAddToDelayTab, %function
 509              	MDS_TaskAddToDelayTab:
 510              		.fnstart
 511              	.LFB8:
 239:../mindows/mds_core_c.c **** {
 512              		.loc 1 239 0
 513              		.cfi_startproc
 514              		@ Function supports interworking.
 515              		@ args = 0, pretend = 0, frame = 0
 516              		@ frame_needed = 0, uses_anonymous_args = 0
 517              		@ link register save eliminated.
 518              	.LVL30:
 519              	.LBB112:
 520              	.LBB113:
 945:../mindows/mds_core_c.c ****     }
 946:../mindows/mds_core_c.c **** }
 947:../mindows/mds_core_c.c **** 
 948:../mindows/mds_core_c.c **** /***********************************************************************************
 949:../mindows/mds_core_c.c **** 函数功能: 从链表删除一个节点, 从链表头部删除.
 950:../mindows/mds_core_c.c **** 入口参数: pstrChain: 链表根节点指针.
 951:../mindows/mds_core_c.c **** 返 回 值: 删除的节点指针, 若链表为空则返回NULL.
 952:../mindows/mds_core_c.c **** ***********************************************************************************/
 953:../mindows/mds_core_c.c **** M_CHAIN* MDS_ChainNodeDelete(M_CHAIN* pstrChain)
 954:../mindows/mds_core_c.c **** {
ARM GAS  C:\DOCUME~1\ADMINI~1\LOCALS~1\Temp\cc1Hp51A.s 			page 28


 955:../mindows/mds_core_c.c ****     M_CHAIN* pstrTempNode;
 956:../mindows/mds_core_c.c **** 
 957:../mindows/mds_core_c.c ****     /* 链表中的第一个节点 */
 958:../mindows/mds_core_c.c ****     pstrTempNode = pstrChain->pstrTail;
 959:../mindows/mds_core_c.c **** 
 960:../mindows/mds_core_c.c ****     /* 链表非空 */
 961:../mindows/mds_core_c.c ****     if(NULL != pstrTempNode)
 962:../mindows/mds_core_c.c ****     {
 963:../mindows/mds_core_c.c ****         /* 链表中有多个节点 */
 964:../mindows/mds_core_c.c ****         if(pstrChain->pstrHead != pstrChain->pstrTail)
 965:../mindows/mds_core_c.c ****         {
 966:../mindows/mds_core_c.c ****             /* 根节点的尾指向第二个节点 */
 967:../mindows/mds_core_c.c ****             pstrChain->pstrTail = pstrTempNode->pstrTail;
 968:../mindows/mds_core_c.c **** 
 969:../mindows/mds_core_c.c ****             /* 第二个节点的头指向根节点 */
 970:../mindows/mds_core_c.c ****             pstrTempNode->pstrTail->pstrHead = pstrChain;
 971:../mindows/mds_core_c.c ****         }
 972:../mindows/mds_core_c.c ****         else /* 链表中只有一个节点 */
 973:../mindows/mds_core_c.c ****         {
 974:../mindows/mds_core_c.c ****             /* 取出节点后链表为空 */
 975:../mindows/mds_core_c.c ****             pstrChain->pstrHead = (M_CHAIN*)NULL;
 976:../mindows/mds_core_c.c ****             pstrChain->pstrTail = (M_CHAIN*)NULL;
 977:../mindows/mds_core_c.c ****         }
 978:../mindows/mds_core_c.c **** 
 979:../mindows/mds_core_c.c ****         /* 返回取出的节点指针 */
 980:../mindows/mds_core_c.c ****         return pstrTempNode;
 981:../mindows/mds_core_c.c ****     }
 982:../mindows/mds_core_c.c ****     else /* 链表为空返回NULL */
 983:../mindows/mds_core_c.c ****     {
 984:../mindows/mds_core_c.c ****         return (M_CHAIN*)NULL;
 985:../mindows/mds_core_c.c ****     }
 986:../mindows/mds_core_c.c **** }
 987:../mindows/mds_core_c.c **** 
 988:../mindows/mds_core_c.c **** /***********************************************************************************
 989:../mindows/mds_core_c.c **** 函数功能: 向链表指定的节点前插入一个节点.
 990:../mindows/mds_core_c.c **** 入口参数: pstrChain: 链表根节点指针.
 991:../mindows/mds_core_c.c ****           pstrNode: 基准节点指针, 将新节点插到该节点前面.
 992:../mindows/mds_core_c.c ****           pstrNewNode: 新插入节点的指针.
 993:../mindows/mds_core_c.c **** 返 回 值: none.
 994:../mindows/mds_core_c.c **** ***********************************************************************************/
 995:../mindows/mds_core_c.c **** void MDS_ChainCurNodeInsert(M_CHAIN* pstrChain, M_CHAIN* pstrNode,
 996:../mindows/mds_core_c.c ****                             M_CHAIN* pstrNewNode)
 997:../mindows/mds_core_c.c **** {
 998:../mindows/mds_core_c.c ****     /* 基准节点不是根节点 */
 999:../mindows/mds_core_c.c ****     if(pstrChain != pstrNode)
1000:../mindows/mds_core_c.c ****     {
1001:../mindows/mds_core_c.c ****         /* 基准节点的上个节点的尾指向新节点 */
1002:../mindows/mds_core_c.c ****         pstrNode->pstrHead->pstrTail = pstrNewNode;
1003:../mindows/mds_core_c.c **** 
1004:../mindows/mds_core_c.c ****         /* 新节点的头指向基准节点的上个节点 */
1005:../mindows/mds_core_c.c ****         pstrNewNode->pstrHead = pstrNode->pstrHead;
1006:../mindows/mds_core_c.c **** 
1007:../mindows/mds_core_c.c ****         /* 新节点的尾指向基准节点 */
1008:../mindows/mds_core_c.c ****         pstrNewNode->pstrTail = pstrNode;
1009:../mindows/mds_core_c.c **** 
1010:../mindows/mds_core_c.c ****         /* 基准节点的头指向新节点 */
1011:../mindows/mds_core_c.c ****         pstrNode->pstrHead = pstrNewNode;
ARM GAS  C:\DOCUME~1\ADMINI~1\LOCALS~1\Temp\cc1Hp51A.s 			page 29


1012:../mindows/mds_core_c.c ****     }
1013:../mindows/mds_core_c.c ****     else /* 基准节点是根节点 */
1014:../mindows/mds_core_c.c ****     {
1015:../mindows/mds_core_c.c ****         MDS_ChainNodeAdd(pstrChain, pstrNewNode);
1016:../mindows/mds_core_c.c ****     }
1017:../mindows/mds_core_c.c **** }
1018:../mindows/mds_core_c.c **** 
1019:../mindows/mds_core_c.c **** /***********************************************************************************
1020:../mindows/mds_core_c.c **** 函数功能: 从链表删除指定的节点, 并返回下个节点的指针.
1021:../mindows/mds_core_c.c **** 入口参数: pstrChain: 链表根节点指针.
1022:../mindows/mds_core_c.c ****           pstrNode: 要删除的节点的指针.
1023:../mindows/mds_core_c.c **** 返 回 值: 删除节点的下个节点指针, 若没有下个节点则返回NULL.
1024:../mindows/mds_core_c.c **** ***********************************************************************************/
1025:../mindows/mds_core_c.c **** M_CHAIN* MDS_ChainCurNodeDelete(M_CHAIN* pstrChain, M_CHAIN* pstrNode)
1026:../mindows/mds_core_c.c **** {
1027:../mindows/mds_core_c.c ****     /* 要删除的节点不是根节点 */
1028:../mindows/mds_core_c.c ****     if(pstrChain != pstrNode)
1029:../mindows/mds_core_c.c ****     {
1030:../mindows/mds_core_c.c ****         /* 链表中有多个节点 */
1031:../mindows/mds_core_c.c ****         if((pstrNode->pstrHead != pstrChain) || (pstrNode->pstrTail != pstrChain))
1032:../mindows/mds_core_c.c ****         {
1033:../mindows/mds_core_c.c ****             /* 要删除节点的上个节点的尾指向要删除节点的下个节点 */
1034:../mindows/mds_core_c.c ****             pstrNode->pstrHead->pstrTail = pstrNode->pstrTail;
1035:../mindows/mds_core_c.c **** 
1036:../mindows/mds_core_c.c ****             /* 要删除节点的下个节点的头指向要删除节点的上个节点 */
1037:../mindows/mds_core_c.c ****             pstrNode->pstrTail->pstrHead = pstrNode->pstrHead;
1038:../mindows/mds_core_c.c **** 
1039:../mindows/mds_core_c.c ****             /* 返回删除节点的下个节点指针 */
1040:../mindows/mds_core_c.c ****             return pstrNode->pstrTail;
1041:../mindows/mds_core_c.c ****         }
1042:../mindows/mds_core_c.c ****         else /* 链表中只有一个节点 */
1043:../mindows/mds_core_c.c ****         {
1044:../mindows/mds_core_c.c ****             (void)MDS_ChainNodeDelete(pstrChain);
1045:../mindows/mds_core_c.c **** 
1046:../mindows/mds_core_c.c ****             /* 没有下个节点, 返回NULL */
1047:../mindows/mds_core_c.c ****             return (M_CHAIN*)NULL;
1048:../mindows/mds_core_c.c ****         }
1049:../mindows/mds_core_c.c ****     }
1050:../mindows/mds_core_c.c ****     else /* 删除根节点直接返回NULL */
1051:../mindows/mds_core_c.c ****     {
1052:../mindows/mds_core_c.c ****         return (M_CHAIN*)NULL;
1053:../mindows/mds_core_c.c ****     }
1054:../mindows/mds_core_c.c **** }
1055:../mindows/mds_core_c.c **** 
1056:../mindows/mds_core_c.c **** /***********************************************************************************
1057:../mindows/mds_core_c.c **** 函数功能: 查询链表是否为空.
1058:../mindows/mds_core_c.c **** 入口参数: pstrChain: 链表根节点指针.
1059:../mindows/mds_core_c.c **** 返 回 值: 若非空则返回第一个节点的指针, 若空则返回NULL.
1060:../mindows/mds_core_c.c **** ***********************************************************************************/
1061:../mindows/mds_core_c.c **** M_CHAIN* MDS_ChainEmpInq(M_CHAIN* pstrChain)
1062:../mindows/mds_core_c.c **** {
1063:../mindows/mds_core_c.c ****     return pstrChain->pstrTail;
 521              		.loc 1 1063 0
 522 0274 D4209FE5 		ldr	r2, .L43
 523 0278 043092E5 		ldr	r3, [r2, #4]
 524              	.LBE113:
 525              	.LBE112:
ARM GAS  C:\DOCUME~1\ADMINI~1\LOCALS~1\Temp\cc1Hp51A.s 			page 30


 250:../mindows/mds_core_c.c ****     if(NULL != pstrTempNode)
 526              		.loc 1 250 0
 527 027c 000053E3 		cmp	r3, #0
 239:../mindows/mds_core_c.c **** {
 528              		.loc 1 239 0
 529 0280 04402DE5 		str	r4, [sp, #-4]!
 530              		.save {r4}
 531              	.LCFI8:
 532              		.cfi_def_cfa_offset 4
 250:../mindows/mds_core_c.c ****     if(NULL != pstrTempNode)
 533              		.loc 1 250 0
 534 0284 2C00000A 		beq	.L22
 535              		.cfi_offset 4, -4
 536              	.LVL31:
 254:../mindows/mds_core_c.c ****         uiStillTick = pstrDelayQue->pstrTcb->uiStillTick;
 537              		.loc 1 254 0
 538 0288 084090E5 		ldr	r4, [r0, #8]
 266:../mindows/mds_core_c.c ****                 if(uiStillTick > guiTick)
 539              		.loc 1 266 0
 540 028c C0109FE5 		ldr	r1, .L43+4
 254:../mindows/mds_core_c.c ****         uiStillTick = pstrDelayQue->pstrTcb->uiStillTick;
 541              		.loc 1 254 0
 542 0290 74C094E5 		ldr	ip, [r4, #116]
 543              	.LVL32:
 266:../mindows/mds_core_c.c ****                 if(uiStillTick > guiTick)
 544              		.loc 1 266 0
 545 0294 004091E5 		ldr	r4, [r1, #0]
 546 0298 090000EA 		b	.L31
 547              	.LVL33:
 548              	.L41:
 549 029c 04005CE1 		cmp	ip, r4
 550 02a0 1900008A 		bhi	.L36
 272:../mindows/mds_core_c.c ****                 else if(uiStillTick < guiTick)
 551              		.loc 1 272 0
 552 02a4 0100002A 		bcs	.L27
 553              	.L39:
 287:../mindows/mds_core_c.c ****                     if(guiTick > uiTempStillTick)
 554              		.loc 1 287 0
 555 02a8 040051E1 		cmp	r1, r4
 556 02ac 1600003A 		bcc	.L36
 557              	.L27:
 558              	.LVL34:
 559              	.LBB114:
 560              	.LBB115:
1064:../mindows/mds_core_c.c **** }
1065:../mindows/mds_core_c.c **** 
1066:../mindows/mds_core_c.c **** /***********************************************************************************
1067:../mindows/mds_core_c.c **** 函数功能: 查询链表中指定节点的下一个节点是否为空.
1068:../mindows/mds_core_c.c **** 入口参数: pstrChain: 链表根节点指针.
1069:../mindows/mds_core_c.c ****           pstrNode: 基准节点指针, 查询该节点的下一个节点.
1070:../mindows/mds_core_c.c **** 返 回 值: 若指定节点的下一个节点非空则返回下一个节点的指针, 若空则返回NULL.
1071:../mindows/mds_core_c.c **** ***********************************************************************************/
1072:../mindows/mds_core_c.c **** M_CHAIN* MDS_ChainNextNodeEmpInq(M_CHAIN* pstrChain, M_CHAIN* pstrNode)
1073:../mindows/mds_core_c.c **** {
1074:../mindows/mds_core_c.c ****     /* 基准节点是最后一个节点则返回NULL */
1075:../mindows/mds_core_c.c ****     if(pstrNode->pstrTail == pstrChain)
 561              		.loc 1 1075 0
ARM GAS  C:\DOCUME~1\ADMINI~1\LOCALS~1\Temp\cc1Hp51A.s 			page 31


 562 02b0 043093E5 		ldr	r3, [r3, #4]
 563              	.LVL35:
 564 02b4 020053E1 		cmp	r3, r2
 565 02b8 0B00000A 		beq	.L30
 566              	.L42:
 567              	.LBE115:
 568              	.LBE114:
 302:../mindows/mds_core_c.c ****             if(NULL == pstrNextNode)
 569              		.loc 1 302 0
 570 02bc 000053E3 		cmp	r3, #0
 571 02c0 0900000A 		beq	.L30
 572              	.LVL36:
 573              	.L31:
 261:../mindows/mds_core_c.c ****             uiTempStillTick = pstrDelayQue->pstrTcb->uiStillTick;
 574              		.loc 1 261 0
 575 02c4 081093E5 		ldr	r1, [r3, #8]
 576 02c8 741091E5 		ldr	r1, [r1, #116]
 577              	.LVL37:
 264:../mindows/mds_core_c.c ****             if(uiStillTick < uiTempStillTick)
 578              		.loc 1 264 0
 579 02cc 01005CE1 		cmp	ip, r1
 580 02d0 F1FFFF3A 		bcc	.L41
 283:../mindows/mds_core_c.c ****             else if(uiStillTick > uiTempStillTick)
 581              		.loc 1 283 0
 582 02d4 F5FFFF9A 		bls	.L27
 285:../mindows/mds_core_c.c ****                 if(uiStillTick > guiTick)
 583              		.loc 1 285 0
 584 02d8 04005CE1 		cmp	ip, r4
 585 02dc F1FFFF8A 		bhi	.L39
 586              	.LVL38:
 587              	.LBB117:
 588              	.LBB116:
 589              		.loc 1 1075 0
 590 02e0 043093E5 		ldr	r3, [r3, #4]
 591              	.LVL39:
 592 02e4 020053E1 		cmp	r3, r2
 593 02e8 F3FFFF1A 		bne	.L42
 594              	.L30:
 595              	.LVL40:
 596              	.LBE116:
 597              	.LBE117:
 598              	.LBB118:
 599              	.LBB119:
 925:../mindows/mds_core_c.c ****         pstrNode->pstrHead = pstrChain->pstrHead;
 600              		.loc 1 925 0
 601 02ec 00C092E5 		ldr	ip, [r2, #0]
 602 02f0 00C080E5 		str	ip, [r0, #0]
 931:../mindows/mds_core_c.c ****         pstrChain->pstrHead->pstrTail = pstrNode;
 603              		.loc 1 931 0
 604 02f4 003092E5 		ldr	r3, [r2, #0]
 928:../mindows/mds_core_c.c ****         pstrNode->pstrTail = pstrChain;
 605              		.loc 1 928 0
 606 02f8 042080E5 		str	r2, [r0, #4]
 934:../mindows/mds_core_c.c ****         pstrChain->pstrHead = pstrNode;
 607              		.loc 1 934 0
 608 02fc 000082E5 		str	r0, [r2, #0]
 931:../mindows/mds_core_c.c ****         pstrChain->pstrHead->pstrTail = pstrNode;
ARM GAS  C:\DOCUME~1\ADMINI~1\LOCALS~1\Temp\cc1Hp51A.s 			page 32


 609              		.loc 1 931 0
 610 0300 040083E5 		str	r0, [r3, #4]
 611              	.LVL41:
 612              	.L21:
 613              	.LBE119:
 614              	.LBE118:
 320:../mindows/mds_core_c.c **** }
 615              		.loc 1 320 0
 616 0304 04409DE4 		ldmfd	sp!, {r4}
 617 0308 1EFF2FE1 		bx	lr
 618              	.LVL42:
 619              	.L36:
 620              	.LBB120:
 621              	.LBB121:
 999:../mindows/mds_core_c.c ****     if(pstrChain != pstrNode)
 622              		.loc 1 999 0
 623 030c 020053E1 		cmp	r3, r2
1002:../mindows/mds_core_c.c ****         pstrNode->pstrHead->pstrTail = pstrNewNode;
 624              		.loc 1 1002 0
 625 0310 002093E5 		ldr	r2, [r3, #0]
 626              	.LBB122:
 627              	.LBB124:
 925:../mindows/mds_core_c.c ****         pstrNode->pstrHead = pstrChain->pstrHead;
 628              		.loc 1 925 0
 629 0314 00208005 		streq	r2, [r0, #0]
 931:../mindows/mds_core_c.c ****         pstrChain->pstrHead->pstrTail = pstrNode;
 630              		.loc 1 931 0
 631 0318 00209305 		ldreq	r2, [r3, #0]
 632              	.LBE124:
 633              	.LBE122:
1002:../mindows/mds_core_c.c ****         pstrNode->pstrHead->pstrTail = pstrNewNode;
 634              		.loc 1 1002 0
 635 031c 04008215 		strne	r0, [r2, #4]
 636              	.LBB127:
 637              	.LBB125:
 928:../mindows/mds_core_c.c ****         pstrNode->pstrTail = pstrChain;
 638              		.loc 1 928 0
 639 0320 04308005 		streq	r3, [r0, #4]
 640              	.LBE125:
 641              	.LBE127:
1005:../mindows/mds_core_c.c ****         pstrNewNode->pstrHead = pstrNode->pstrHead;
 642              		.loc 1 1005 0
 643 0324 00208015 		strne	r2, [r0, #0]
1008:../mindows/mds_core_c.c ****         pstrNewNode->pstrTail = pstrNode;
 644              		.loc 1 1008 0
 645 0328 04308015 		strne	r3, [r0, #4]
 646              	.LBB128:
 647              	.LBB123:
 934:../mindows/mds_core_c.c ****         pstrChain->pstrHead = pstrNode;
 648              		.loc 1 934 0
 649 032c 00008305 		streq	r0, [r3, #0]
 650              	.LBE123:
 651              	.LBE128:
1011:../mindows/mds_core_c.c ****         pstrNode->pstrHead = pstrNewNode;
 652              		.loc 1 1011 0
 653 0330 00008315 		strne	r0, [r3, #0]
 654              	.LVL43:
ARM GAS  C:\DOCUME~1\ADMINI~1\LOCALS~1\Temp\cc1Hp51A.s 			page 33


 655              	.LBB129:
 656              	.LBB126:
 931:../mindows/mds_core_c.c ****         pstrChain->pstrHead->pstrTail = pstrNode;
 657              		.loc 1 931 0
 658 0334 04008205 		streq	r0, [r2, #4]
 659 0338 F1FFFFEA 		b	.L21
 660              	.LVL44:
 661              	.L22:
 662              	.LBE126:
 663              	.LBE129:
 664              	.LBE121:
 665              	.LBE120:
 666              	.LBB130:
 667              	.LBB131:
 939:../mindows/mds_core_c.c ****         pstrNode->pstrHead = pstrChain;
 668              		.loc 1 939 0
 669 033c 002080E5 		str	r2, [r0, #0]
 940:../mindows/mds_core_c.c ****         pstrNode->pstrTail = pstrChain;
 670              		.loc 1 940 0
 671 0340 042080E5 		str	r2, [r0, #4]
 943:../mindows/mds_core_c.c ****         pstrChain->pstrHead = pstrNode;
 672              		.loc 1 943 0
 673 0344 000082E5 		str	r0, [r2, #0]
 944:../mindows/mds_core_c.c ****         pstrChain->pstrTail = pstrNode;
 674              		.loc 1 944 0
 675 0348 040082E5 		str	r0, [r2, #4]
 676 034c ECFFFFEA 		b	.L21
 677              	.L44:
 678              		.align	2
 679              	.L43:
 680 0350 00000000 		.word	gstrDelayTab
 681 0354 00000000 		.word	guiTick
 682              	.LBE131:
 683              	.LBE130:
 684              		.cfi_endproc
 685              	.LFE8:
 686              		.fnend
 687              		.size	MDS_TaskAddToDelayTab, .-MDS_TaskAddToDelayTab
 688              		.align	2
 689              		.global	MDS_TaskDelFromSchedTab
 690              		.type	MDS_TaskDelFromSchedTab, %function
 691              	MDS_TaskDelFromSchedTab:
 692              		.fnstart
 693              	.LFB9:
 331:../mindows/mds_core_c.c **** {
 694              		.loc 1 331 0
 695              		.cfi_startproc
 696              		@ Function supports interworking.
 697              		@ args = 0, pretend = 0, frame = 0
 698              		@ frame_needed = 0, uses_anonymous_args = 0
 699              		@ link register save eliminated.
 700              	.LVL45:
 701              	.LBB132:
 702              	.LBB134:
 958:../mindows/mds_core_c.c ****     pstrTempNode = pstrChain->pstrTail;
 703              		.loc 1 958 0
 704 0358 043090E5 		ldr	r3, [r0, #4]
ARM GAS  C:\DOCUME~1\ADMINI~1\LOCALS~1\Temp\cc1Hp51A.s 			page 34


 705              	.LVL46:
 961:../mindows/mds_core_c.c ****     if(NULL != pstrTempNode)
 706              		.loc 1 961 0
 707 035c 000053E3 		cmp	r3, #0
 708              	.LBE134:
 709              	.LBE132:
 331:../mindows/mds_core_c.c **** {
 710              		.loc 1 331 0
 711 0360 04402DE5 		str	r4, [sp, #-4]!
 712              		.save {r4}
 713              	.LCFI9:
 714              		.cfi_def_cfa_offset 4
 715              	.LBB137:
 716              	.LBB135:
 961:../mindows/mds_core_c.c ****     if(NULL != pstrTempNode)
 717              		.loc 1 961 0
 718 0364 0E00000A 		beq	.L48
 719              		.cfi_offset 4, -4
 720              	.LVL47:
 964:../mindows/mds_core_c.c ****         if(pstrChain->pstrHead != pstrChain->pstrTail)
 721              		.loc 1 964 0
 722 0368 00C090E5 		ldr	ip, [r0, #0]
 723 036c 0C0053E1 		cmp	r3, ip
 724 0370 0800000A 		beq	.L47
 967:../mindows/mds_core_c.c ****             pstrChain->pstrTail = pstrTempNode->pstrTail;
 725              		.loc 1 967 0
 726 0374 04C093E5 		ldr	ip, [r3, #4]
 727 0378 04C080E5 		str	ip, [r0, #4]
 970:../mindows/mds_core_c.c ****             pstrTempNode->pstrTail->pstrHead = pstrChain;
 728              		.loc 1 970 0
 729 037c 044093E5 		ldr	r4, [r3, #4]
 730              	.LBE135:
 731              	.LBE137:
 338:../mindows/mds_core_c.c ****     if(NULL == MDS_ChainEmpInq(pstrChain))
 732              		.loc 1 338 0
 733 0380 00005CE3 		cmp	ip, #0
 734              	.LBB138:
 735              	.LBB133:
 970:../mindows/mds_core_c.c ****             pstrTempNode->pstrTail->pstrHead = pstrChain;
 736              		.loc 1 970 0
 737 0384 000084E5 		str	r0, [r4, #0]
 738              	.LBE133:
 739              	.LBE138:
 338:../mindows/mds_core_c.c ****     if(NULL == MDS_ChainEmpInq(pstrChain))
 740              		.loc 1 338 0
 741 0388 0500000A 		beq	.L48
 742              	.LVL48:
 743              	.L49:
 345:../mindows/mds_core_c.c **** }
 744              		.loc 1 345 0
 745 038c 0300A0E1 		mov	r0, r3
 746 0390 04409DE4 		ldmfd	sp!, {r4}
 747 0394 1EFF2FE1 		bx	lr
 748              	.LVL49:
 749              	.L47:
 750              	.LBB139:
 751              	.LBB136:
ARM GAS  C:\DOCUME~1\ADMINI~1\LOCALS~1\Temp\cc1Hp51A.s 			page 35


 975:../mindows/mds_core_c.c ****             pstrChain->pstrHead = (M_CHAIN*)NULL;
 752              		.loc 1 975 0
 753 0398 00C0A0E3 		mov	ip, #0
 754 039c 00C080E5 		str	ip, [r0, #0]
 976:../mindows/mds_core_c.c ****             pstrChain->pstrTail = (M_CHAIN*)NULL;
 755              		.loc 1 976 0
 756 03a0 04C080E5 		str	ip, [r0, #4]
 757              	.L48:
 758              	.LVL50:
 759              	.LBE136:
 760              	.LBE139:
 761              	.LBB140:
 762              	.LBB141:
 745:../mindows/mds_core_c.c ****     pstrPrioFlag->ucPrioFlagGrp1 &= ~((U8)(1 << ucTaskPrio));
 763              		.loc 1 745 0
 764 03a4 0000D1E5 		ldrb	r0, [r1, #0]	@ zero_extendqisi2
 765              	.LVL51:
 766 03a8 01C0A0E3 		mov	ip, #1
 767 03ac 1C22C0E1 		bic	r2, r0, ip, asl r2
 768              	.LVL52:
 769 03b0 0020C1E5 		strb	r2, [r1, #0]
 770 03b4 F4FFFFEA 		b	.L49
 771              	.LBE141:
 772              	.LBE140:
 773              		.cfi_endproc
 774              	.LFE9:
 775              		.fnend
 776              		.size	MDS_TaskDelFromSchedTab, .-MDS_TaskDelFromSchedTab
 777              		.align	2
 778              		.global	MDS_TaskAddToSemTab
 779              		.type	MDS_TaskAddToSemTab, %function
 780              	MDS_TaskAddToSemTab:
 781              		.fnstart
 782              	.LFB10:
 354:../mindows/mds_core_c.c **** {
 783              		.loc 1 354 0
 784              		.cfi_startproc
 785              		@ Function supports interworking.
 786              		@ args = 0, pretend = 0, frame = 0
 787              		@ frame_needed = 0, uses_anonymous_args = 0
 788              		@ link register save eliminated.
 789              	.LVL53:
 361:../mindows/mds_core_c.c ****     if(SEMPRIO == (SEMSCHEDOPTMASK & pstrSem->uiSemOpt))
 790              		.loc 1 361 0
 791 03b8 48C091E5 		ldr	ip, [r1, #72]
 792 03bc 03300CE2 		and	r3, ip, #3
 793 03c0 020053E3 		cmp	r3, #2
 354:../mindows/mds_core_c.c **** {
 794              		.loc 1 354 0
 795 03c4 04402DE5 		str	r4, [sp, #-4]!
 796              		.save {r4}
 797              	.LCFI10:
 798              		.cfi_def_cfa_offset 4
 361:../mindows/mds_core_c.c ****     if(SEMPRIO == (SEMSCHEDOPTMASK & pstrSem->uiSemOpt))
 799              		.loc 1 361 0
 800 03c8 0E00000A 		beq	.L56
 801              		.cfi_offset 4, -4
ARM GAS  C:\DOCUME~1\ADMINI~1\LOCALS~1\Temp\cc1Hp51A.s 			page 36


 802              	.LBB142:
 803              	.LBB143:
 922:../mindows/mds_core_c.c ****     if(NULL != pstrChain->pstrTail)
 804              		.loc 1 922 0
 805 03cc 3C3091E5 		ldr	r3, [r1, #60]
 806 03d0 000053E3 		cmp	r3, #0
 925:../mindows/mds_core_c.c ****         pstrNode->pstrHead = pstrChain->pstrHead;
 807              		.loc 1 925 0
 808 03d4 38209115 		ldrne	r2, [r1, #56]
 809              	.LBE143:
 810              	.LBE142:
 376:../mindows/mds_core_c.c ****         pstrNode = &pstrTcb->strTcbQue.strQueHead;
 811              		.loc 1 376 0
 812 03d8 443080E2 		add	r3, r0, #68
 375:../mindows/mds_core_c.c ****         pstrChain = &pstrSem->strSemTab.astrChain[LOWESTPRIO];
 813              		.loc 1 375 0
 814 03dc 38C081E2 		add	ip, r1, #56
 815              	.LVL54:
 816              	.LBB145:
 817              	.LBB144:
 928:../mindows/mds_core_c.c ****         pstrNode->pstrTail = pstrChain;
 818              		.loc 1 928 0
 819 03e0 48C08015 		strne	ip, [r0, #72]
 925:../mindows/mds_core_c.c ****         pstrNode->pstrHead = pstrChain->pstrHead;
 820              		.loc 1 925 0
 821 03e4 44208015 		strne	r2, [r0, #68]
 939:../mindows/mds_core_c.c ****         pstrNode->pstrHead = pstrChain;
 822              		.loc 1 939 0
 823 03e8 44C08005 		streq	ip, [r0, #68]
 940:../mindows/mds_core_c.c ****         pstrNode->pstrTail = pstrChain;
 824              		.loc 1 940 0
 825 03ec 48C08005 		streq	ip, [r0, #72]
 931:../mindows/mds_core_c.c ****         pstrChain->pstrHead->pstrTail = pstrNode;
 826              		.loc 1 931 0
 827 03f0 04308215 		strne	r3, [r2, #4]
 934:../mindows/mds_core_c.c ****         pstrChain->pstrHead = pstrNode;
 828              		.loc 1 934 0
 829 03f4 38308115 		strne	r3, [r1, #56]
 943:../mindows/mds_core_c.c ****         pstrChain->pstrHead = pstrNode;
 830              		.loc 1 943 0
 831 03f8 38308105 		streq	r3, [r1, #56]
 944:../mindows/mds_core_c.c ****         pstrChain->pstrTail = pstrNode;
 832              		.loc 1 944 0
 833 03fc 3C308105 		streq	r3, [r1, #60]
 834              	.LVL55:
 835              	.L50:
 836              	.LBE144:
 837              	.LBE145:
 381:../mindows/mds_core_c.c **** }
 838              		.loc 1 381 0
 839 0400 04409DE4 		ldmfd	sp!, {r4}
 840 0404 1EFF2FE1 		bx	lr
 841              	.LVL56:
 842              	.L56:
 364:../mindows/mds_core_c.c ****         ucTaskPrio = pstrTcb->ucTaskPrio;
 843              		.loc 1 364 0
 844 0408 6830D0E5 		ldrb	r3, [r0, #104]	@ zero_extendqisi2
ARM GAS  C:\DOCUME~1\ADMINI~1\LOCALS~1\Temp\cc1Hp51A.s 			page 37


 845              	.LVL57:
 365:../mindows/mds_core_c.c ****         pstrChain = &pstrSem->strSemTab.astrChain[ucTaskPrio];
 846              		.loc 1 365 0
 847 040c 832181E0 		add	r2, r1, r3, asl #3
 848              	.LVL58:
 849              	.LBB146:
 850              	.LBB147:
 851              	.LBB149:
 922:../mindows/mds_core_c.c ****     if(NULL != pstrChain->pstrTail)
 852              		.loc 1 922 0
 853 0410 04C092E5 		ldr	ip, [r2, #4]
 854 0414 00005CE3 		cmp	ip, #0
 925:../mindows/mds_core_c.c ****         pstrNode->pstrHead = pstrChain->pstrHead;
 855              		.loc 1 925 0
 856 0418 83419117 		ldrne	r4, [r1, r3, asl #3]
 857              	.LBE149:
 858              	.LBE147:
 859              	.LBE146:
 366:../mindows/mds_core_c.c ****         pstrNode = &pstrTcb->strTcbQue.strQueHead;
 860              		.loc 1 366 0
 861 041c 44C080E2 		add	ip, r0, #68
 862              	.LVL59:
 863              	.LBB157:
 864              	.LBB151:
 865              	.LBB148:
 928:../mindows/mds_core_c.c ****         pstrNode->pstrTail = pstrChain;
 866              		.loc 1 928 0
 867 0420 48208015 		strne	r2, [r0, #72]
 925:../mindows/mds_core_c.c ****         pstrNode->pstrHead = pstrChain->pstrHead;
 868              		.loc 1 925 0
 869 0424 44408015 		strne	r4, [r0, #68]
 939:../mindows/mds_core_c.c ****         pstrNode->pstrHead = pstrChain;
 870              		.loc 1 939 0
 871 0428 44208005 		streq	r2, [r0, #68]
 940:../mindows/mds_core_c.c ****         pstrNode->pstrTail = pstrChain;
 872              		.loc 1 940 0
 873 042c 48208005 		streq	r2, [r0, #72]
 931:../mindows/mds_core_c.c ****         pstrChain->pstrHead->pstrTail = pstrNode;
 874              		.loc 1 931 0
 875 0430 04C08415 		strne	ip, [r4, #4]
 944:../mindows/mds_core_c.c ****         pstrChain->pstrTail = pstrNode;
 876              		.loc 1 944 0
 877 0434 04C08205 		streq	ip, [r2, #4]
 878              	.LVL60:
 879              	.LBE148:
 880              	.LBE151:
 881              	.LBB152:
 882              	.LBB153:
 682:../mindows/mds_core_c.c ****     pstrPrioFlag->ucPrioFlagGrp1 |= (U8)(1 << ucTaskPrio);
 883              		.loc 1 682 0
 884 0438 4020D1E5 		ldrb	r2, [r1, #64]	@ zero_extendqisi2
 885              	.LVL61:
 886              	.LBE153:
 887              	.LBE152:
 888              	.LBB155:
 889              	.LBB150:
 934:../mindows/mds_core_c.c ****         pstrChain->pstrHead = pstrNode;
ARM GAS  C:\DOCUME~1\ADMINI~1\LOCALS~1\Temp\cc1Hp51A.s 			page 38


 890              		.loc 1 934 0
 891 043c 83C18117 		strne	ip, [r1, r3, asl #3]
 943:../mindows/mds_core_c.c ****         pstrChain->pstrHead = pstrNode;
 892              		.loc 1 943 0
 893 0440 83C18107 		streq	ip, [r1, r3, asl #3]
 894              	.LBE150:
 895              	.LBE155:
 896              	.LBB156:
 897              	.LBB154:
 682:../mindows/mds_core_c.c ****     pstrPrioFlag->ucPrioFlagGrp1 |= (U8)(1 << ucTaskPrio);
 898              		.loc 1 682 0
 899 0444 01C0A0E3 		mov	ip, #1
 900              	.LVL62:
 901 0448 1C0382E1 		orr	r0, r2, ip, asl r3
 902              	.LVL63:
 903 044c 4000C1E5 		strb	r0, [r1, #64]
 904 0450 EAFFFFEA 		b	.L50
 905              	.LBE154:
 906              	.LBE156:
 907              	.LBE157:
 908              		.cfi_endproc
 909              	.LFE10:
 910              		.fnend
 911              		.size	MDS_TaskAddToSemTab, .-MDS_TaskAddToSemTab
 912              		.align	2
 913              		.global	MDS_TaskDelFromSemTab
 914              		.type	MDS_TaskDelFromSemTab, %function
 915              	MDS_TaskDelFromSemTab:
 916              		.fnstart
 917              	.LFB11:
 389:../mindows/mds_core_c.c **** {
 918              		.loc 1 389 0
 919              		.cfi_startproc
 920              		@ Function supports interworking.
 921              		@ args = 0, pretend = 0, frame = 0
 922              		@ frame_needed = 0, uses_anonymous_args = 0
 923              		@ link register save eliminated.
 924              	.LVL64:
 396:../mindows/mds_core_c.c ****     pstrSem = pstrTcb->pstrSem;
 925              		.loc 1 396 0
 926 0454 5C3090E5 		ldr	r3, [r0, #92]
 927              	.LVL65:
 399:../mindows/mds_core_c.c ****     if(SEMPRIO == (SEMSCHEDOPTMASK & pstrSem->uiSemOpt))
 928              		.loc 1 399 0
 929 0458 481093E5 		ldr	r1, [r3, #72]
 930 045c 032001E2 		and	r2, r1, #3
 931 0460 020052E3 		cmp	r2, #2
 389:../mindows/mds_core_c.c **** {
 932              		.loc 1 389 0
 933 0464 04402DE5 		str	r4, [sp, #-4]!
 934              		.save {r4}
 935              	.LCFI11:
 936              		.cfi_def_cfa_offset 4
 399:../mindows/mds_core_c.c ****     if(SEMPRIO == (SEMSCHEDOPTMASK & pstrSem->uiSemOpt))
 937              		.loc 1 399 0
 938 0468 0E00000A 		beq	.L64
 939              		.cfi_offset 4, -4
ARM GAS  C:\DOCUME~1\ADMINI~1\LOCALS~1\Temp\cc1Hp51A.s 			page 39


 940              	.LVL66:
 941              	.LBB158:
 942              	.LBB159:
 958:../mindows/mds_core_c.c ****     pstrTempNode = pstrChain->pstrTail;
 943              		.loc 1 958 0
 944 046c 3C0093E5 		ldr	r0, [r3, #60]
 945              	.LVL67:
 961:../mindows/mds_core_c.c ****     if(NULL != pstrTempNode)
 946              		.loc 1 961 0
 947 0470 000050E3 		cmp	r0, #0
 948 0474 0900000A 		beq	.L62
 964:../mindows/mds_core_c.c ****         if(pstrChain->pstrHead != pstrChain->pstrTail)
 949              		.loc 1 964 0
 950 0478 381093E5 		ldr	r1, [r3, #56]
 951 047c 010050E1 		cmp	r0, r1
 967:../mindows/mds_core_c.c ****             pstrChain->pstrTail = pstrTempNode->pstrTail;
 952              		.loc 1 967 0
 953 0480 04109015 		ldrne	r1, [r0, #4]
 954 0484 3C108315 		strne	r1, [r3, #60]
 970:../mindows/mds_core_c.c ****             pstrTempNode->pstrTail->pstrHead = pstrChain;
 955              		.loc 1 970 0
 956 0488 04109015 		ldrne	r1, [r0, #4]
 975:../mindows/mds_core_c.c ****             pstrChain->pstrHead = (M_CHAIN*)NULL;
 957              		.loc 1 975 0
 958 048c 0010A003 		moveq	r1, #0
 959              	.LBE159:
 960              	.LBE158:
 412:../mindows/mds_core_c.c ****         pstrChain = &pstrSem->strSemTab.astrChain[LOWESTPRIO];
 961              		.loc 1 412 0
 962 0490 38308312 		addne	r3, r3, #56
 963              	.LVL68:
 964              	.LBB161:
 965              	.LBB160:
 970:../mindows/mds_core_c.c ****             pstrTempNode->pstrTail->pstrHead = pstrChain;
 966              		.loc 1 970 0
 967 0494 00308115 		strne	r3, [r1, #0]
 975:../mindows/mds_core_c.c ****             pstrChain->pstrHead = (M_CHAIN*)NULL;
 968              		.loc 1 975 0
 969 0498 38108305 		streq	r1, [r3, #56]
 976:../mindows/mds_core_c.c ****             pstrChain->pstrTail = (M_CHAIN*)NULL;
 970              		.loc 1 976 0
 971 049c 3C108305 		streq	r1, [r3, #60]
 972              	.LVL69:
 973              	.L62:
 974              	.LBE160:
 975              	.LBE161:
 417:../mindows/mds_core_c.c **** }
 976              		.loc 1 417 0
 977 04a0 04409DE4 		ldmfd	sp!, {r4}
 978 04a4 1EFF2FE1 		bx	lr
 979              	.LVL70:
 980              	.L64:
 402:../mindows/mds_core_c.c ****         ucTaskPrio = pstrTcb->ucTaskPrio;
 981              		.loc 1 402 0
 982 04a8 6810D0E5 		ldrb	r1, [r0, #104]	@ zero_extendqisi2
 983              	.LVL71:
 984              	.LBB162:
ARM GAS  C:\DOCUME~1\ADMINI~1\LOCALS~1\Temp\cc1Hp51A.s 			page 40


 985              	.LBB163:
 986              	.LBB164:
 987              	.LBB166:
 958:../mindows/mds_core_c.c ****     pstrTempNode = pstrChain->pstrTail;
 988              		.loc 1 958 0
 989 04ac 812183E0 		add	r2, r3, r1, asl #3
 990 04b0 040092E5 		ldr	r0, [r2, #4]
 991              	.LVL72:
 961:../mindows/mds_core_c.c ****     if(NULL != pstrTempNode)
 992              		.loc 1 961 0
 993 04b4 000050E3 		cmp	r0, #0
 994 04b8 0800000A 		beq	.L61
 964:../mindows/mds_core_c.c ****         if(pstrChain->pstrHead != pstrChain->pstrTail)
 995              		.loc 1 964 0
 996 04bc 81C193E7 		ldr	ip, [r3, r1, asl #3]
 997 04c0 0C0050E1 		cmp	r0, ip
 998 04c4 0A00000A 		beq	.L60
 967:../mindows/mds_core_c.c ****             pstrChain->pstrTail = pstrTempNode->pstrTail;
 999              		.loc 1 967 0
 1000 04c8 04C090E5 		ldr	ip, [r0, #4]
 1001 04cc 04C082E5 		str	ip, [r2, #4]
 970:../mindows/mds_core_c.c ****             pstrTempNode->pstrTail->pstrHead = pstrChain;
 1002              		.loc 1 970 0
 1003 04d0 044090E5 		ldr	r4, [r0, #4]
 1004              	.LBE166:
 1005              	.LBE164:
 338:../mindows/mds_core_c.c ****     if(NULL == MDS_ChainEmpInq(pstrChain))
 1006              		.loc 1 338 0
 1007 04d4 00005CE3 		cmp	ip, #0
 1008              	.LBB168:
 1009              	.LBB165:
 970:../mindows/mds_core_c.c ****             pstrTempNode->pstrTail->pstrHead = pstrChain;
 1010              		.loc 1 970 0
 1011 04d8 002084E5 		str	r2, [r4, #0]
 1012              	.LVL73:
 1013              	.LBE165:
 1014              	.LBE168:
 338:../mindows/mds_core_c.c ****     if(NULL == MDS_ChainEmpInq(pstrChain))
 1015              		.loc 1 338 0
 1016 04dc EFFFFF1A 		bne	.L62
 1017              	.LVL74:
 1018              	.L61:
 1019              	.LBB169:
 1020              	.LBB170:
 745:../mindows/mds_core_c.c ****     pstrPrioFlag->ucPrioFlagGrp1 &= ~((U8)(1 << ucTaskPrio));
 1021              		.loc 1 745 0
 1022 04e0 4020D3E5 		ldrb	r2, [r3, #64]	@ zero_extendqisi2
 1023 04e4 01C0A0E3 		mov	ip, #1
 1024 04e8 1C21C2E1 		bic	r2, r2, ip, asl r1
 1025 04ec 4020C3E5 		strb	r2, [r3, #64]
 1026 04f0 EAFFFFEA 		b	.L62
 1027              	.LVL75:
 1028              	.L60:
 1029              	.LBE170:
 1030              	.LBE169:
 1031              	.LBB171:
 1032              	.LBB167:
ARM GAS  C:\DOCUME~1\ADMINI~1\LOCALS~1\Temp\cc1Hp51A.s 			page 41


 975:../mindows/mds_core_c.c ****             pstrChain->pstrHead = (M_CHAIN*)NULL;
 1033              		.loc 1 975 0
 1034 04f4 00C0A0E3 		mov	ip, #0
 1035 04f8 81C183E7 		str	ip, [r3, r1, asl #3]
 976:../mindows/mds_core_c.c ****             pstrChain->pstrTail = (M_CHAIN*)NULL;
 1036              		.loc 1 976 0
 1037 04fc 04C082E5 		str	ip, [r2, #4]
 1038              	.LVL76:
 1039 0500 F6FFFFEA 		b	.L61
 1040              	.LBE167:
 1041              	.LBE171:
 1042              	.LBE163:
 1043              	.LBE162:
 1044              		.cfi_endproc
 1045              	.LFE11:
 1046              		.fnend
 1047              		.size	MDS_TaskDelFromSemTab, .-MDS_TaskDelFromSemTab
 1048              		.align	2
 1049              		.global	MDS_SemGetActiveTask
 1050              		.type	MDS_SemGetActiveTask, %function
 1051              	MDS_SemGetActiveTask:
 1052              		.fnstart
 1053              	.LFB12:
 425:../mindows/mds_core_c.c **** {
 1054              		.loc 1 425 0
 1055              		.cfi_startproc
 1056              		@ Function supports interworking.
 1057              		@ args = 0, pretend = 0, frame = 0
 1058              		@ frame_needed = 0, uses_anonymous_args = 0
 1059              		@ link register save eliminated.
 1060              	.LVL77:
 431:../mindows/mds_core_c.c ****     if(SEMPRIO == (SEMSCHEDOPTMASK & pstrSem->uiSemOpt))
 1061              		.loc 1 431 0
 1062 0504 481090E5 		ldr	r1, [r0, #72]
 1063 0508 033001E2 		and	r3, r1, #3
 1064 050c 020053E3 		cmp	r3, #2
 1065              	.LVL78:
 1066              	.LBB172:
 1067              	.LBB173:
 790:../mindows/mds_core_c.c ****     return caucTaskPrioUnmapTab[pstrPrioFlag->ucPrioFlagGrp1];
 1068              		.loc 1 790 0
 1069 0510 4030D005 		ldreqb	r3, [r0, #64]	@ zero_extendqisi2
 1070              	.LBE173:
 1071              	.LBE172:
 431:../mindows/mds_core_c.c ****     if(SEMPRIO == (SEMSCHEDOPTMASK & pstrSem->uiSemOpt))
 1072              		.loc 1 431 0
 1073 0514 18209F05 		ldreq	r2, .L70
 1074 0518 0330D207 		ldreqb	r3, [r2, r3]	@ zero_extendqisi2
 1075 051c 0730A013 		movne	r3, #7
 1076              	.LVL79:
 1077              	.LBB174:
 1078              	.LBB175:
1063:../mindows/mds_core_c.c ****     return pstrChain->pstrTail;
 1079              		.loc 1 1063 0
 1080 0520 830180E0 		add	r0, r0, r3, asl #3
 1081              	.LVL80:
 1082 0524 040090E5 		ldr	r0, [r0, #4]
ARM GAS  C:\DOCUME~1\ADMINI~1\LOCALS~1\Temp\cc1Hp51A.s 			page 42


 1083              	.LVL81:
 1084              	.LBE175:
 1085              	.LBE174:
 445:../mindows/mds_core_c.c ****     if(NULL == pstrNode)
 1086              		.loc 1 445 0
 1087 0528 000050E3 		cmp	r0, #0
 1088              	.LVL82:
 453:../mindows/mds_core_c.c ****         return pstrTaskQue->pstrTcb;
 1089              		.loc 1 453 0
 1090 052c 08009015 		ldrne	r0, [r0, #8]
 1091              	.LVL83:
 455:../mindows/mds_core_c.c **** }
 1092              		.loc 1 455 0
 1093 0530 1EFF2FE1 		bx	lr
 1094              	.L71:
 1095              		.align	2
 1096              	.L70:
 1097 0534 00000000 		.word	.LANCHOR0
 1098              		.cfi_endproc
 1099              	.LFE12:
 1100              		.fnend
 1101              		.size	MDS_SemGetActiveTask, .-MDS_SemGetActiveTask
 1102              		.align	2
 1103              		.global	MDS_TaskReadySched
 1104              		.type	MDS_TaskReadySched, %function
 1105              	MDS_TaskReadySched:
 1106              		.fnstart
 1107              	.LFB14:
 496:../mindows/mds_core_c.c **** {
 1108              		.loc 1 496 0
 1109              		.cfi_startproc
 1110              		@ Function supports interworking.
 1111              		@ args = 0, pretend = 0, frame = 0
 1112              		@ frame_needed = 1, uses_anonymous_args = 0
 1113              	.LVL84:
 1114              		.movsp ip
 1115 0538 0DC0A0E1 		mov	ip, sp
 1116              	.LCFI12:
 1117              		.cfi_def_cfa_register 12
 1118 053c 30D82DE9 		stmfd	sp!, {r4, r5, fp, ip, lr, pc}
 1119              		.pad #4
 1120              		.save {r4, r5, fp, ip, lr}
 1121              	.LBB176:
 1122              	.LBB179:
 1123              	.LBB183:
 1124              	.LBB184:
1063:../mindows/mds_core_c.c ****     return pstrChain->pstrTail;
 1125              		.loc 1 1063 0
 1126 0540 74409FE5 		ldr	r4, .L76
 1127              		.cfi_offset 14, -8
 1128              		.cfi_offset 13, -12
 1129              		.cfi_offset 11, -16
 1130              		.cfi_offset 5, -20
 1131              		.cfi_offset 4, -24
 1132              	.LBE184:
 1133              	.LBE183:
 1134              	.LBE179:
ARM GAS  C:\DOCUME~1\ADMINI~1\LOCALS~1\Temp\cc1Hp51A.s 			page 43


 1135              	.LBE176:
 496:../mindows/mds_core_c.c **** {
 1136              		.loc 1 496 0
 1137              		.setfp fp, ip, #-4
 1138 0544 04B04CE2 		sub	fp, ip, #4
 1139              	.LCFI13:
 1140              		.cfi_def_cfa 11, 4
 1141              	.LBB188:
 1142              	.LBB178:
 533:../mindows/mds_core_c.c ****     pstrTaskQue = (M_TCBQUE*)MDS_ChainEmpInq(&gstrReadyTab.astrChain[ucTaskPrio]);
 1143              		.loc 1 533 0
 1144 0548 70509FE5 		ldr	r5, .L76+4
 1145              	.LBB181:
 1146              	.LBB182:
 790:../mindows/mds_core_c.c ****     return caucTaskPrioUnmapTab[pstrPrioFlag->ucPrioFlagGrp1];
 1147              		.loc 1 790 0
 1148 054c 40C0D4E5 		ldrb	ip, [r4, #64]	@ zero_extendqisi2
 1149              	.LBE182:
 1150              	.LBE181:
 1151              	.LBE178:
 1152              	.LBE188:
 505:../mindows/mds_core_c.c ****     if((VFHSWT)NULL != gvfTaskSwitchHook)
 1153              		.loc 1 505 0
 1154 0550 6C309FE5 		ldr	r3, .L76+8
 1155              	.LBB189:
 1156              	.LBB186:
 533:../mindows/mds_core_c.c ****     pstrTaskQue = (M_TCBQUE*)MDS_ChainEmpInq(&gstrReadyTab.astrChain[ucTaskPrio]);
 1157              		.loc 1 533 0
 1158 0554 0C10D5E7 		ldrb	r1, [r5, ip]	@ zero_extendqisi2
 1159              	.LBE186:
 1160              	.LBE189:
 505:../mindows/mds_core_c.c ****     if((VFHSWT)NULL != gvfTaskSwitchHook)
 1161              		.loc 1 505 0
 1162 0558 003093E5 		ldr	r3, [r3, #0]
 1163              	.LBB190:
 1164              	.LBB177:
 1165              	.LBB180:
 1166              	.LBB185:
1063:../mindows/mds_core_c.c ****     return pstrChain->pstrTail;
 1167              		.loc 1 1063 0
 1168 055c 810184E0 		add	r0, r4, r1, asl #3
 1169              	.LBE185:
 1170              	.LBE180:
 534:../mindows/mds_core_c.c ****     pstrTcb = pstrTaskQue->pstrTcb;
 1171              		.loc 1 534 0
 1172 0560 042090E5 		ldr	r2, [r0, #4]
 1173              	.LBE177:
 1174              	.LBE190:
 505:../mindows/mds_core_c.c ****     if((VFHSWT)NULL != gvfTaskSwitchHook)
 1175              		.loc 1 505 0
 1176 0564 000053E3 		cmp	r3, #0
 1177              	.LBB191:
 1178              	.LBB187:
 534:../mindows/mds_core_c.c ****     pstrTcb = pstrTaskQue->pstrTcb;
 1179              		.loc 1 534 0
 1180 0568 084092E5 		ldr	r4, [r2, #8]
 1181              	.LVL85:
ARM GAS  C:\DOCUME~1\ADMINI~1\LOCALS~1\Temp\cc1Hp51A.s 			page 44


 1182              	.LBE187:
 1183              	.LBE191:
 505:../mindows/mds_core_c.c ****     if((VFHSWT)NULL != gvfTaskSwitchHook)
 1184              		.loc 1 505 0
 1185 056c 0F00000A 		beq	.L75
 508:../mindows/mds_core_c.c ****         if(pstrTcb != gpstrCurTcb)
 1186              		.loc 1 508 0
 1187 0570 50509FE5 		ldr	r5, .L76+12
 1188 0574 000095E5 		ldr	r0, [r5, #0]
 1189              	.LVL86:
 1190 0578 040050E1 		cmp	r0, r4
 1191 057c 0300000A 		beq	.L74
 510:../mindows/mds_core_c.c ****             gvfTaskSwitchHook(gpstrCurTcb, pstrTcb);
 1192              		.loc 1 510 0
 1193 0580 0410A0E1 		mov	r1, r4
 1194 0584 0FE0A0E1 		mov	lr, pc
 1195 0588 13FF2FE1 		bx	r3
 1196              	.LVL87:
 1197 058c 000095E5 		ldr	r0, [r5, #0]
 1198              	.L74:
 1199              	.LVL88:
 1200              	.LBB192:
 1201              	.LBB193:
 142:../mindows/mds_core_c.c ****     gpstrCurTaskSpAddr = &gpstrCurTcb->strStackReg;
 1202              		.loc 1 142 0
 1203 0590 34109FE5 		ldr	r1, .L76+16
 146:../mindows/mds_core_c.c ****     gpstrNextTaskSpAddr = &pstrTcb->strStackReg;
 1204              		.loc 1 146 0
 1205 0594 34209FE5 		ldr	r2, .L76+20
 142:../mindows/mds_core_c.c ****     gpstrCurTaskSpAddr = &gpstrCurTcb->strStackReg;
 1206              		.loc 1 142 0
 1207 0598 000081E5 		str	r0, [r1, #0]
 146:../mindows/mds_core_c.c ****     gpstrNextTaskSpAddr = &pstrTcb->strStackReg;
 1208              		.loc 1 146 0
 1209 059c 004082E5 		str	r4, [r2, #0]
 149:../mindows/mds_core_c.c ****     gpstrCurTcb = pstrTcb;
 1210              		.loc 1 149 0
 1211 05a0 004085E5 		str	r4, [r5, #0]
 1212              	.LBE193:
 1213              	.LBE192:
 518:../mindows/mds_core_c.c **** }
 1214              		.loc 1 518 0
 1215 05a4 14D04BE2 		sub	sp, fp, #20
 1216 05a8 30689DE8 		ldmfd	sp, {r4, r5, fp, sp, lr}
 1217 05ac 1EFF2FE1 		bx	lr
 1218              	.LVL89:
 1219              	.L75:
 505:../mindows/mds_core_c.c ****     if((VFHSWT)NULL != gvfTaskSwitchHook)
 1220              		.loc 1 505 0
 1221 05b0 10509FE5 		ldr	r5, .L76+12
 1222 05b4 000095E5 		ldr	r0, [r5, #0]
 1223 05b8 F4FFFFEA 		b	.L74
 1224              	.L77:
 1225              		.align	2
 1226              	.L76:
 1227 05bc 00000000 		.word	gstrReadyTab
 1228 05c0 00000000 		.word	.LANCHOR0
ARM GAS  C:\DOCUME~1\ADMINI~1\LOCALS~1\Temp\cc1Hp51A.s 			page 45


 1229 05c4 00000000 		.word	gvfTaskSwitchHook
 1230 05c8 00000000 		.word	gpstrCurTcb
 1231 05cc 00000000 		.word	gpstrCurTaskSpAddr
 1232 05d0 00000000 		.word	gpstrNextTaskSpAddr
 1233              		.cfi_endproc
 1234              	.LFE14:
 1235              		.fnend
 1236              		.size	MDS_TaskReadySched, .-MDS_TaskReadySched
 1237              		.align	2
 1238              		.global	MDS_TaskReadyTabSched
 1239              		.type	MDS_TaskReadyTabSched, %function
 1240              	MDS_TaskReadyTabSched:
 1241              		.fnstart
 1242              	.LFB15:
 526:../mindows/mds_core_c.c **** {
 1243              		.loc 1 526 0
 1244              		.cfi_startproc
 1245              		@ Function supports interworking.
 1246              		@ args = 0, pretend = 0, frame = 0
 1247              		@ frame_needed = 0, uses_anonymous_args = 0
 1248              		@ link register save eliminated.
 1249              	.LVL90:
 1250              	.LBB194:
 1251              	.LBB195:
1063:../mindows/mds_core_c.c ****     return pstrChain->pstrTail;
 1252              		.loc 1 1063 0
 1253 05d4 18C09FE5 		ldr	ip, .L79
 1254              	.LBE195:
 1255              	.LBE194:
 533:../mindows/mds_core_c.c ****     pstrTaskQue = (M_TCBQUE*)MDS_ChainEmpInq(&gstrReadyTab.astrChain[ucTaskPrio]);
 1256              		.loc 1 533 0
 1257 05d8 18109FE5 		ldr	r1, .L79+4
 1258              	.LBB197:
 1259              	.LBB198:
 790:../mindows/mds_core_c.c ****     return caucTaskPrioUnmapTab[pstrPrioFlag->ucPrioFlagGrp1];
 1260              		.loc 1 790 0
 1261 05dc 4030DCE5 		ldrb	r3, [ip, #64]	@ zero_extendqisi2
 1262              	.LBE198:
 1263              	.LBE197:
 533:../mindows/mds_core_c.c ****     pstrTaskQue = (M_TCBQUE*)MDS_ChainEmpInq(&gstrReadyTab.astrChain[ucTaskPrio]);
 1264              		.loc 1 533 0
 1265 05e0 0320D1E7 		ldrb	r2, [r1, r3]	@ zero_extendqisi2
 1266              	.LBB199:
 1267              	.LBB196:
1063:../mindows/mds_core_c.c ****     return pstrChain->pstrTail;
 1268              		.loc 1 1063 0
 1269 05e4 82018CE0 		add	r0, ip, r2, asl #3
 1270              	.LBE196:
 1271              	.LBE199:
 534:../mindows/mds_core_c.c ****     pstrTcb = pstrTaskQue->pstrTcb;
 1272              		.loc 1 534 0
 1273 05e8 043090E5 		ldr	r3, [r0, #4]
 537:../mindows/mds_core_c.c **** }
 1274              		.loc 1 537 0
 1275 05ec 080093E5 		ldr	r0, [r3, #8]
 1276 05f0 1EFF2FE1 		bx	lr
 1277              	.L80:
ARM GAS  C:\DOCUME~1\ADMINI~1\LOCALS~1\Temp\cc1Hp51A.s 			page 46


 1278              		.align	2
 1279              	.L79:
 1280 05f4 00000000 		.word	gstrReadyTab
 1281 05f8 00000000 		.word	.LANCHOR0
 1282              		.cfi_endproc
 1283              	.LFE15:
 1284              		.fnend
 1285              		.size	MDS_TaskReadyTabSched, .-MDS_TaskReadyTabSched
 1286              		.align	2
 1287              		.global	MDS_TaskPrioFlagSet
 1288              		.type	MDS_TaskPrioFlagSet, %function
 1289              	MDS_TaskPrioFlagSet:
 1290              		.fnstart
 1291              	.LFB17:
 640:../mindows/mds_core_c.c **** {
 1292              		.loc 1 640 0
 1293              		.cfi_startproc
 1294              		@ Function supports interworking.
 1295              		@ args = 0, pretend = 0, frame = 0
 1296              		@ frame_needed = 0, uses_anonymous_args = 0
 1297              		@ link register save eliminated.
 1298              	.LVL91:
 682:../mindows/mds_core_c.c ****     pstrPrioFlag->ucPrioFlagGrp1 |= (U8)(1 << ucTaskPrio);
 1299              		.loc 1 682 0
 1300 05fc 00C0D0E5 		ldrb	ip, [r0, #0]	@ zero_extendqisi2
 1301 0600 0120A0E3 		mov	r2, #1
 1302 0604 12318CE1 		orr	r3, ip, r2, asl r1
 1303 0608 0030C0E5 		strb	r3, [r0, #0]
 685:../mindows/mds_core_c.c **** }
 1304              		.loc 1 685 0
 1305 060c 1EFF2FE1 		bx	lr
 1306              		.cfi_endproc
 1307              	.LFE17:
 1308              		.fnend
 1309              		.size	MDS_TaskPrioFlagSet, .-MDS_TaskPrioFlagSet
 1310              		.align	2
 1311              		.global	MDS_TaskPrioFlagClr
 1312              		.type	MDS_TaskPrioFlagClr, %function
 1313              	MDS_TaskPrioFlagClr:
 1314              		.fnstart
 1315              	.LFB18:
 694:../mindows/mds_core_c.c **** {
 1316              		.loc 1 694 0
 1317              		.cfi_startproc
 1318              		@ Function supports interworking.
 1319              		@ args = 0, pretend = 0, frame = 0
 1320              		@ frame_needed = 0, uses_anonymous_args = 0
 1321              		@ link register save eliminated.
 1322              	.LVL92:
 745:../mindows/mds_core_c.c ****     pstrPrioFlag->ucPrioFlagGrp1 &= ~((U8)(1 << ucTaskPrio));
 1323              		.loc 1 745 0
 1324 0610 00C0D0E5 		ldrb	ip, [r0, #0]	@ zero_extendqisi2
 1325 0614 0120A0E3 		mov	r2, #1
 1326 0618 1231CCE1 		bic	r3, ip, r2, asl r1
 1327 061c 0030C0E5 		strb	r3, [r0, #0]
 748:../mindows/mds_core_c.c **** }
 1328              		.loc 1 748 0
ARM GAS  C:\DOCUME~1\ADMINI~1\LOCALS~1\Temp\cc1Hp51A.s 			page 47


 1329 0620 1EFF2FE1 		bx	lr
 1330              		.cfi_endproc
 1331              	.LFE18:
 1332              		.fnend
 1333              		.size	MDS_TaskPrioFlagClr, .-MDS_TaskPrioFlagClr
 1334              		.align	2
 1335              		.global	MDS_TaskHighestPrioGet
 1336              		.type	MDS_TaskHighestPrioGet, %function
 1337              	MDS_TaskHighestPrioGet:
 1338              		.fnstart
 1339              	.LFB19:
 756:../mindows/mds_core_c.c **** {
 1340              		.loc 1 756 0
 1341              		.cfi_startproc
 1342              		@ Function supports interworking.
 1343              		@ args = 0, pretend = 0, frame = 0
 1344              		@ frame_needed = 0, uses_anonymous_args = 0
 1345              		@ link register save eliminated.
 1346              	.LVL93:
 790:../mindows/mds_core_c.c ****     return caucTaskPrioUnmapTab[pstrPrioFlag->ucPrioFlagGrp1];
 1347              		.loc 1 790 0
 1348 0624 0030D0E5 		ldrb	r3, [r0, #0]	@ zero_extendqisi2
 793:../mindows/mds_core_c.c **** }
 1349              		.loc 1 793 0
 1350 0628 04209FE5 		ldr	r2, .L84
 1351 062c 0300D2E7 		ldrb	r0, [r2, r3]	@ zero_extendqisi2
 1352              	.LVL94:
 1353 0630 1EFF2FE1 		bx	lr
 1354              	.L85:
 1355              		.align	2
 1356              	.L84:
 1357 0634 00000000 		.word	.LANCHOR0
 1358              		.cfi_endproc
 1359              	.LFE19:
 1360              		.fnend
 1361              		.size	MDS_TaskHighestPrioGet, .-MDS_TaskHighestPrioGet
 1362              		.align	2
 1363              		.global	MDS_SystemTickGet
 1364              		.type	MDS_SystemTickGet, %function
 1365              	MDS_SystemTickGet:
 1366              		.fnstart
 1367              	.LFB20:
 801:../mindows/mds_core_c.c **** {
 1368              		.loc 1 801 0
 1369              		.cfi_startproc
 1370              		@ Function supports interworking.
 1371              		@ args = 0, pretend = 0, frame = 0
 1372              		@ frame_needed = 0, uses_anonymous_args = 0
 1373              		@ link register save eliminated.
 801:../mindows/mds_core_c.c **** {
 1374              		.loc 1 801 0
 1375 0638 04309FE5 		ldr	r3, .L87
 803:../mindows/mds_core_c.c **** }
 1376              		.loc 1 803 0
 1377 063c 000093E5 		ldr	r0, [r3, #0]
 1378 0640 1EFF2FE1 		bx	lr
 1379              	.L88:
ARM GAS  C:\DOCUME~1\ADMINI~1\LOCALS~1\Temp\cc1Hp51A.s 			page 48


 1380              		.align	2
 1381              	.L87:
 1382 0644 00000000 		.word	guiTick
 1383              		.cfi_endproc
 1384              	.LFE20:
 1385              		.fnend
 1386              		.size	MDS_SystemTickGet, .-MDS_SystemTickGet
 1387              		.align	2
 1388              		.global	MDS_CurrentTcbGet
 1389              		.type	MDS_CurrentTcbGet, %function
 1390              	MDS_CurrentTcbGet:
 1391              		.fnstart
 1392              	.LFB21:
 811:../mindows/mds_core_c.c **** {
 1393              		.loc 1 811 0
 1394              		.cfi_startproc
 1395              		@ Function supports interworking.
 1396              		@ args = 0, pretend = 0, frame = 0
 1397              		@ frame_needed = 0, uses_anonymous_args = 0
 1398              		@ link register save eliminated.
 811:../mindows/mds_core_c.c **** {
 1399              		.loc 1 811 0
 1400 0648 04309FE5 		ldr	r3, .L90
 813:../mindows/mds_core_c.c **** }
 1401              		.loc 1 813 0
 1402 064c 000093E5 		ldr	r0, [r3, #0]
 1403 0650 1EFF2FE1 		bx	lr
 1404              	.L91:
 1405              		.align	2
 1406              	.L90:
 1407 0654 00000000 		.word	gpstrCurTcb
 1408              		.cfi_endproc
 1409              	.LFE21:
 1410              		.fnend
 1411              		.size	MDS_CurrentTcbGet, .-MDS_CurrentTcbGet
 1412              		.align	2
 1413              		.global	MDS_IntLock
 1414              		.type	MDS_IntLock, %function
 1415              	MDS_IntLock:
 1416              		.fnstart
 1417              	.LFB22:
 823:../mindows/mds_core_c.c **** {
 1418              		.loc 1 823 0
 1419              		.cfi_startproc
 1420              		@ Function supports interworking.
 1421              		@ args = 0, pretend = 0, frame = 0
 1422              		@ frame_needed = 1, uses_anonymous_args = 0
 825:../mindows/mds_core_c.c ****     if(NULL == gpstrCurTcb)
 1423              		.loc 1 825 0
 1424 0658 6C309FE5 		ldr	r3, .L99
 1425 065c 000093E5 		ldr	r0, [r3, #0]
 823:../mindows/mds_core_c.c **** {
 1426              		.loc 1 823 0
 1427              		.movsp ip
 1428 0660 0DC0A0E1 		mov	ip, sp
 1429              	.LCFI14:
 1430              		.cfi_def_cfa_register 12
ARM GAS  C:\DOCUME~1\ADMINI~1\LOCALS~1\Temp\cc1Hp51A.s 			page 49


 825:../mindows/mds_core_c.c ****     if(NULL == gpstrCurTcb)
 1431              		.loc 1 825 0
 1432 0664 000050E3 		cmp	r0, #0
 823:../mindows/mds_core_c.c **** {
 1433              		.loc 1 823 0
 1434 0668 30D82DE9 		stmfd	sp!, {r4, r5, fp, ip, lr, pc}
 1435              		.pad #4
 1436              		.save {r4, r5, fp, ip, lr}
 1437              		.setfp fp, ip, #-4
 1438 066c 04B04CE2 		sub	fp, ip, #4
 1439              		.cfi_offset 14, -8
 1440              		.cfi_offset 13, -12
 1441              		.cfi_offset 11, -16
 1442              		.cfi_offset 5, -20
 1443              		.cfi_offset 4, -24
 1444              	.LCFI15:
 1445              		.cfi_def_cfa 11, 4
 825:../mindows/mds_core_c.c ****     if(NULL == gpstrCurTcb)
 1446              		.loc 1 825 0
 1447 0670 0B00000A 		beq	.L93
 831:../mindows/mds_core_c.c ****     if(RTN_SUCD == MDS_RunInInt())
 1448              		.loc 1 831 0
 1449 0674 FEFFFFEB 		bl	MDS_RunInInt
 1450 0678 000050E3 		cmp	r0, #0
 1451 067c 0800000A 		beq	.L93
 837:../mindows/mds_core_c.c ****     if(0 == guiIntLockCounter)
 1452              		.loc 1 837 0
 1453 0680 48509FE5 		ldr	r5, .L99+4
 1454 0684 004095E5 		ldr	r4, [r5, #0]
 1455 0688 000054E3 		cmp	r4, #0
 1456 068c 0700000A 		beq	.L98
 846:../mindows/mds_core_c.c ****     else if(guiIntLockCounter < 0xFFFFFFFF)
 1457              		.loc 1 846 0
 1458 0690 010074E3 		cmn	r4, #1
 848:../mindows/mds_core_c.c ****         guiIntLockCounter++;
 1459              		.loc 1 848 0
 1460 0694 01408412 		addne	r4, r4, #1
 1461 0698 00408515 		strne	r4, [r5, #0]
 850:../mindows/mds_core_c.c ****         return RTN_SUCD;
 1462              		.loc 1 850 0
 1463 069c 0000A013 		movne	r0, #0
 854:../mindows/mds_core_c.c ****         return RTN_FAIL;
 1464              		.loc 1 854 0
 1465 06a0 0100A003 		moveq	r0, #1
 1466              	.L93:
 856:../mindows/mds_core_c.c **** }
 1467              		.loc 1 856 0
 1468 06a4 14D04BE2 		sub	sp, fp, #20
 1469 06a8 30689DE8 		ldmfd	sp, {r4, r5, fp, sp, lr}
 1470 06ac 1EFF2FE1 		bx	lr
 1471              	.L98:
 839:../mindows/mds_core_c.c ****         MDS_TaskOccurSwi(SWI_INTDISABLE);
 1472              		.loc 1 839 0
 1473 06b0 1C009FE5 		ldr	r0, .L99+8
 1474 06b4 FEFFFFEB 		bl	MDS_TaskOccurSwi
 841:../mindows/mds_core_c.c ****         guiIntLockCounter++;
 1475              		.loc 1 841 0
ARM GAS  C:\DOCUME~1\ADMINI~1\LOCALS~1\Temp\cc1Hp51A.s 			page 50


 1476 06b8 001095E5 		ldr	r1, [r5, #0]
 1477 06bc 010081E2 		add	r0, r1, #1
 1478 06c0 000085E5 		str	r0, [r5, #0]
 843:../mindows/mds_core_c.c ****         return RTN_SUCD;
 1479              		.loc 1 843 0
 1480 06c4 0400A0E1 		mov	r0, r4
 1481 06c8 F5FFFFEA 		b	.L93
 1482              	.L100:
 1483              		.align	2
 1484              	.L99:
 1485 06cc 00000000 		.word	gpstrCurTcb
 1486 06d0 00000000 		.word	guiIntLockCounter
 1487 06d4 02200010 		.word	268443650
 1488              		.cfi_endproc
 1489              	.LFE22:
 1490              		.fnend
 1491              		.size	MDS_IntLock, .-MDS_IntLock
 1492              		.align	2
 1493              		.global	MDS_IntUnlock
 1494              		.type	MDS_IntUnlock, %function
 1495              	MDS_IntUnlock:
 1496              		.fnstart
 1497              	.LFB23:
 866:../mindows/mds_core_c.c **** {
 1498              		.loc 1 866 0
 1499              		.cfi_startproc
 1500              		@ Function supports interworking.
 1501              		@ args = 0, pretend = 0, frame = 0
 1502              		@ frame_needed = 1, uses_anonymous_args = 0
 1503              		.movsp ip
 1504 06d8 0DC0A0E1 		mov	ip, sp
 1505              	.LCFI16:
 1506              		.cfi_def_cfa_register 12
 1507 06dc 18D82DE9 		stmfd	sp!, {r3, r4, fp, ip, lr, pc}
 1508              		.pad #4
 1509              		.save {r3, r4, fp, ip, lr}
 868:../mindows/mds_core_c.c ****     if(NULL == gpstrCurTcb)
 1510              		.loc 1 868 0
 1511 06e0 60309FE5 		ldr	r3, .L108
 1512              		.cfi_offset 14, -8
 1513              		.cfi_offset 13, -12
 1514              		.cfi_offset 11, -16
 1515              		.cfi_offset 4, -20
 1516              		.cfi_offset 3, -24
 1517 06e4 000093E5 		ldr	r0, [r3, #0]
 1518 06e8 000050E3 		cmp	r0, #0
 866:../mindows/mds_core_c.c **** {
 1519              		.loc 1 866 0
 1520              		.setfp fp, ip, #-4
 1521 06ec 04B04CE2 		sub	fp, ip, #4
 1522              	.LCFI17:
 1523              		.cfi_def_cfa 11, 4
 868:../mindows/mds_core_c.c ****     if(NULL == gpstrCurTcb)
 1524              		.loc 1 868 0
 1525 06f0 0900000A 		beq	.L102
 874:../mindows/mds_core_c.c ****     if(RTN_SUCD == MDS_RunInInt())
 1526              		.loc 1 874 0
ARM GAS  C:\DOCUME~1\ADMINI~1\LOCALS~1\Temp\cc1Hp51A.s 			page 51


 1527 06f4 FEFFFFEB 		bl	MDS_RunInInt
 1528 06f8 000050E3 		cmp	r0, #0
 1529 06fc 0600000A 		beq	.L102
 880:../mindows/mds_core_c.c ****     if(guiIntLockCounter > 1)
 1530              		.loc 1 880 0
 1531 0700 44309FE5 		ldr	r3, .L108+4
 1532 0704 002093E5 		ldr	r2, [r3, #0]
 1533 0708 010052E3 		cmp	r2, #1
 882:../mindows/mds_core_c.c ****         guiIntLockCounter--;
 1534              		.loc 1 882 0
 1535 070c 01204282 		subhi	r2, r2, #1
 1536 0710 00208385 		strhi	r2, [r3, #0]
 884:../mindows/mds_core_c.c ****         return RTN_SUCD;
 1537              		.loc 1 884 0
 1538 0714 0000A083 		movhi	r0, #0
 880:../mindows/mds_core_c.c ****     if(guiIntLockCounter > 1)
 1539              		.loc 1 880 0
 1540 0718 0200009A 		bls	.L107
 1541              	.L102:
 899:../mindows/mds_core_c.c **** }
 1542              		.loc 1 899 0
 1543 071c 14D04BE2 		sub	sp, fp, #20
 1544 0720 18689DE8 		ldmfd	sp, {r3, r4, fp, sp, lr}
 1545 0724 1EFF2FE1 		bx	lr
 1546              	.L107:
 897:../mindows/mds_core_c.c ****         return RTN_FAIL;
 1547              		.loc 1 897 0
 1548 0728 0100A013 		movne	r0, #1
 887:../mindows/mds_core_c.c ****     else if(1 == guiIntLockCounter)
 1549              		.loc 1 887 0
 1550 072c FAFFFF1A 		bne	.L102
 889:../mindows/mds_core_c.c ****         guiIntLockCounter--;
 1551              		.loc 1 889 0
 1552 0730 0040A0E3 		mov	r4, #0
 891:../mindows/mds_core_c.c ****         MDS_TaskOccurSwi(SWI_INTENABLE);
 1553              		.loc 1 891 0
 1554 0734 14009FE5 		ldr	r0, .L108+8
 889:../mindows/mds_core_c.c ****         guiIntLockCounter--;
 1555              		.loc 1 889 0
 1556 0738 004083E5 		str	r4, [r3, #0]
 891:../mindows/mds_core_c.c ****         MDS_TaskOccurSwi(SWI_INTENABLE);
 1557              		.loc 1 891 0
 1558 073c FEFFFFEB 		bl	MDS_TaskOccurSwi
 893:../mindows/mds_core_c.c ****         return RTN_SUCD;
 1559              		.loc 1 893 0
 1560 0740 0400A0E1 		mov	r0, r4
 1561 0744 F4FFFFEA 		b	.L102
 1562              	.L109:
 1563              		.align	2
 1564              	.L108:
 1565 0748 00000000 		.word	gpstrCurTcb
 1566 074c 00000000 		.word	guiIntLockCounter
 1567 0750 01200010 		.word	268443649
 1568              		.cfi_endproc
 1569              	.LFE23:
 1570              		.fnend
 1571              		.size	MDS_IntUnlock, .-MDS_IntUnlock
ARM GAS  C:\DOCUME~1\ADMINI~1\LOCALS~1\Temp\cc1Hp51A.s 			page 52


 1572              		.align	2
 1573              		.global	MDS_ChainInit
 1574              		.type	MDS_ChainInit, %function
 1575              	MDS_ChainInit:
 1576              		.fnstart
 1577              	.LFB24:
 907:../mindows/mds_core_c.c **** {
 1578              		.loc 1 907 0
 1579              		.cfi_startproc
 1580              		@ Function supports interworking.
 1581              		@ args = 0, pretend = 0, frame = 0
 1582              		@ frame_needed = 0, uses_anonymous_args = 0
 1583              		@ link register save eliminated.
 1584              	.LVL95:
 909:../mindows/mds_core_c.c ****     pstrChain->pstrHead = (M_CHAIN*)NULL;
 1585              		.loc 1 909 0
 1586 0754 0030A0E3 		mov	r3, #0
 1587 0758 003080E5 		str	r3, [r0, #0]
 910:../mindows/mds_core_c.c ****     pstrChain->pstrTail = (M_CHAIN*)NULL;
 1588              		.loc 1 910 0
 1589 075c 043080E5 		str	r3, [r0, #4]
 911:../mindows/mds_core_c.c **** }
 1590              		.loc 1 911 0
 1591 0760 1EFF2FE1 		bx	lr
 1592              		.cfi_endproc
 1593              	.LFE24:
 1594              		.fnend
 1595              		.size	MDS_ChainInit, .-MDS_ChainInit
 1596              		.align	2
 1597              		.global	MDS_ChainNodeAdd
 1598              		.type	MDS_ChainNodeAdd, %function
 1599              	MDS_ChainNodeAdd:
 1600              		.fnstart
 1601              	.LFB25:
 920:../mindows/mds_core_c.c **** {
 1602              		.loc 1 920 0
 1603              		.cfi_startproc
 1604              		@ Function supports interworking.
 1605              		@ args = 0, pretend = 0, frame = 0
 1606              		@ frame_needed = 0, uses_anonymous_args = 0
 1607              		@ link register save eliminated.
 1608              	.LVL96:
 922:../mindows/mds_core_c.c ****     if(NULL != pstrChain->pstrTail)
 1609              		.loc 1 922 0
 1610 0764 043090E5 		ldr	r3, [r0, #4]
 1611 0768 000053E3 		cmp	r3, #0
 925:../mindows/mds_core_c.c ****         pstrNode->pstrHead = pstrChain->pstrHead;
 1612              		.loc 1 925 0
 1613 076c 00309015 		ldrne	r3, [r0, #0]
 1614 0770 00308115 		strne	r3, [r1, #0]
 931:../mindows/mds_core_c.c ****         pstrChain->pstrHead->pstrTail = pstrNode;
 1615              		.loc 1 931 0
 1616 0774 00309015 		ldrne	r3, [r0, #0]
 928:../mindows/mds_core_c.c ****         pstrNode->pstrTail = pstrChain;
 1617              		.loc 1 928 0
 1618 0778 04008115 		strne	r0, [r1, #4]
 939:../mindows/mds_core_c.c ****         pstrNode->pstrHead = pstrChain;
ARM GAS  C:\DOCUME~1\ADMINI~1\LOCALS~1\Temp\cc1Hp51A.s 			page 53


 1619              		.loc 1 939 0
 1620 077c 00008105 		streq	r0, [r1, #0]
 940:../mindows/mds_core_c.c ****         pstrNode->pstrTail = pstrChain;
 1621              		.loc 1 940 0
 1622 0780 04008105 		streq	r0, [r1, #4]
 934:../mindows/mds_core_c.c ****         pstrChain->pstrHead = pstrNode;
 1623              		.loc 1 934 0
 1624 0784 00108015 		strne	r1, [r0, #0]
 931:../mindows/mds_core_c.c ****         pstrChain->pstrHead->pstrTail = pstrNode;
 1625              		.loc 1 931 0
 1626 0788 04108315 		strne	r1, [r3, #4]
 943:../mindows/mds_core_c.c ****         pstrChain->pstrHead = pstrNode;
 1627              		.loc 1 943 0
 1628 078c 00108005 		streq	r1, [r0, #0]
 944:../mindows/mds_core_c.c ****         pstrChain->pstrTail = pstrNode;
 1629              		.loc 1 944 0
 1630 0790 04108005 		streq	r1, [r0, #4]
 1631 0794 1EFF2FE1 		bx	lr
 1632              		.cfi_endproc
 1633              	.LFE25:
 1634              		.fnend
 1635              		.size	MDS_ChainNodeAdd, .-MDS_ChainNodeAdd
 1636              		.align	2
 1637              		.global	MDS_ChainNodeDelete
 1638              		.type	MDS_ChainNodeDelete, %function
 1639              	MDS_ChainNodeDelete:
 1640              		.fnstart
 1641              	.LFB26:
 954:../mindows/mds_core_c.c **** {
 1642              		.loc 1 954 0
 1643              		.cfi_startproc
 1644              		@ Function supports interworking.
 1645              		@ args = 0, pretend = 0, frame = 0
 1646              		@ frame_needed = 0, uses_anonymous_args = 0
 1647              		@ link register save eliminated.
 1648              	.LVL97:
 958:../mindows/mds_core_c.c ****     pstrTempNode = pstrChain->pstrTail;
 1649              		.loc 1 958 0
 1650 0798 043090E5 		ldr	r3, [r0, #4]
 1651              	.LVL98:
 961:../mindows/mds_core_c.c ****     if(NULL != pstrTempNode)
 1652              		.loc 1 961 0
 1653 079c 000053E3 		cmp	r3, #0
 1654 07a0 0800000A 		beq	.L115
 1655              	.LVL99:
 964:../mindows/mds_core_c.c ****         if(pstrChain->pstrHead != pstrChain->pstrTail)
 1656              		.loc 1 964 0
 1657 07a4 002090E5 		ldr	r2, [r0, #0]
 1658 07a8 020053E1 		cmp	r3, r2
 967:../mindows/mds_core_c.c ****             pstrChain->pstrTail = pstrTempNode->pstrTail;
 1659              		.loc 1 967 0
 1660 07ac 04209315 		ldrne	r2, [r3, #4]
 1661 07b0 04208015 		strne	r2, [r0, #4]
 970:../mindows/mds_core_c.c ****             pstrTempNode->pstrTail->pstrHead = pstrChain;
 1662              		.loc 1 970 0
 1663 07b4 04209315 		ldrne	r2, [r3, #4]
 975:../mindows/mds_core_c.c ****             pstrChain->pstrHead = (M_CHAIN*)NULL;
ARM GAS  C:\DOCUME~1\ADMINI~1\LOCALS~1\Temp\cc1Hp51A.s 			page 54


 1664              		.loc 1 975 0
 1665 07b8 0020A003 		moveq	r2, #0
 970:../mindows/mds_core_c.c ****             pstrTempNode->pstrTail->pstrHead = pstrChain;
 1666              		.loc 1 970 0
 1667 07bc 00008215 		strne	r0, [r2, #0]
 975:../mindows/mds_core_c.c ****             pstrChain->pstrHead = (M_CHAIN*)NULL;
 1668              		.loc 1 975 0
 1669 07c0 00208005 		streq	r2, [r0, #0]
 976:../mindows/mds_core_c.c ****             pstrChain->pstrTail = (M_CHAIN*)NULL;
 1670              		.loc 1 976 0
 1671 07c4 04208005 		streq	r2, [r0, #4]
 1672              	.LVL100:
 1673              	.L115:
 986:../mindows/mds_core_c.c **** }
 1674              		.loc 1 986 0
 1675 07c8 0300A0E1 		mov	r0, r3
 1676              	.LVL101:
 1677 07cc 1EFF2FE1 		bx	lr
 1678              		.cfi_endproc
 1679              	.LFE26:
 1680              		.fnend
 1681              		.size	MDS_ChainNodeDelete, .-MDS_ChainNodeDelete
 1682              		.align	2
 1683              		.global	MDS_ChainCurNodeInsert
 1684              		.type	MDS_ChainCurNodeInsert, %function
 1685              	MDS_ChainCurNodeInsert:
 1686              		.fnstart
 1687              	.LFB27:
 997:../mindows/mds_core_c.c **** {
 1688              		.loc 1 997 0
 1689              		.cfi_startproc
 1690              		@ Function supports interworking.
 1691              		@ args = 0, pretend = 0, frame = 0
 1692              		@ frame_needed = 0, uses_anonymous_args = 0
 1693              		@ link register save eliminated.
 1694              	.LVL102:
 999:../mindows/mds_core_c.c ****     if(pstrChain != pstrNode)
 1695              		.loc 1 999 0
 1696 07d0 010050E1 		cmp	r0, r1
 1697 07d4 0500000A 		beq	.L118
1002:../mindows/mds_core_c.c ****         pstrNode->pstrHead->pstrTail = pstrNewNode;
 1698              		.loc 1 1002 0
 1699 07d8 003091E5 		ldr	r3, [r1, #0]
 1700 07dc 042083E5 		str	r2, [r3, #4]
1005:../mindows/mds_core_c.c ****         pstrNewNode->pstrHead = pstrNode->pstrHead;
 1701              		.loc 1 1005 0
 1702 07e0 003082E5 		str	r3, [r2, #0]
1008:../mindows/mds_core_c.c ****         pstrNewNode->pstrTail = pstrNode;
 1703              		.loc 1 1008 0
 1704 07e4 041082E5 		str	r1, [r2, #4]
1011:../mindows/mds_core_c.c ****         pstrNode->pstrHead = pstrNewNode;
 1705              		.loc 1 1011 0
 1706 07e8 002081E5 		str	r2, [r1, #0]
 1707 07ec 1EFF2FE1 		bx	lr
 1708              	.L118:
 1709              	.LVL103:
 1710              	.LBB200:
ARM GAS  C:\DOCUME~1\ADMINI~1\LOCALS~1\Temp\cc1Hp51A.s 			page 55


 1711              	.LBB201:
 922:../mindows/mds_core_c.c ****     if(NULL != pstrChain->pstrTail)
 1712              		.loc 1 922 0
 1713 07f0 041090E5 		ldr	r1, [r0, #4]
 1714              	.LVL104:
 1715 07f4 000051E3 		cmp	r1, #0
 925:../mindows/mds_core_c.c ****         pstrNode->pstrHead = pstrChain->pstrHead;
 1716              		.loc 1 925 0
 1717 07f8 00109015 		ldrne	r1, [r0, #0]
 1718 07fc 00108215 		strne	r1, [r2, #0]
 931:../mindows/mds_core_c.c ****         pstrChain->pstrHead->pstrTail = pstrNode;
 1719              		.loc 1 931 0
 1720 0800 00109015 		ldrne	r1, [r0, #0]
 928:../mindows/mds_core_c.c ****         pstrNode->pstrTail = pstrChain;
 1721              		.loc 1 928 0
 1722 0804 04008215 		strne	r0, [r2, #4]
 939:../mindows/mds_core_c.c ****         pstrNode->pstrHead = pstrChain;
 1723              		.loc 1 939 0
 1724 0808 00008205 		streq	r0, [r2, #0]
 940:../mindows/mds_core_c.c ****         pstrNode->pstrTail = pstrChain;
 1725              		.loc 1 940 0
 1726 080c 04008205 		streq	r0, [r2, #4]
 934:../mindows/mds_core_c.c ****         pstrChain->pstrHead = pstrNode;
 1727              		.loc 1 934 0
 1728 0810 00208015 		strne	r2, [r0, #0]
 931:../mindows/mds_core_c.c ****         pstrChain->pstrHead->pstrTail = pstrNode;
 1729              		.loc 1 931 0
 1730 0814 04208115 		strne	r2, [r1, #4]
 943:../mindows/mds_core_c.c ****         pstrChain->pstrHead = pstrNode;
 1731              		.loc 1 943 0
 1732 0818 00208005 		streq	r2, [r0, #0]
 944:../mindows/mds_core_c.c ****         pstrChain->pstrTail = pstrNode;
 1733              		.loc 1 944 0
 1734 081c 04208005 		streq	r2, [r0, #4]
 1735 0820 1EFF2FE1 		bx	lr
 1736              	.LBE201:
 1737              	.LBE200:
 1738              		.cfi_endproc
 1739              	.LFE27:
 1740              		.fnend
 1741              		.size	MDS_ChainCurNodeInsert, .-MDS_ChainCurNodeInsert
 1742              		.align	2
 1743              		.global	MDS_ChainCurNodeDelete
 1744              		.type	MDS_ChainCurNodeDelete, %function
 1745              	MDS_ChainCurNodeDelete:
 1746              		.fnstart
 1747              	.LFB28:
1026:../mindows/mds_core_c.c **** {
 1748              		.loc 1 1026 0
 1749              		.cfi_startproc
 1750              		@ Function supports interworking.
 1751              		@ args = 0, pretend = 0, frame = 0
 1752              		@ frame_needed = 0, uses_anonymous_args = 0
 1753              		@ link register save eliminated.
 1754              	.LVL105:
1028:../mindows/mds_core_c.c ****     if(pstrChain != pstrNode)
 1755              		.loc 1 1028 0
ARM GAS  C:\DOCUME~1\ADMINI~1\LOCALS~1\Temp\cc1Hp51A.s 			page 56


 1756 0824 010050E1 		cmp	r0, r1
 1757 0828 1800000A 		beq	.L127
1031:../mindows/mds_core_c.c ****         if((pstrNode->pstrHead != pstrChain) || (pstrNode->pstrTail != pstrChain))
 1758              		.loc 1 1031 0
 1759 082c 003091E5 		ldr	r3, [r1, #0]
 1760 0830 000053E1 		cmp	r3, r0
 1761 0834 04209115 		ldrne	r2, [r1, #4]
 1762 0838 0300000A 		beq	.L129
 1763              	.L124:
1034:../mindows/mds_core_c.c ****             pstrNode->pstrHead->pstrTail = pstrNode->pstrTail;
 1764              		.loc 1 1034 0
 1765 083c 042083E5 		str	r2, [r3, #4]
1037:../mindows/mds_core_c.c ****             pstrNode->pstrTail->pstrHead = pstrNode->pstrHead;
 1766              		.loc 1 1037 0
 1767 0840 040091E5 		ldr	r0, [r1, #4]
 1768              	.LVL106:
 1769 0844 003080E5 		str	r3, [r0, #0]
1040:../mindows/mds_core_c.c ****             return pstrNode->pstrTail;
 1770              		.loc 1 1040 0
 1771 0848 1EFF2FE1 		bx	lr
 1772              	.LVL107:
 1773              	.L129:
1031:../mindows/mds_core_c.c ****         if((pstrNode->pstrHead != pstrChain) || (pstrNode->pstrTail != pstrChain))
 1774              		.loc 1 1031 0 discriminator 1
 1775 084c 042091E5 		ldr	r2, [r1, #4]
 1776 0850 020053E1 		cmp	r3, r2
 1777 0854 F8FFFF1A 		bne	.L124
 1778              	.LVL108:
 1779              	.LBB202:
 1780              	.LBB203:
 958:../mindows/mds_core_c.c ****     pstrTempNode = pstrChain->pstrTail;
 1781              		.loc 1 958 0
 1782 0858 040093E5 		ldr	r0, [r3, #4]
 1783              	.LVL109:
 961:../mindows/mds_core_c.c ****     if(NULL != pstrTempNode)
 1784              		.loc 1 961 0
 1785 085c 000050E3 		cmp	r0, #0
 1786 0860 1EFF2F01 		bxeq	lr
 964:../mindows/mds_core_c.c ****         if(pstrChain->pstrHead != pstrChain->pstrTail)
 1787              		.loc 1 964 0
 1788 0864 002093E5 		ldr	r2, [r3, #0]
 1789 0868 020050E1 		cmp	r0, r2
 967:../mindows/mds_core_c.c ****             pstrChain->pstrTail = pstrTempNode->pstrTail;
 1790              		.loc 1 967 0
 1791 086c 04209015 		ldrne	r2, [r0, #4]
 1792 0870 04208315 		strne	r2, [r3, #4]
 970:../mindows/mds_core_c.c ****             pstrTempNode->pstrTail->pstrHead = pstrChain;
 1793              		.loc 1 970 0
 1794 0874 04209015 		ldrne	r2, [r0, #4]
 975:../mindows/mds_core_c.c ****             pstrChain->pstrHead = (M_CHAIN*)NULL;
 1795              		.loc 1 975 0
 1796 0878 0000A003 		moveq	r0, #0
1047:../mindows/mds_core_c.c ****             return (M_CHAIN*)NULL;
 1797              		.loc 1 1047 0
 1798 087c 0000A013 		movne	r0, #0
 970:../mindows/mds_core_c.c ****             pstrTempNode->pstrTail->pstrHead = pstrChain;
 1799              		.loc 1 970 0
ARM GAS  C:\DOCUME~1\ADMINI~1\LOCALS~1\Temp\cc1Hp51A.s 			page 57


 1800 0880 00308215 		strne	r3, [r2, #0]
 975:../mindows/mds_core_c.c ****             pstrChain->pstrHead = (M_CHAIN*)NULL;
 1801              		.loc 1 975 0
 1802 0884 00008305 		streq	r0, [r3, #0]
 976:../mindows/mds_core_c.c ****             pstrChain->pstrTail = (M_CHAIN*)NULL;
 1803              		.loc 1 976 0
 1804 0888 04008305 		streq	r0, [r3, #4]
 1805 088c 1EFF2FE1 		bx	lr
 1806              	.LVL110:
 1807              	.L127:
 1808              	.LBE203:
 1809              	.LBE202:
1052:../mindows/mds_core_c.c ****         return (M_CHAIN*)NULL;
 1810              		.loc 1 1052 0
 1811 0890 0000A0E3 		mov	r0, #0
 1812              	.LVL111:
1054:../mindows/mds_core_c.c **** }
 1813              		.loc 1 1054 0
 1814 0894 1EFF2FE1 		bx	lr
 1815              		.cfi_endproc
 1816              	.LFE28:
 1817              		.fnend
 1818              		.size	MDS_ChainCurNodeDelete, .-MDS_ChainCurNodeDelete
 1819              		.align	2
 1820              		.global	MDS_TaskDelayTabSched
 1821              		.type	MDS_TaskDelayTabSched, %function
 1822              	MDS_TaskDelayTabSched:
 1823              		.fnstart
 1824              	.LFB16:
 545:../mindows/mds_core_c.c **** {
 1825              		.loc 1 545 0
 1826              		.cfi_startproc
 1827              		@ Function supports interworking.
 1828              		@ args = 0, pretend = 0, frame = 0
 1829              		@ frame_needed = 1, uses_anonymous_args = 0
 1830              	.LVL112:
 1831              		.movsp ip
 1832 0898 0DC0A0E1 		mov	ip, sp
 1833              	.LCFI18:
 1834              		.cfi_def_cfa_register 12
 1835 089c F8DF2DE9 		stmfd	sp!, {r3, r4, r5, r6, r7, r8, r9, sl, fp, ip, lr, pc}
 1836              		.pad #4
 1837              		.save {r3, r4, r5, r6, r7, r8, r9, sl, fp, ip, lr}
 1838              	.LBB204:
 1839              	.LBB205:
1063:../mindows/mds_core_c.c ****     return pstrChain->pstrTail;
 1840              		.loc 1 1063 0
 1841 08a0 F8309FE5 		ldr	r3, .L138
 1842              		.cfi_offset 14, -8
 1843              		.cfi_offset 13, -12
 1844              		.cfi_offset 11, -16
 1845              		.cfi_offset 10, -20
 1846              		.cfi_offset 9, -24
 1847              		.cfi_offset 8, -28
 1848              		.cfi_offset 7, -32
 1849              		.cfi_offset 6, -36
 1850              		.cfi_offset 5, -40
ARM GAS  C:\DOCUME~1\ADMINI~1\LOCALS~1\Temp\cc1Hp51A.s 			page 58


 1851              		.cfi_offset 4, -44
 1852              		.cfi_offset 3, -48
 1853 08a4 041093E5 		ldr	r1, [r3, #4]
 1854              	.LBE205:
 1855              	.LBE204:
 560:../mindows/mds_core_c.c ****     if(NULL != pstrDelayNode)
 1856              		.loc 1 560 0
 1857 08a8 000051E3 		cmp	r1, #0
 545:../mindows/mds_core_c.c **** {
 1858              		.loc 1 545 0
 1859              		.setfp fp, ip, #-4
 1860 08ac 04B04CE2 		sub	fp, ip, #4
 1861              	.LCFI19:
 1862              		.cfi_def_cfa 11, 4
 560:../mindows/mds_core_c.c ****     if(NULL != pstrDelayNode)
 1863              		.loc 1 560 0
 1864 08b0 3700000A 		beq	.L130
 605:../mindows/mds_core_c.c ****                 pstrChain = &gstrReadyTab.astrChain[ucTaskPrio];
 1865              		.loc 1 605 0
 1866 08b4 E8509FE5 		ldr	r5, .L138+4
 1867 08b8 E8709FE5 		ldr	r7, .L138+8
 599:../mindows/mds_core_c.c ****                     pstrTcb->strTaskOpt.uiDelayTick = RTN_SMTKTO;
 1868              		.loc 1 599 0
 1869 08bc 02A0A0E3 		mov	sl, #2
 605:../mindows/mds_core_c.c ****                 pstrChain = &gstrReadyTab.astrChain[ucTaskPrio];
 1870              		.loc 1 605 0
 1871 08c0 0560A0E1 		mov	r6, r5
 1872              	.LBB206:
 1873              	.LBB211:
 1874              	.LBB213:
 682:../mindows/mds_core_c.c ****     pstrPrioFlag->ucPrioFlagGrp1 |= (U8)(1 << ucTaskPrio);
 1875              		.loc 1 682 0
 1876 08c4 0180A0E3 		mov	r8, #1
 1877 08c8 160000EA 		b	.L136
 1878              	.LVL113:
 1879              	.L133:
 1880              	.LBE213:
 1881              	.LBE211:
 1882              	.LBE206:
 604:../mindows/mds_core_c.c ****                 ucTaskPrio = pstrTcb->ucTaskPrio;
 1883              		.loc 1 604 0
 1884 08cc 6830D4E5 		ldrb	r3, [r4, #104]	@ zero_extendqisi2
 605:../mindows/mds_core_c.c ****                 pstrChain = &gstrReadyTab.astrChain[ucTaskPrio];
 1885              		.loc 1 605 0
 1886 08d0 832185E0 		add	r2, r5, r3, asl #3
 1887              	.LBB221:
 1888              	.LBB215:
 1889              	.LBB217:
 922:../mindows/mds_core_c.c ****     if(NULL != pstrChain->pstrTail)
 1890              		.loc 1 922 0
 1891 08d4 041092E5 		ldr	r1, [r2, #4]
 1892 08d8 000051E3 		cmp	r1, #0
 925:../mindows/mds_core_c.c ****         pstrNode->pstrHead = pstrChain->pstrHead;
 1893              		.loc 1 925 0
 1894 08dc 83019617 		ldrne	r0, [r6, r3, asl #3]
 1895              	.LBE217:
 1896              	.LBE215:
ARM GAS  C:\DOCUME~1\ADMINI~1\LOCALS~1\Temp\cc1Hp51A.s 			page 59


 1897              	.LBE221:
 603:../mindows/mds_core_c.c ****                 pstrNode = &pstrTcb->strTcbQue.strQueHead;
 1898              		.loc 1 603 0
 1899 08e0 44E084E2 		add	lr, r4, #68
 1900              	.LVL114:
 1901              	.LBB222:
 1902              	.LBB210:
 1903              	.LBB218:
 928:../mindows/mds_core_c.c ****         pstrNode->pstrTail = pstrChain;
 1904              		.loc 1 928 0
 1905 08e4 48208415 		strne	r2, [r4, #72]
 931:../mindows/mds_core_c.c ****         pstrChain->pstrHead->pstrTail = pstrNode;
 1906              		.loc 1 931 0
 1907 08e8 04E08015 		strne	lr, [r0, #4]
 1908              	.LBE218:
 1909              	.LBE210:
 1910              	.LBB209:
 1911              	.LBB212:
 682:../mindows/mds_core_c.c ****     pstrPrioFlag->ucPrioFlagGrp1 |= (U8)(1 << ucTaskPrio);
 1912              		.loc 1 682 0
 1913 08ec 40C0D5E5 		ldrb	ip, [r5, #64]	@ zero_extendqisi2
 1914              	.LBE212:
 1915              	.LBE209:
 1916              	.LBB208:
 1917              	.LBB216:
 944:../mindows/mds_core_c.c ****         pstrChain->pstrTail = pstrNode;
 1918              		.loc 1 944 0
 1919 08f0 04E08205 		streq	lr, [r2, #4]
 1920              	.LVL115:
 939:../mindows/mds_core_c.c ****         pstrNode->pstrHead = pstrChain;
 1921              		.loc 1 939 0
 1922 08f4 44208405 		streq	r2, [r4, #68]
 940:../mindows/mds_core_c.c ****         pstrNode->pstrTail = pstrChain;
 1923              		.loc 1 940 0
 1924 08f8 48208405 		streq	r2, [r4, #72]
 1925              	.LBE216:
 1926              	.LBE208:
 1927              	.LBB207:
 1928              	.LBB214:
 682:../mindows/mds_core_c.c ****     pstrPrioFlag->ucPrioFlagGrp1 |= (U8)(1 << ucTaskPrio);
 1929              		.loc 1 682 0
 1930 08fc 18238CE1 		orr	r2, ip, r8, asl r3
 1931              	.LVL116:
 1932 0900 4020C5E5 		strb	r2, [r5, #64]
 1933              	.LBE214:
 1934              	.LBE207:
 1935              	.LBE222:
 613:../mindows/mds_core_c.c ****                 pstrTcb->strTaskOpt.ucTaskSta |= TASKREADY;
 1936              		.loc 1 613 0
 1937 0904 6C10D4E5 		ldrb	r1, [r4, #108]	@ zero_extendqisi2
 1938              	.LBB223:
 1939              	.LBB220:
 1940              	.LBB219:
 934:../mindows/mds_core_c.c ****         pstrChain->pstrHead = pstrNode;
 1941              		.loc 1 934 0
 1942 0908 83E18617 		strne	lr, [r6, r3, asl #3]
 943:../mindows/mds_core_c.c ****         pstrChain->pstrHead = pstrNode;
ARM GAS  C:\DOCUME~1\ADMINI~1\LOCALS~1\Temp\cc1Hp51A.s 			page 60


 1943              		.loc 1 943 0
 1944 090c 83E18607 		streq	lr, [r6, r3, asl #3]
 925:../mindows/mds_core_c.c ****         pstrNode->pstrHead = pstrChain->pstrHead;
 1945              		.loc 1 925 0
 1946 0910 44008415 		strne	r0, [r4, #68]
 1947              	.LBE219:
 1948              	.LBE220:
 1949              	.LBE223:
 613:../mindows/mds_core_c.c ****                 pstrTcb->strTaskOpt.ucTaskSta |= TASKREADY;
 1950              		.loc 1 613 0
 1951 0914 02E081E3 		orr	lr, r1, #2
 1952              	.LVL117:
 616:../mindows/mds_core_c.c ****                 if(NULL == pstrNextNode)
 1953              		.loc 1 616 0
 1954 0918 000059E3 		cmp	r9, #0
 613:../mindows/mds_core_c.c ****                 pstrTcb->strTaskOpt.ucTaskSta |= TASKREADY;
 1955              		.loc 1 613 0
 1956 091c 6CE0C4E5 		strb	lr, [r4, #108]
 616:../mindows/mds_core_c.c ****                 if(NULL == pstrNextNode)
 1957              		.loc 1 616 0
 1958 0920 1B00000A 		beq	.L130
 622:../mindows/mds_core_c.c ****                     pstrDelayNode = pstrNextNode;
 1959              		.loc 1 622 0
 1960 0924 0910A0E1 		mov	r1, r9
 1961              	.LVL118:
 1962              	.L136:
 567:../mindows/mds_core_c.c ****             pstrTcb = pstrDelayQue->pstrTcb;
 1963              		.loc 1 567 0
 1964 0928 084091E5 		ldr	r4, [r1, #8]
 1965              	.LVL119:
 571:../mindows/mds_core_c.c ****             if(uiTick == guiTick)
 1966              		.loc 1 571 0
 1967 092c 00C097E5 		ldr	ip, [r7, #0]
 1968 0930 742094E5 		ldr	r2, [r4, #116]
 1969 0934 0C0052E1 		cmp	r2, ip
 574:../mindows/mds_core_c.c ****                 pstrNextNode = MDS_ChainCurNodeDelete(&gstrDelayTab, pstrDelayNode);
 1970              		.loc 1 574 0
 1971 0938 60009FE5 		ldr	r0, .L138
 571:../mindows/mds_core_c.c ****             if(uiTick == guiTick)
 1972              		.loc 1 571 0
 1973 093c 1400001A 		bne	.L130
 574:../mindows/mds_core_c.c ****                 pstrNextNode = MDS_ChainCurNodeDelete(&gstrDelayTab, pstrDelayNode);
 1974              		.loc 1 574 0
 1975 0940 FEFFFFEB 		bl	MDS_ChainCurNodeDelete
 1976              	.LVL120:
 581:../mindows/mds_core_c.c ****                 if(TASKDELAY == (TASKDELAY & pstrTcb->strTaskOpt.ucTaskSta))
 1977              		.loc 1 581 0
 1978 0944 6C30D4E5 		ldrb	r3, [r4, #108]	@ zero_extendqisi2
 577:../mindows/mds_core_c.c ****                 pstrTcb->uiTaskFlag &= (~((U32)DELAYQUEFLAG));
 1979              		.loc 1 577 0
 1980 0948 642094E5 		ldr	r2, [r4, #100]
 581:../mindows/mds_core_c.c ****                 if(TASKDELAY == (TASKDELAY & pstrTcb->strTaskOpt.ucTaskSta))
 1981              		.loc 1 581 0
 1982 094c 040013E3 		tst	r3, #4
 577:../mindows/mds_core_c.c ****                 pstrTcb->uiTaskFlag &= (~((U32)DELAYQUEFLAG));
 1983              		.loc 1 577 0
 1984 0950 0110C2E3 		bic	r1, r2, #1
ARM GAS  C:\DOCUME~1\ADMINI~1\LOCALS~1\Temp\cc1Hp51A.s 			page 61


 584:../mindows/mds_core_c.c ****                     pstrTcb->strTaskOpt.ucTaskSta &= ~((U8)TASKDELAY);
 1985              		.loc 1 584 0
 1986 0954 0430C313 		bicne	r3, r3, #4
 574:../mindows/mds_core_c.c ****                 pstrNextNode = MDS_ChainCurNodeDelete(&gstrDelayTab, pstrDelayNode);
 1987              		.loc 1 574 0
 1988 0958 0090A0E1 		mov	r9, r0
 1989              	.LVL121:
 577:../mindows/mds_core_c.c ****                 pstrTcb->uiTaskFlag &= (~((U32)DELAYQUEFLAG));
 1990              		.loc 1 577 0
 1991 095c 641084E5 		str	r1, [r4, #100]
 584:../mindows/mds_core_c.c ****                     pstrTcb->strTaskOpt.ucTaskSta &= ~((U8)TASKDELAY);
 1992              		.loc 1 584 0
 1993 0960 6C30C415 		strneb	r3, [r4, #108]
 587:../mindows/mds_core_c.c ****                     pstrTcb->strTaskOpt.uiDelayTick = RTN_TKDLTO;
 1994              		.loc 1 587 0
 1995 0964 70A08415 		strne	sl, [r4, #112]
 581:../mindows/mds_core_c.c ****                 if(TASKDELAY == (TASKDELAY & pstrTcb->strTaskOpt.ucTaskSta))
 1996              		.loc 1 581 0
 1997 0968 D7FFFF1A 		bne	.L133
 590:../mindows/mds_core_c.c ****                 else if(TASKPEND == (TASKPEND& pstrTcb->strTaskOpt.ucTaskSta))
 1998              		.loc 1 590 0
 1999 096c 080013E3 		tst	r3, #8
 2000 0970 D5FFFF0A 		beq	.L133
 593:../mindows/mds_core_c.c ****                     (void)MDS_TaskDelFromSemTab(gpstrCurTcb);
 2001              		.loc 1 593 0
 2002 0974 30009FE5 		ldr	r0, .L138+12
 2003              	.LVL122:
 2004 0978 000090E5 		ldr	r0, [r0, #0]
 2005 097c FEFFFFEB 		bl	MDS_TaskDelFromSemTab
 596:../mindows/mds_core_c.c ****                     pstrTcb->strTaskOpt.ucTaskSta &= ~((U8)TASKPEND);
 2006              		.loc 1 596 0
 2007 0980 6CC0D4E5 		ldrb	ip, [r4, #108]	@ zero_extendqisi2
 2008 0984 0830CCE3 		bic	r3, ip, #8
 2009 0988 6C30C4E5 		strb	r3, [r4, #108]
 599:../mindows/mds_core_c.c ****                     pstrTcb->strTaskOpt.uiDelayTick = RTN_SMTKTO;
 2010              		.loc 1 599 0
 2011 098c 70A084E5 		str	sl, [r4, #112]
 2012 0990 CDFFFFEA 		b	.L133
 2013              	.LVL123:
 2014              	.L130:
 631:../mindows/mds_core_c.c **** }
 2015              		.loc 1 631 0
 2016 0994 2CD04BE2 		sub	sp, fp, #44
 2017 0998 F86F9DE8 		ldmfd	sp, {r3, r4, r5, r6, r7, r8, r9, sl, fp, sp, lr}
 2018 099c 1EFF2FE1 		bx	lr
 2019              	.L139:
 2020              		.align	2
 2021              	.L138:
 2022 09a0 00000000 		.word	gstrDelayTab
 2023 09a4 00000000 		.word	gstrReadyTab
 2024 09a8 00000000 		.word	guiTick
 2025 09ac 00000000 		.word	gpstrCurTcb
 2026              		.cfi_endproc
 2027              	.LFE16:
 2028              		.fnend
 2029              		.size	MDS_TaskDelayTabSched, .-MDS_TaskDelayTabSched
 2030              		.align	2
ARM GAS  C:\DOCUME~1\ADMINI~1\LOCALS~1\Temp\cc1Hp51A.s 			page 62


 2031              		.global	MDS_TaskSched
 2032              		.type	MDS_TaskSched, %function
 2033              	MDS_TaskSched:
 2034              		.fnstart
 2035              	.LFB13:
 463:../mindows/mds_core_c.c **** {
 2036              		.loc 1 463 0
 2037              		.cfi_startproc
 2038              		@ Function supports interworking.
 2039              		@ args = 0, pretend = 0, frame = 0
 2040              		@ frame_needed = 1, uses_anonymous_args = 0
 2041              		.movsp ip
 2042 09b0 0DC0A0E1 		mov	ip, sp
 2043              	.LCFI20:
 2044              		.cfi_def_cfa_register 12
 2045 09b4 30D82DE9 		stmfd	sp!, {r4, r5, fp, ip, lr, pc}
 2046              		.pad #4
 2047              		.save {r4, r5, fp, ip, lr}
 2048              	.LBB224:
 2049              	.LBB227:
 2050              	.LBB231:
 2051              	.LBB232:
1063:../mindows/mds_core_c.c ****     return pstrChain->pstrTail;
 2052              		.loc 1 1063 0
 2053 09b8 78409FE5 		ldr	r4, .L144
 2054              		.cfi_offset 14, -8
 2055              		.cfi_offset 13, -12
 2056              		.cfi_offset 11, -16
 2057              		.cfi_offset 5, -20
 2058              		.cfi_offset 4, -24
 2059              	.LBE232:
 2060              	.LBE231:
 2061              	.LBE227:
 2062              	.LBE224:
 463:../mindows/mds_core_c.c **** {
 2063              		.loc 1 463 0
 2064              		.setfp fp, ip, #-4
 2065 09bc 04B04CE2 		sub	fp, ip, #4
 2066              	.LCFI21:
 2067              		.cfi_def_cfa 11, 4
 467:../mindows/mds_core_c.c ****     MDS_TaskDelayTabSched();
 2068              		.loc 1 467 0
 2069 09c0 FEFFFFEB 		bl	MDS_TaskDelayTabSched
 2070              	.LVL124:
 2071              	.LBB236:
 2072              	.LBB226:
 533:../mindows/mds_core_c.c ****     pstrTaskQue = (M_TCBQUE*)MDS_ChainEmpInq(&gstrReadyTab.astrChain[ucTaskPrio]);
 2073              		.loc 1 533 0
 2074 09c4 70509FE5 		ldr	r5, .L144+4
 2075              	.LBB229:
 2076              	.LBB230:
 790:../mindows/mds_core_c.c ****     return caucTaskPrioUnmapTab[pstrPrioFlag->ucPrioFlagGrp1];
 2077              		.loc 1 790 0
 2078 09c8 40C0D4E5 		ldrb	ip, [r4, #64]	@ zero_extendqisi2
 2079              	.LBE230:
 2080              	.LBE229:
 2081              	.LBE226:
ARM GAS  C:\DOCUME~1\ADMINI~1\LOCALS~1\Temp\cc1Hp51A.s 			page 63


 2082              	.LBE236:
 475:../mindows/mds_core_c.c ****     if((VFHSWT)NULL != gvfTaskSwitchHook)
 2083              		.loc 1 475 0
 2084 09cc 6C309FE5 		ldr	r3, .L144+8
 2085              	.LBB237:
 2086              	.LBB234:
 533:../mindows/mds_core_c.c ****     pstrTaskQue = (M_TCBQUE*)MDS_ChainEmpInq(&gstrReadyTab.astrChain[ucTaskPrio]);
 2087              		.loc 1 533 0
 2088 09d0 0C10D5E7 		ldrb	r1, [r5, ip]	@ zero_extendqisi2
 2089              	.LBE234:
 2090              	.LBE237:
 475:../mindows/mds_core_c.c ****     if((VFHSWT)NULL != gvfTaskSwitchHook)
 2091              		.loc 1 475 0
 2092 09d4 003093E5 		ldr	r3, [r3, #0]
 2093              	.LBB238:
 2094              	.LBB225:
 2095              	.LBB228:
 2096              	.LBB233:
1063:../mindows/mds_core_c.c ****     return pstrChain->pstrTail;
 2097              		.loc 1 1063 0
 2098 09d8 810184E0 		add	r0, r4, r1, asl #3
 2099              	.LBE233:
 2100              	.LBE228:
 534:../mindows/mds_core_c.c ****     pstrTcb = pstrTaskQue->pstrTcb;
 2101              		.loc 1 534 0
 2102 09dc 042090E5 		ldr	r2, [r0, #4]
 2103              	.LBE225:
 2104              	.LBE238:
 475:../mindows/mds_core_c.c ****     if((VFHSWT)NULL != gvfTaskSwitchHook)
 2105              		.loc 1 475 0
 2106 09e0 000053E3 		cmp	r3, #0
 2107              	.LBB239:
 2108              	.LBB235:
 534:../mindows/mds_core_c.c ****     pstrTcb = pstrTaskQue->pstrTcb;
 2109              		.loc 1 534 0
 2110 09e4 084092E5 		ldr	r4, [r2, #8]
 2111              	.LVL125:
 2112              	.LBE235:
 2113              	.LBE239:
 475:../mindows/mds_core_c.c ****     if((VFHSWT)NULL != gvfTaskSwitchHook)
 2114              		.loc 1 475 0
 2115 09e8 0F00000A 		beq	.L143
 478:../mindows/mds_core_c.c ****         if(pstrTcb != gpstrCurTcb)
 2116              		.loc 1 478 0
 2117 09ec 50509FE5 		ldr	r5, .L144+12
 2118 09f0 000095E5 		ldr	r0, [r5, #0]
 2119              	.LVL126:
 2120 09f4 040050E1 		cmp	r0, r4
 2121 09f8 0300000A 		beq	.L142
 480:../mindows/mds_core_c.c ****             gvfTaskSwitchHook(gpstrCurTcb, pstrTcb);
 2122              		.loc 1 480 0
 2123 09fc 0410A0E1 		mov	r1, r4
 2124 0a00 0FE0A0E1 		mov	lr, pc
 2125 0a04 13FF2FE1 		bx	r3
 2126              	.LVL127:
 2127 0a08 000095E5 		ldr	r0, [r5, #0]
 2128              	.L142:
ARM GAS  C:\DOCUME~1\ADMINI~1\LOCALS~1\Temp\cc1Hp51A.s 			page 64


 2129              	.LVL128:
 2130              	.LBB240:
 2131              	.LBB241:
 142:../mindows/mds_core_c.c ****     gpstrCurTaskSpAddr = &gpstrCurTcb->strStackReg;
 2132              		.loc 1 142 0
 2133 0a0c 34209FE5 		ldr	r2, .L144+16
 146:../mindows/mds_core_c.c ****     gpstrNextTaskSpAddr = &pstrTcb->strStackReg;
 2134              		.loc 1 146 0
 2135 0a10 34E09FE5 		ldr	lr, .L144+20
 142:../mindows/mds_core_c.c ****     gpstrCurTaskSpAddr = &gpstrCurTcb->strStackReg;
 2136              		.loc 1 142 0
 2137 0a14 000082E5 		str	r0, [r2, #0]
 146:../mindows/mds_core_c.c ****     gpstrNextTaskSpAddr = &pstrTcb->strStackReg;
 2138              		.loc 1 146 0
 2139 0a18 00408EE5 		str	r4, [lr, #0]
 149:../mindows/mds_core_c.c ****     gpstrCurTcb = pstrTcb;
 2140              		.loc 1 149 0
 2141 0a1c 004085E5 		str	r4, [r5, #0]
 2142              	.LBE241:
 2143              	.LBE240:
 488:../mindows/mds_core_c.c **** }
 2144              		.loc 1 488 0
 2145 0a20 14D04BE2 		sub	sp, fp, #20
 2146 0a24 30689DE8 		ldmfd	sp, {r4, r5, fp, sp, lr}
 2147 0a28 1EFF2FE1 		bx	lr
 2148              	.LVL129:
 2149              	.L143:
 475:../mindows/mds_core_c.c ****     if((VFHSWT)NULL != gvfTaskSwitchHook)
 2150              		.loc 1 475 0
 2151 0a2c 10509FE5 		ldr	r5, .L144+12
 2152 0a30 000095E5 		ldr	r0, [r5, #0]
 2153 0a34 F4FFFFEA 		b	.L142
 2154              	.L145:
 2155              		.align	2
 2156              	.L144:
 2157 0a38 00000000 		.word	gstrReadyTab
 2158 0a3c 00000000 		.word	.LANCHOR0
 2159 0a40 00000000 		.word	gvfTaskSwitchHook
 2160 0a44 00000000 		.word	gpstrCurTcb
 2161 0a48 00000000 		.word	gpstrCurTaskSpAddr
 2162 0a4c 00000000 		.word	gpstrNextTaskSpAddr
 2163              		.cfi_endproc
 2164              	.LFE13:
 2165              		.fnend
 2166              		.size	MDS_TaskSched, .-MDS_TaskSched
 2167              		.align	2
 2168              		.global	MDS_TaskTick
 2169              		.type	MDS_TaskTick, %function
 2170              	MDS_TaskTick:
 2171              		.fnstart
 2172              	.LFB3:
 125:../mindows/mds_core_c.c **** {
 2173              		.loc 1 125 0
 2174              		.cfi_startproc
 2175              		@ Function supports interworking.
 2176              		@ args = 0, pretend = 0, frame = 0
 2177              		@ frame_needed = 0, uses_anonymous_args = 0
ARM GAS  C:\DOCUME~1\ADMINI~1\LOCALS~1\Temp\cc1Hp51A.s 			page 65


 2178              		@ link register save eliminated.
 127:../mindows/mds_core_c.c ****     guiTick++;
 2179              		.loc 1 127 0
 2180 0a50 0C309FE5 		ldr	r3, .L147
 2181 0a54 000093E5 		ldr	r0, [r3, #0]
 2182 0a58 012080E2 		add	r2, r0, #1
 2183 0a5c 002083E5 		str	r2, [r3, #0]
 131:../mindows/mds_core_c.c **** }
 2184              		.loc 1 131 0
 130:../mindows/mds_core_c.c ****     MDS_TaskSched();
 2185              		.loc 1 130 0
 2186 0a60 FEFFFFEA 		b	MDS_TaskSched
 2187              	.L148:
 2188              		.align	2
 2189              	.L147:
 2190 0a64 00000000 		.word	guiTick
 2191              		.cfi_endproc
 2192              	.LFE3:
 2193              		.fnend
 2194              		.size	MDS_TaskTick, .-MDS_TaskTick
 2195              		.align	2
 2196              		.global	MDS_ChainEmpInq
 2197              		.type	MDS_ChainEmpInq, %function
 2198              	MDS_ChainEmpInq:
 2199              		.fnstart
 2200              	.LFB29:
1062:../mindows/mds_core_c.c **** {
 2201              		.loc 1 1062 0
 2202              		.cfi_startproc
 2203              		@ Function supports interworking.
 2204              		@ args = 0, pretend = 0, frame = 0
 2205              		@ frame_needed = 0, uses_anonymous_args = 0
 2206              		@ link register save eliminated.
 2207              	.LVL130:
1064:../mindows/mds_core_c.c **** }
 2208              		.loc 1 1064 0
 2209 0a68 040090E5 		ldr	r0, [r0, #4]
 2210              	.LVL131:
 2211 0a6c 1EFF2FE1 		bx	lr
 2212              		.cfi_endproc
 2213              	.LFE29:
 2214              		.fnend
 2215              		.size	MDS_ChainEmpInq, .-MDS_ChainEmpInq
 2216              		.align	2
 2217              		.global	MDS_ChainNextNodeEmpInq
 2218              		.type	MDS_ChainNextNodeEmpInq, %function
 2219              	MDS_ChainNextNodeEmpInq:
 2220              		.fnstart
 2221              	.LFB30:
1073:../mindows/mds_core_c.c **** {
 2222              		.loc 1 1073 0
 2223              		.cfi_startproc
 2224              		@ Function supports interworking.
 2225              		@ args = 0, pretend = 0, frame = 0
 2226              		@ frame_needed = 0, uses_anonymous_args = 0
 2227              		@ link register save eliminated.
 2228              	.LVL132:
ARM GAS  C:\DOCUME~1\ADMINI~1\LOCALS~1\Temp\cc1Hp51A.s 			page 66


 2229              		.loc 1 1075 0
 2230 0a70 043091E5 		ldr	r3, [r1, #4]
1076:../mindows/mds_core_c.c ****     {
1077:../mindows/mds_core_c.c ****         return (M_CHAIN*)NULL;
1078:../mindows/mds_core_c.c ****     }
1079:../mindows/mds_core_c.c ****     else
1080:../mindows/mds_core_c.c ****     {
1081:../mindows/mds_core_c.c ****         return pstrNode->pstrTail;
1082:../mindows/mds_core_c.c ****     }
1083:../mindows/mds_core_c.c **** }
 2231              		.loc 1 1083 0
 2232 0a74 000053E1 		cmp	r3, r0
 2233 0a78 0300A011 		movne	r0, r3
 2234              	.LVL133:
 2235 0a7c 0000A003 		moveq	r0, #0
 2236 0a80 1EFF2FE1 		bx	lr
 2237              		.cfi_endproc
 2238              	.LFE30:
 2239              		.fnend
 2240              		.size	MDS_ChainNextNodeEmpInq, .-MDS_ChainNextNodeEmpInq
 2241              		.global	caucTaskPrioUnmapTab
 2242              		.comm	gstrReadyTab,68,4
 2243              		.comm	gstrDelayTab,8,4
 2244              		.comm	guiTick,4,4
 2245              		.comm	gpstrCurTaskSpAddr,4,4
 2246              		.comm	gpstrNextTaskSpAddr,4,4
 2247              		.comm	gpstrCurTcb,4,4
 2248              		.comm	gpstrRootTaskTcb,4,4
 2249              		.comm	gpstrIdleTaskTcb,4,4
 2250              		.comm	guiIntLockCounter,4,4
 2251              		.section	.rodata
 2252              		.align	2
 2253              	.LANCHOR0 = . + 0
 2254              		.type	caucTaskPrioUnmapTab, %object
 2255              		.size	caucTaskPrioUnmapTab, 256
 2256              	caucTaskPrioUnmapTab:
 2257 0000 00       		.byte	0
 2258 0001 00       		.byte	0
 2259 0002 01       		.byte	1
 2260 0003 00       		.byte	0
 2261 0004 02       		.byte	2
 2262 0005 00       		.byte	0
 2263 0006 01       		.byte	1
 2264 0007 00       		.byte	0
 2265 0008 03       		.byte	3
 2266 0009 00       		.byte	0
 2267 000a 01       		.byte	1
 2268 000b 00       		.byte	0
 2269 000c 02       		.byte	2
 2270 000d 00       		.byte	0
 2271 000e 01       		.byte	1
 2272 000f 00       		.byte	0
 2273 0010 04       		.byte	4
 2274 0011 00       		.byte	0
 2275 0012 01       		.byte	1
 2276 0013 00       		.byte	0
 2277 0014 02       		.byte	2
ARM GAS  C:\DOCUME~1\ADMINI~1\LOCALS~1\Temp\cc1Hp51A.s 			page 67


 2278 0015 00       		.byte	0
 2279 0016 01       		.byte	1
 2280 0017 00       		.byte	0
 2281 0018 03       		.byte	3
 2282 0019 00       		.byte	0
 2283 001a 01       		.byte	1
 2284 001b 00       		.byte	0
 2285 001c 02       		.byte	2
 2286 001d 00       		.byte	0
 2287 001e 01       		.byte	1
 2288 001f 00       		.byte	0
 2289 0020 05       		.byte	5
 2290 0021 00       		.byte	0
 2291 0022 01       		.byte	1
 2292 0023 00       		.byte	0
 2293 0024 02       		.byte	2
 2294 0025 00       		.byte	0
 2295 0026 01       		.byte	1
 2296 0027 00       		.byte	0
 2297 0028 03       		.byte	3
 2298 0029 00       		.byte	0
 2299 002a 01       		.byte	1
 2300 002b 00       		.byte	0
 2301 002c 02       		.byte	2
 2302 002d 00       		.byte	0
 2303 002e 01       		.byte	1
 2304 002f 00       		.byte	0
 2305 0030 04       		.byte	4
 2306 0031 00       		.byte	0
 2307 0032 01       		.byte	1
 2308 0033 00       		.byte	0
 2309 0034 02       		.byte	2
 2310 0035 00       		.byte	0
 2311 0036 01       		.byte	1
 2312 0037 00       		.byte	0
 2313 0038 03       		.byte	3
 2314 0039 00       		.byte	0
 2315 003a 01       		.byte	1
 2316 003b 00       		.byte	0
 2317 003c 02       		.byte	2
 2318 003d 00       		.byte	0
 2319 003e 01       		.byte	1
 2320 003f 00       		.byte	0
 2321 0040 06       		.byte	6
 2322 0041 00       		.byte	0
 2323 0042 01       		.byte	1
 2324 0043 00       		.byte	0
 2325 0044 02       		.byte	2
 2326 0045 00       		.byte	0
 2327 0046 01       		.byte	1
 2328 0047 00       		.byte	0
 2329 0048 03       		.byte	3
 2330 0049 00       		.byte	0
 2331 004a 01       		.byte	1
 2332 004b 00       		.byte	0
 2333 004c 02       		.byte	2
 2334 004d 00       		.byte	0
ARM GAS  C:\DOCUME~1\ADMINI~1\LOCALS~1\Temp\cc1Hp51A.s 			page 68


 2335 004e 01       		.byte	1
 2336 004f 00       		.byte	0
 2337 0050 04       		.byte	4
 2338 0051 00       		.byte	0
 2339 0052 01       		.byte	1
 2340 0053 00       		.byte	0
 2341 0054 02       		.byte	2
 2342 0055 00       		.byte	0
 2343 0056 01       		.byte	1
 2344 0057 00       		.byte	0
 2345 0058 03       		.byte	3
 2346 0059 00       		.byte	0
 2347 005a 01       		.byte	1
 2348 005b 00       		.byte	0
 2349 005c 02       		.byte	2
 2350 005d 00       		.byte	0
 2351 005e 01       		.byte	1
 2352 005f 00       		.byte	0
 2353 0060 05       		.byte	5
 2354 0061 00       		.byte	0
 2355 0062 01       		.byte	1
 2356 0063 00       		.byte	0
 2357 0064 02       		.byte	2
 2358 0065 00       		.byte	0
 2359 0066 01       		.byte	1
 2360 0067 00       		.byte	0
 2361 0068 03       		.byte	3
 2362 0069 00       		.byte	0
 2363 006a 01       		.byte	1
 2364 006b 00       		.byte	0
 2365 006c 02       		.byte	2
 2366 006d 00       		.byte	0
 2367 006e 01       		.byte	1
 2368 006f 00       		.byte	0
 2369 0070 04       		.byte	4
 2370 0071 00       		.byte	0
 2371 0072 01       		.byte	1
 2372 0073 00       		.byte	0
 2373 0074 02       		.byte	2
 2374 0075 00       		.byte	0
 2375 0076 01       		.byte	1
 2376 0077 00       		.byte	0
 2377 0078 03       		.byte	3
 2378 0079 00       		.byte	0
 2379 007a 01       		.byte	1
 2380 007b 00       		.byte	0
 2381 007c 02       		.byte	2
 2382 007d 00       		.byte	0
 2383 007e 01       		.byte	1
 2384 007f 00       		.byte	0
 2385 0080 07       		.byte	7
 2386 0081 00       		.byte	0
 2387 0082 01       		.byte	1
 2388 0083 00       		.byte	0
 2389 0084 02       		.byte	2
 2390 0085 00       		.byte	0
 2391 0086 01       		.byte	1
ARM GAS  C:\DOCUME~1\ADMINI~1\LOCALS~1\Temp\cc1Hp51A.s 			page 69


 2392 0087 00       		.byte	0
 2393 0088 03       		.byte	3
 2394 0089 00       		.byte	0
 2395 008a 01       		.byte	1
 2396 008b 00       		.byte	0
 2397 008c 02       		.byte	2
 2398 008d 00       		.byte	0
 2399 008e 01       		.byte	1
 2400 008f 00       		.byte	0
 2401 0090 04       		.byte	4
 2402 0091 00       		.byte	0
 2403 0092 01       		.byte	1
 2404 0093 00       		.byte	0
 2405 0094 02       		.byte	2
 2406 0095 00       		.byte	0
 2407 0096 01       		.byte	1
 2408 0097 00       		.byte	0
 2409 0098 03       		.byte	3
 2410 0099 00       		.byte	0
 2411 009a 01       		.byte	1
 2412 009b 00       		.byte	0
 2413 009c 02       		.byte	2
 2414 009d 00       		.byte	0
 2415 009e 01       		.byte	1
 2416 009f 00       		.byte	0
 2417 00a0 05       		.byte	5
 2418 00a1 00       		.byte	0
 2419 00a2 01       		.byte	1
 2420 00a3 00       		.byte	0
 2421 00a4 02       		.byte	2
 2422 00a5 00       		.byte	0
 2423 00a6 01       		.byte	1
 2424 00a7 00       		.byte	0
 2425 00a8 03       		.byte	3
 2426 00a9 00       		.byte	0
 2427 00aa 01       		.byte	1
 2428 00ab 00       		.byte	0
 2429 00ac 02       		.byte	2
 2430 00ad 00       		.byte	0
 2431 00ae 01       		.byte	1
 2432 00af 00       		.byte	0
 2433 00b0 04       		.byte	4
 2434 00b1 00       		.byte	0
 2435 00b2 01       		.byte	1
 2436 00b3 00       		.byte	0
 2437 00b4 02       		.byte	2
 2438 00b5 00       		.byte	0
 2439 00b6 01       		.byte	1
 2440 00b7 00       		.byte	0
 2441 00b8 03       		.byte	3
 2442 00b9 00       		.byte	0
 2443 00ba 01       		.byte	1
 2444 00bb 00       		.byte	0
 2445 00bc 02       		.byte	2
 2446 00bd 00       		.byte	0
 2447 00be 01       		.byte	1
 2448 00bf 00       		.byte	0
ARM GAS  C:\DOCUME~1\ADMINI~1\LOCALS~1\Temp\cc1Hp51A.s 			page 70


 2449 00c0 06       		.byte	6
 2450 00c1 00       		.byte	0
 2451 00c2 01       		.byte	1
 2452 00c3 00       		.byte	0
 2453 00c4 02       		.byte	2
 2454 00c5 00       		.byte	0
 2455 00c6 01       		.byte	1
 2456 00c7 00       		.byte	0
 2457 00c8 03       		.byte	3
 2458 00c9 00       		.byte	0
 2459 00ca 01       		.byte	1
 2460 00cb 00       		.byte	0
 2461 00cc 02       		.byte	2
 2462 00cd 00       		.byte	0
 2463 00ce 01       		.byte	1
 2464 00cf 00       		.byte	0
 2465 00d0 04       		.byte	4
 2466 00d1 00       		.byte	0
 2467 00d2 01       		.byte	1
 2468 00d3 00       		.byte	0
 2469 00d4 02       		.byte	2
 2470 00d5 00       		.byte	0
 2471 00d6 01       		.byte	1
 2472 00d7 00       		.byte	0
 2473 00d8 03       		.byte	3
 2474 00d9 00       		.byte	0
 2475 00da 01       		.byte	1
 2476 00db 00       		.byte	0
 2477 00dc 02       		.byte	2
 2478 00dd 00       		.byte	0
 2479 00de 01       		.byte	1
 2480 00df 00       		.byte	0
 2481 00e0 05       		.byte	5
 2482 00e1 00       		.byte	0
 2483 00e2 01       		.byte	1
 2484 00e3 00       		.byte	0
 2485 00e4 02       		.byte	2
 2486 00e5 00       		.byte	0
 2487 00e6 01       		.byte	1
 2488 00e7 00       		.byte	0
 2489 00e8 03       		.byte	3
 2490 00e9 00       		.byte	0
 2491 00ea 01       		.byte	1
 2492 00eb 00       		.byte	0
 2493 00ec 02       		.byte	2
 2494 00ed 00       		.byte	0
 2495 00ee 01       		.byte	1
 2496 00ef 00       		.byte	0
 2497 00f0 04       		.byte	4
 2498 00f1 00       		.byte	0
 2499 00f2 01       		.byte	1
 2500 00f3 00       		.byte	0
 2501 00f4 02       		.byte	2
 2502 00f5 00       		.byte	0
 2503 00f6 01       		.byte	1
 2504 00f7 00       		.byte	0
 2505 00f8 03       		.byte	3
ARM GAS  C:\DOCUME~1\ADMINI~1\LOCALS~1\Temp\cc1Hp51A.s 			page 71


 2506 00f9 00       		.byte	0
 2507 00fa 01       		.byte	1
 2508 00fb 00       		.byte	0
 2509 00fc 02       		.byte	2
 2510 00fd 00       		.byte	0
 2511 00fe 01       		.byte	1
 2512 00ff 00       		.byte	0
 2513              		.section	.rodata.str1.4,"aMS",%progbits,1
 2514              		.align	2
 2515              	.LC0:
 2516 0000 526F6F74 		.ascii	"Root\000"
 2516      00
 2517 0005 000000   		.space	3
 2518              	.LC1:
 2519 0008 49646C65 		.ascii	"Idle\000"
 2519      00
 2520 000d 000000   		.text
 2521              	.Letext0:
 2522              		.section	.debug_loc,"",%progbits
 2523              	.Ldebug_loc0:
 2524              	.LLST0:
 2525 0000 00000000 		.4byte	.LFB1-.Ltext0
 2526 0004 04000000 		.4byte	.LCFI0-.Ltext0
 2527 0008 0200     		.2byte	0x2
 2528 000a 7D       		.byte	0x7d
 2529 000b 00       		.sleb128 0
 2530 000c 04000000 		.4byte	.LCFI0-.Ltext0
 2531 0010 14000000 		.4byte	.LCFI1-.Ltext0
 2532 0014 0200     		.2byte	0x2
 2533 0016 7C       		.byte	0x7c
 2534 0017 00       		.sleb128 0
 2535 0018 14000000 		.4byte	.LCFI1-.Ltext0
 2536 001c 30000000 		.4byte	.LFE1-.Ltext0
 2537 0020 0200     		.2byte	0x2
 2538 0022 7B       		.byte	0x7b
 2539 0023 04       		.sleb128 4
 2540 0024 00000000 		.4byte	0x0
 2541 0028 00000000 		.4byte	0x0
 2542              	.LLST1:
 2543 002c 00000000 		.4byte	.LVL0-.Ltext0
 2544 0030 10000000 		.4byte	.LVL1-.Ltext0
 2545 0034 0100     		.2byte	0x1
 2546 0036 50       		.byte	0x50
 2547 0037 00000000 		.4byte	0x0
 2548 003b 00000000 		.4byte	0x0
 2549              	.LLST2:
 2550 003f 30000000 		.4byte	.LFB2-.Ltext0
 2551 0043 34000000 		.4byte	.LCFI2-.Ltext0
 2552 0047 0200     		.2byte	0x2
 2553 0049 7D       		.byte	0x7d
 2554 004a 00       		.sleb128 0
 2555 004b 34000000 		.4byte	.LCFI2-.Ltext0
 2556 004f 50000000 		.4byte	.LCFI3-.Ltext0
 2557 0053 0200     		.2byte	0x2
 2558 0055 7C       		.byte	0x7c
 2559 0056 00       		.sleb128 0
 2560 0057 50000000 		.4byte	.LCFI3-.Ltext0
ARM GAS  C:\DOCUME~1\ADMINI~1\LOCALS~1\Temp\cc1Hp51A.s 			page 72


 2561 005b E8000000 		.4byte	.LFE2-.Ltext0
 2562 005f 0200     		.2byte	0x2
 2563 0061 7B       		.byte	0x7b
 2564 0062 04       		.sleb128 4
 2565 0063 00000000 		.4byte	0x0
 2566 0067 00000000 		.4byte	0x0
 2567              	.LLST3:
 2568 006b 6C000000 		.4byte	.LVL2-.Ltext0
 2569 006f 7C000000 		.4byte	.LVL3-.Ltext0
 2570 0073 0200     		.2byte	0x2
 2571 0075 30       		.byte	0x30
 2572 0076 9F       		.byte	0x9f
 2573 0077 7C000000 		.4byte	.LVL3-.Ltext0
 2574 007b 84000000 		.4byte	.LVL4-.Ltext0
 2575 007f 0200     		.2byte	0x2
 2576 0081 31       		.byte	0x31
 2577 0082 9F       		.byte	0x9f
 2578 0083 84000000 		.4byte	.LVL4-.Ltext0
 2579 0087 8C000000 		.4byte	.LVL5-.Ltext0
 2580 008b 0200     		.2byte	0x2
 2581 008d 32       		.byte	0x32
 2582 008e 9F       		.byte	0x9f
 2583 008f 8C000000 		.4byte	.LVL5-.Ltext0
 2584 0093 94000000 		.4byte	.LVL6-.Ltext0
 2585 0097 0200     		.2byte	0x2
 2586 0099 33       		.byte	0x33
 2587 009a 9F       		.byte	0x9f
 2588 009b 94000000 		.4byte	.LVL6-.Ltext0
 2589 009f 9C000000 		.4byte	.LVL7-.Ltext0
 2590 00a3 0200     		.2byte	0x2
 2591 00a5 34       		.byte	0x34
 2592 00a6 9F       		.byte	0x9f
 2593 00a7 9C000000 		.4byte	.LVL7-.Ltext0
 2594 00ab A4000000 		.4byte	.LVL8-.Ltext0
 2595 00af 0200     		.2byte	0x2
 2596 00b1 35       		.byte	0x35
 2597 00b2 9F       		.byte	0x9f
 2598 00b3 A4000000 		.4byte	.LVL8-.Ltext0
 2599 00b7 AC000000 		.4byte	.LVL9-.Ltext0
 2600 00bb 0200     		.2byte	0x2
 2601 00bd 36       		.byte	0x36
 2602 00be 9F       		.byte	0x9f
 2603 00bf AC000000 		.4byte	.LVL9-.Ltext0
 2604 00c3 B4000000 		.4byte	.LVL10-.Ltext0
 2605 00c7 0200     		.2byte	0x2
 2606 00c9 37       		.byte	0x37
 2607 00ca 9F       		.byte	0x9f
 2608 00cb B4000000 		.4byte	.LVL10-.Ltext0
 2609 00cf E8000000 		.4byte	.LFE2-.Ltext0
 2610 00d3 0200     		.2byte	0x2
 2611 00d5 38       		.byte	0x38
 2612 00d6 9F       		.byte	0x9f
 2613 00d7 00000000 		.4byte	0x0
 2614 00db 00000000 		.4byte	0x0
 2615              	.LLST4:
 2616 00df 6C000000 		.4byte	.LVL2-.Ltext0
 2617 00e3 7C000000 		.4byte	.LVL3-.Ltext0
ARM GAS  C:\DOCUME~1\ADMINI~1\LOCALS~1\Temp\cc1Hp51A.s 			page 73


 2618 00e7 0600     		.2byte	0x6
 2619 00e9 03       		.byte	0x3
 2620 00ea 00000000 		.4byte	gstrReadyTab
 2621 00ee 9F       		.byte	0x9f
 2622 00ef 7C000000 		.4byte	.LVL3-.Ltext0
 2623 00f3 84000000 		.4byte	.LVL4-.Ltext0
 2624 00f7 0600     		.2byte	0x6
 2625 00f9 03       		.byte	0x3
 2626 00fa 08000000 		.4byte	gstrReadyTab+8
 2627 00fe 9F       		.byte	0x9f
 2628 00ff 84000000 		.4byte	.LVL4-.Ltext0
 2629 0103 8C000000 		.4byte	.LVL5-.Ltext0
 2630 0107 0600     		.2byte	0x6
 2631 0109 03       		.byte	0x3
 2632 010a 10000000 		.4byte	gstrReadyTab+16
 2633 010e 9F       		.byte	0x9f
 2634 010f 8C000000 		.4byte	.LVL5-.Ltext0
 2635 0113 94000000 		.4byte	.LVL6-.Ltext0
 2636 0117 0600     		.2byte	0x6
 2637 0119 03       		.byte	0x3
 2638 011a 18000000 		.4byte	gstrReadyTab+24
 2639 011e 9F       		.byte	0x9f
 2640 011f 94000000 		.4byte	.LVL6-.Ltext0
 2641 0123 9C000000 		.4byte	.LVL7-.Ltext0
 2642 0127 0600     		.2byte	0x6
 2643 0129 03       		.byte	0x3
 2644 012a 20000000 		.4byte	gstrReadyTab+32
 2645 012e 9F       		.byte	0x9f
 2646 012f 9C000000 		.4byte	.LVL7-.Ltext0
 2647 0133 A4000000 		.4byte	.LVL8-.Ltext0
 2648 0137 0600     		.2byte	0x6
 2649 0139 03       		.byte	0x3
 2650 013a 28000000 		.4byte	gstrReadyTab+40
 2651 013e 9F       		.byte	0x9f
 2652 013f A4000000 		.4byte	.LVL8-.Ltext0
 2653 0143 AC000000 		.4byte	.LVL9-.Ltext0
 2654 0147 0600     		.2byte	0x6
 2655 0149 03       		.byte	0x3
 2656 014a 30000000 		.4byte	gstrReadyTab+48
 2657 014e 9F       		.byte	0x9f
 2658 014f AC000000 		.4byte	.LVL9-.Ltext0
 2659 0153 E8000000 		.4byte	.LFE2-.Ltext0
 2660 0157 0600     		.2byte	0x6
 2661 0159 03       		.byte	0x3
 2662 015a 38000000 		.4byte	gstrReadyTab+56
 2663 015e 9F       		.byte	0x9f
 2664 015f 00000000 		.4byte	0x0
 2665 0163 00000000 		.4byte	0x0
 2666              	.LLST5:
 2667 0167 14010000 		.4byte	.LFB5-.Ltext0
 2668 016b 20010000 		.4byte	.LCFI4-.Ltext0
 2669 016f 0200     		.2byte	0x2
 2670 0171 7D       		.byte	0x7d
 2671 0172 00       		.sleb128 0
 2672 0173 20010000 		.4byte	.LCFI4-.Ltext0
 2673 0177 28010000 		.4byte	.LCFI5-.Ltext0
 2674 017b 0200     		.2byte	0x2
ARM GAS  C:\DOCUME~1\ADMINI~1\LOCALS~1\Temp\cc1Hp51A.s 			page 74


 2675 017d 7C       		.byte	0x7c
 2676 017e 00       		.sleb128 0
 2677 017f 28010000 		.4byte	.LCFI5-.Ltext0
 2678 0183 48010000 		.4byte	.LFE5-.Ltext0
 2679 0187 0200     		.2byte	0x2
 2680 0189 7B       		.byte	0x7b
 2681 018a 04       		.sleb128 4
 2682 018b 00000000 		.4byte	0x0
 2683 018f 00000000 		.4byte	0x0
 2684              	.LLST6:
 2685 0193 14010000 		.4byte	.LVL13-.Ltext0
 2686 0197 33010000 		.4byte	.LVL14-1-.Ltext0
 2687 019b 0100     		.2byte	0x1
 2688 019d 50       		.byte	0x50
 2689 019e 00000000 		.4byte	0x0
 2690 01a2 00000000 		.4byte	0x0
 2691              	.LLST7:
 2692 01a6 48010000 		.4byte	.LFB0-.Ltext0
 2693 01aa 4C010000 		.4byte	.LCFI6-.Ltext0
 2694 01ae 0200     		.2byte	0x2
 2695 01b0 7D       		.byte	0x7d
 2696 01b1 00       		.sleb128 0
 2697 01b2 4C010000 		.4byte	.LCFI6-.Ltext0
 2698 01b6 54010000 		.4byte	.LCFI7-.Ltext0
 2699 01ba 0200     		.2byte	0x2
 2700 01bc 7C       		.byte	0x7c
 2701 01bd 00       		.sleb128 0
 2702 01be 54010000 		.4byte	.LCFI7-.Ltext0
 2703 01c2 E4010000 		.4byte	.LFE0-.Ltext0
 2704 01c6 0200     		.2byte	0x2
 2705 01c8 7B       		.byte	0x7b
 2706 01c9 04       		.sleb128 4
 2707 01ca 00000000 		.4byte	0x0
 2708 01ce 00000000 		.4byte	0x0
 2709              	.LLST8:
 2710 01d2 E4010000 		.4byte	.LVL15-.Ltext0
 2711 01d6 F0010000 		.4byte	.LVL16-.Ltext0
 2712 01da 0200     		.2byte	0x2
 2713 01dc 30       		.byte	0x30
 2714 01dd 9F       		.byte	0x9f
 2715 01de F0010000 		.4byte	.LVL16-.Ltext0
 2716 01e2 F8010000 		.4byte	.LVL17-.Ltext0
 2717 01e6 0200     		.2byte	0x2
 2718 01e8 31       		.byte	0x31
 2719 01e9 9F       		.byte	0x9f
 2720 01ea F8010000 		.4byte	.LVL17-.Ltext0
 2721 01ee 00020000 		.4byte	.LVL18-.Ltext0
 2722 01f2 0200     		.2byte	0x2
 2723 01f4 32       		.byte	0x32
 2724 01f5 9F       		.byte	0x9f
 2725 01f6 00020000 		.4byte	.LVL18-.Ltext0
 2726 01fa 08020000 		.4byte	.LVL19-.Ltext0
 2727 01fe 0200     		.2byte	0x2
 2728 0200 33       		.byte	0x33
 2729 0201 9F       		.byte	0x9f
 2730 0202 08020000 		.4byte	.LVL19-.Ltext0
 2731 0206 10020000 		.4byte	.LVL20-.Ltext0
ARM GAS  C:\DOCUME~1\ADMINI~1\LOCALS~1\Temp\cc1Hp51A.s 			page 75


 2732 020a 0200     		.2byte	0x2
 2733 020c 34       		.byte	0x34
 2734 020d 9F       		.byte	0x9f
 2735 020e 10020000 		.4byte	.LVL20-.Ltext0
 2736 0212 18020000 		.4byte	.LVL21-.Ltext0
 2737 0216 0200     		.2byte	0x2
 2738 0218 35       		.byte	0x35
 2739 0219 9F       		.byte	0x9f
 2740 021a 18020000 		.4byte	.LVL21-.Ltext0
 2741 021e 20020000 		.4byte	.LVL22-.Ltext0
 2742 0222 0200     		.2byte	0x2
 2743 0224 36       		.byte	0x36
 2744 0225 9F       		.byte	0x9f
 2745 0226 20020000 		.4byte	.LVL22-.Ltext0
 2746 022a 28020000 		.4byte	.LVL23-.Ltext0
 2747 022e 0200     		.2byte	0x2
 2748 0230 37       		.byte	0x37
 2749 0231 9F       		.byte	0x9f
 2750 0232 28020000 		.4byte	.LVL23-.Ltext0
 2751 0236 30020000 		.4byte	.LFE6-.Ltext0
 2752 023a 0200     		.2byte	0x2
 2753 023c 38       		.byte	0x38
 2754 023d 9F       		.byte	0x9f
 2755 023e 00000000 		.4byte	0x0
 2756 0242 00000000 		.4byte	0x0
 2757              	.LLST9:
 2758 0246 E4010000 		.4byte	.LVL15-.Ltext0
 2759 024a F0010000 		.4byte	.LVL16-.Ltext0
 2760 024e 0100     		.2byte	0x1
 2761 0250 50       		.byte	0x50
 2762 0251 F0010000 		.4byte	.LVL16-.Ltext0
 2763 0255 F8010000 		.4byte	.LVL17-.Ltext0
 2764 0259 0300     		.2byte	0x3
 2765 025b 70       		.byte	0x70
 2766 025c 08       		.sleb128 8
 2767 025d 9F       		.byte	0x9f
 2768 025e F8010000 		.4byte	.LVL17-.Ltext0
 2769 0262 00020000 		.4byte	.LVL18-.Ltext0
 2770 0266 0300     		.2byte	0x3
 2771 0268 70       		.byte	0x70
 2772 0269 10       		.sleb128 16
 2773 026a 9F       		.byte	0x9f
 2774 026b 00020000 		.4byte	.LVL18-.Ltext0
 2775 026f 08020000 		.4byte	.LVL19-.Ltext0
 2776 0273 0300     		.2byte	0x3
 2777 0275 70       		.byte	0x70
 2778 0276 18       		.sleb128 24
 2779 0277 9F       		.byte	0x9f
 2780 0278 08020000 		.4byte	.LVL19-.Ltext0
 2781 027c 10020000 		.4byte	.LVL20-.Ltext0
 2782 0280 0300     		.2byte	0x3
 2783 0282 70       		.byte	0x70
 2784 0283 20       		.sleb128 32
 2785 0284 9F       		.byte	0x9f
 2786 0285 10020000 		.4byte	.LVL20-.Ltext0
 2787 0289 18020000 		.4byte	.LVL21-.Ltext0
 2788 028d 0300     		.2byte	0x3
ARM GAS  C:\DOCUME~1\ADMINI~1\LOCALS~1\Temp\cc1Hp51A.s 			page 76


 2789 028f 70       		.byte	0x70
 2790 0290 28       		.sleb128 40
 2791 0291 9F       		.byte	0x9f
 2792 0292 18020000 		.4byte	.LVL21-.Ltext0
 2793 0296 20020000 		.4byte	.LVL22-.Ltext0
 2794 029a 0300     		.2byte	0x3
 2795 029c 70       		.byte	0x70
 2796 029d 30       		.sleb128 48
 2797 029e 9F       		.byte	0x9f
 2798 029f 20020000 		.4byte	.LVL22-.Ltext0
 2799 02a3 30020000 		.4byte	.LFE6-.Ltext0
 2800 02a7 0300     		.2byte	0x3
 2801 02a9 70       		.byte	0x70
 2802 02aa 38       		.sleb128 56
 2803 02ab 9F       		.byte	0x9f
 2804 02ac 00000000 		.4byte	0x0
 2805 02b0 00000000 		.4byte	0x0
 2806              	.LLST10:
 2807 02b4 30020000 		.4byte	.LVL24-.Ltext0
 2808 02b8 68020000 		.4byte	.LVL28-.Ltext0
 2809 02bc 0100     		.2byte	0x1
 2810 02be 50       		.byte	0x50
 2811 02bf 00000000 		.4byte	0x0
 2812 02c3 00000000 		.4byte	0x0
 2813              	.LLST11:
 2814 02c7 30020000 		.4byte	.LVL24-.Ltext0
 2815 02cb 64020000 		.4byte	.LVL27-.Ltext0
 2816 02cf 0100     		.2byte	0x1
 2817 02d1 51       		.byte	0x51
 2818 02d2 00000000 		.4byte	0x0
 2819 02d6 00000000 		.4byte	0x0
 2820              	.LLST12:
 2821 02da 30020000 		.4byte	.LVL24-.Ltext0
 2822 02de 6C020000 		.4byte	.LVL29-.Ltext0
 2823 02e2 0100     		.2byte	0x1
 2824 02e4 53       		.byte	0x53
 2825 02e5 00000000 		.4byte	0x0
 2826 02e9 00000000 		.4byte	0x0
 2827              	.LLST13:
 2828 02ed 38020000 		.4byte	.LVL25-.Ltext0
 2829 02f1 64020000 		.4byte	.LVL27-.Ltext0
 2830 02f5 0100     		.2byte	0x1
 2831 02f7 51       		.byte	0x51
 2832 02f8 00000000 		.4byte	0x0
 2833 02fc 00000000 		.4byte	0x0
 2834              	.LLST14:
 2835 0300 30020000 		.4byte	.LVL24-.Ltext0
 2836 0304 68020000 		.4byte	.LVL28-.Ltext0
 2837 0308 0100     		.2byte	0x1
 2838 030a 50       		.byte	0x50
 2839 030b 00000000 		.4byte	0x0
 2840 030f 00000000 		.4byte	0x0
 2841              	.LLST15:
 2842 0313 5C020000 		.4byte	.LVL26-.Ltext0
 2843 0317 6C020000 		.4byte	.LVL29-.Ltext0
 2844 031b 0100     		.2byte	0x1
 2845 031d 53       		.byte	0x53
ARM GAS  C:\DOCUME~1\ADMINI~1\LOCALS~1\Temp\cc1Hp51A.s 			page 77


 2846 031e 00000000 		.4byte	0x0
 2847 0322 00000000 		.4byte	0x0
 2848              	.LLST16:
 2849 0326 74020000 		.4byte	.LFB8-.Ltext0
 2850 032a 84020000 		.4byte	.LCFI8-.Ltext0
 2851 032e 0200     		.2byte	0x2
 2852 0330 7D       		.byte	0x7d
 2853 0331 00       		.sleb128 0
 2854 0332 84020000 		.4byte	.LCFI8-.Ltext0
 2855 0336 58030000 		.4byte	.LFE8-.Ltext0
 2856 033a 0200     		.2byte	0x2
 2857 033c 7D       		.byte	0x7d
 2858 033d 04       		.sleb128 4
 2859 033e 00000000 		.4byte	0x0
 2860 0342 00000000 		.4byte	0x0
 2861              	.LLST17:
 2862 0346 9C020000 		.4byte	.LVL33-.Ltext0
 2863 034a B4020000 		.4byte	.LVL35-.Ltext0
 2864 034e 0100     		.2byte	0x1
 2865 0350 53       		.byte	0x53
 2866 0351 C4020000 		.4byte	.LVL36-.Ltext0
 2867 0355 E4020000 		.4byte	.LVL39-.Ltext0
 2868 0359 0100     		.2byte	0x1
 2869 035b 53       		.byte	0x53
 2870 035c 0C030000 		.4byte	.LVL42-.Ltext0
 2871 0360 3C030000 		.4byte	.LVL44-.Ltext0
 2872 0364 0100     		.2byte	0x1
 2873 0366 53       		.byte	0x53
 2874 0367 00000000 		.4byte	0x0
 2875 036b 00000000 		.4byte	0x0
 2876              	.LLST18:
 2877 036f 88020000 		.4byte	.LVL31-.Ltext0
 2878 0373 9C020000 		.4byte	.LVL33-.Ltext0
 2879 0377 0100     		.2byte	0x1
 2880 0379 50       		.byte	0x50
 2881 037a 9C020000 		.4byte	.LVL33-.Ltext0
 2882 037e B4020000 		.4byte	.LVL35-.Ltext0
 2883 0382 0100     		.2byte	0x1
 2884 0384 53       		.byte	0x53
 2885 0385 C4020000 		.4byte	.LVL36-.Ltext0
 2886 0389 E4020000 		.4byte	.LVL39-.Ltext0
 2887 038d 0100     		.2byte	0x1
 2888 038f 53       		.byte	0x53
 2889 0390 0C030000 		.4byte	.LVL42-.Ltext0
 2890 0394 3C030000 		.4byte	.LVL44-.Ltext0
 2891 0398 0100     		.2byte	0x1
 2892 039a 53       		.byte	0x53
 2893 039b 00000000 		.4byte	0x0
 2894 039f 00000000 		.4byte	0x0
 2895              	.LLST19:
 2896 03a3 94020000 		.4byte	.LVL32-.Ltext0
 2897 03a7 04030000 		.4byte	.LVL41-.Ltext0
 2898 03ab 0500     		.2byte	0x5
 2899 03ad 70       		.byte	0x70
 2900 03ae 08       		.sleb128 8
 2901 03af 06       		.byte	0x6
 2902 03b0 23       		.byte	0x23
ARM GAS  C:\DOCUME~1\ADMINI~1\LOCALS~1\Temp\cc1Hp51A.s 			page 78


 2903 03b1 74       		.uleb128 0x74
 2904 03b2 0C030000 		.4byte	.LVL42-.Ltext0
 2905 03b6 3C030000 		.4byte	.LVL44-.Ltext0
 2906 03ba 0100     		.2byte	0x1
 2907 03bc 5C       		.byte	0x5c
 2908 03bd 00000000 		.4byte	0x0
 2909 03c1 00000000 		.4byte	0x0
 2910              	.LLST20:
 2911 03c5 9C020000 		.4byte	.LVL33-.Ltext0
 2912 03c9 C4020000 		.4byte	.LVL36-.Ltext0
 2913 03cd 0100     		.2byte	0x1
 2914 03cf 51       		.byte	0x51
 2915 03d0 CC020000 		.4byte	.LVL37-.Ltext0
 2916 03d4 E4020000 		.4byte	.LVL39-.Ltext0
 2917 03d8 0500     		.2byte	0x5
 2918 03da 73       		.byte	0x73
 2919 03db 08       		.sleb128 8
 2920 03dc 06       		.byte	0x6
 2921 03dd 23       		.byte	0x23
 2922 03de 74       		.uleb128 0x74
 2923 03df E4020000 		.4byte	.LVL39-.Ltext0
 2924 03e3 04030000 		.4byte	.LVL41-.Ltext0
 2925 03e7 0100     		.2byte	0x1
 2926 03e9 51       		.byte	0x51
 2927 03ea 0C030000 		.4byte	.LVL42-.Ltext0
 2928 03ee 3C030000 		.4byte	.LVL44-.Ltext0
 2929 03f2 0100     		.2byte	0x1
 2930 03f4 51       		.byte	0x51
 2931 03f5 00000000 		.4byte	0x0
 2932 03f9 00000000 		.4byte	0x0
 2933              	.LLST21:
 2934 03fd B0020000 		.4byte	.LVL34-.Ltext0
 2935 0401 B4020000 		.4byte	.LVL35-.Ltext0
 2936 0405 0100     		.2byte	0x1
 2937 0407 53       		.byte	0x53
 2938 0408 E0020000 		.4byte	.LVL38-.Ltext0
 2939 040c E4020000 		.4byte	.LVL39-.Ltext0
 2940 0410 0100     		.2byte	0x1
 2941 0412 53       		.byte	0x53
 2942 0413 00000000 		.4byte	0x0
 2943 0417 00000000 		.4byte	0x0
 2944              	.LLST22:
 2945 041b B0020000 		.4byte	.LVL34-.Ltext0
 2946 041f C4020000 		.4byte	.LVL36-.Ltext0
 2947 0423 0600     		.2byte	0x6
 2948 0425 03       		.byte	0x3
 2949 0426 00000000 		.4byte	gstrDelayTab
 2950 042a 9F       		.byte	0x9f
 2951 042b E0020000 		.4byte	.LVL38-.Ltext0
 2952 042f 04030000 		.4byte	.LVL41-.Ltext0
 2953 0433 0600     		.2byte	0x6
 2954 0435 03       		.byte	0x3
 2955 0436 00000000 		.4byte	gstrDelayTab
 2956 043a 9F       		.byte	0x9f
 2957 043b 00000000 		.4byte	0x0
 2958 043f 00000000 		.4byte	0x0
 2959              	.LLST23:
ARM GAS  C:\DOCUME~1\ADMINI~1\LOCALS~1\Temp\cc1Hp51A.s 			page 79


 2960 0443 EC020000 		.4byte	.LVL40-.Ltext0
 2961 0447 04030000 		.4byte	.LVL41-.Ltext0
 2962 044b 0100     		.2byte	0x1
 2963 044d 50       		.byte	0x50
 2964 044e 00000000 		.4byte	0x0
 2965 0452 00000000 		.4byte	0x0
 2966              	.LLST24:
 2967 0456 EC020000 		.4byte	.LVL40-.Ltext0
 2968 045a 04030000 		.4byte	.LVL41-.Ltext0
 2969 045e 0600     		.2byte	0x6
 2970 0460 03       		.byte	0x3
 2971 0461 00000000 		.4byte	gstrDelayTab
 2972 0465 9F       		.byte	0x9f
 2973 0466 00000000 		.4byte	0x0
 2974 046a 00000000 		.4byte	0x0
 2975              	.LLST25:
 2976 046e 0C030000 		.4byte	.LVL42-.Ltext0
 2977 0472 3C030000 		.4byte	.LVL44-.Ltext0
 2978 0476 0100     		.2byte	0x1
 2979 0478 50       		.byte	0x50
 2980 0479 00000000 		.4byte	0x0
 2981 047d 00000000 		.4byte	0x0
 2982              	.LLST26:
 2983 0481 0C030000 		.4byte	.LVL42-.Ltext0
 2984 0485 3C030000 		.4byte	.LVL44-.Ltext0
 2985 0489 0100     		.2byte	0x1
 2986 048b 53       		.byte	0x53
 2987 048c 00000000 		.4byte	0x0
 2988 0490 00000000 		.4byte	0x0
 2989              	.LLST27:
 2990 0494 0C030000 		.4byte	.LVL42-.Ltext0
 2991 0498 3C030000 		.4byte	.LVL44-.Ltext0
 2992 049c 0600     		.2byte	0x6
 2993 049e 03       		.byte	0x3
 2994 049f 00000000 		.4byte	gstrDelayTab
 2995 04a3 9F       		.byte	0x9f
 2996 04a4 00000000 		.4byte	0x0
 2997 04a8 00000000 		.4byte	0x0
 2998              	.LLST28:
 2999 04ac 34030000 		.4byte	.LVL43-.Ltext0
 3000 04b0 3C030000 		.4byte	.LVL44-.Ltext0
 3001 04b4 0100     		.2byte	0x1
 3002 04b6 50       		.byte	0x50
 3003 04b7 00000000 		.4byte	0x0
 3004 04bb 00000000 		.4byte	0x0
 3005              	.LLST29:
 3006 04bf 34030000 		.4byte	.LVL43-.Ltext0
 3007 04c3 3C030000 		.4byte	.LVL44-.Ltext0
 3008 04c7 0600     		.2byte	0x6
 3009 04c9 03       		.byte	0x3
 3010 04ca 00000000 		.4byte	gstrDelayTab
 3011 04ce 9F       		.byte	0x9f
 3012 04cf 00000000 		.4byte	0x0
 3013 04d3 00000000 		.4byte	0x0
 3014              	.LLST30:
 3015 04d7 58030000 		.4byte	.LFB9-.Ltext0
 3016 04db 64030000 		.4byte	.LCFI9-.Ltext0
ARM GAS  C:\DOCUME~1\ADMINI~1\LOCALS~1\Temp\cc1Hp51A.s 			page 80


 3017 04df 0200     		.2byte	0x2
 3018 04e1 7D       		.byte	0x7d
 3019 04e2 00       		.sleb128 0
 3020 04e3 64030000 		.4byte	.LCFI9-.Ltext0
 3021 04e7 B8030000 		.4byte	.LFE9-.Ltext0
 3022 04eb 0200     		.2byte	0x2
 3023 04ed 7D       		.byte	0x7d
 3024 04ee 04       		.sleb128 4
 3025 04ef 00000000 		.4byte	0x0
 3026 04f3 00000000 		.4byte	0x0
 3027              	.LLST31:
 3028 04f7 58030000 		.4byte	.LVL45-.Ltext0
 3029 04fb 68030000 		.4byte	.LVL47-.Ltext0
 3030 04ff 0100     		.2byte	0x1
 3031 0501 50       		.byte	0x50
 3032 0502 98030000 		.4byte	.LVL49-.Ltext0
 3033 0506 A8030000 		.4byte	.LVL51-.Ltext0
 3034 050a 0100     		.2byte	0x1
 3035 050c 50       		.byte	0x50
 3036 050d 00000000 		.4byte	0x0
 3037 0511 00000000 		.4byte	0x0
 3038              	.LLST32:
 3039 0515 58030000 		.4byte	.LVL45-.Ltext0
 3040 0519 8C030000 		.4byte	.LVL48-.Ltext0
 3041 051d 0100     		.2byte	0x1
 3042 051f 52       		.byte	0x52
 3043 0520 98030000 		.4byte	.LVL49-.Ltext0
 3044 0524 B0030000 		.4byte	.LVL52-.Ltext0
 3045 0528 0100     		.2byte	0x1
 3046 052a 52       		.byte	0x52
 3047 052b 00000000 		.4byte	0x0
 3048 052f 00000000 		.4byte	0x0
 3049              	.LLST33:
 3050 0533 58030000 		.4byte	.LVL45-.Ltext0
 3051 0537 8C030000 		.4byte	.LVL48-.Ltext0
 3052 053b 0100     		.2byte	0x1
 3053 053d 50       		.byte	0x50
 3054 053e 98030000 		.4byte	.LVL49-.Ltext0
 3055 0542 A8030000 		.4byte	.LVL51-.Ltext0
 3056 0546 0100     		.2byte	0x1
 3057 0548 50       		.byte	0x50
 3058 0549 00000000 		.4byte	0x0
 3059 054d 00000000 		.4byte	0x0
 3060              	.LLST34:
 3061 0551 5C030000 		.4byte	.LVL46-.Ltext0
 3062 0555 8C030000 		.4byte	.LVL48-.Ltext0
 3063 0559 0200     		.2byte	0x2
 3064 055b 70       		.byte	0x70
 3065 055c 04       		.sleb128 4
 3066 055d 8C030000 		.4byte	.LVL48-.Ltext0
 3067 0561 B8030000 		.4byte	.LFE9-.Ltext0
 3068 0565 0100     		.2byte	0x1
 3069 0567 53       		.byte	0x53
 3070 0568 00000000 		.4byte	0x0
 3071 056c 00000000 		.4byte	0x0
 3072              	.LLST35:
 3073 0570 A4030000 		.4byte	.LVL50-.Ltext0
ARM GAS  C:\DOCUME~1\ADMINI~1\LOCALS~1\Temp\cc1Hp51A.s 			page 81


 3074 0574 B0030000 		.4byte	.LVL52-.Ltext0
 3075 0578 0100     		.2byte	0x1
 3076 057a 52       		.byte	0x52
 3077 057b 00000000 		.4byte	0x0
 3078 057f 00000000 		.4byte	0x0
 3079              	.LLST36:
 3080 0583 B8030000 		.4byte	.LFB10-.Ltext0
 3081 0587 C8030000 		.4byte	.LCFI10-.Ltext0
 3082 058b 0200     		.2byte	0x2
 3083 058d 7D       		.byte	0x7d
 3084 058e 00       		.sleb128 0
 3085 058f C8030000 		.4byte	.LCFI10-.Ltext0
 3086 0593 54040000 		.4byte	.LFE10-.Ltext0
 3087 0597 0200     		.2byte	0x2
 3088 0599 7D       		.byte	0x7d
 3089 059a 04       		.sleb128 4
 3090 059b 00000000 		.4byte	0x0
 3091 059f 00000000 		.4byte	0x0
 3092              	.LLST37:
 3093 05a3 B8030000 		.4byte	.LVL53-.Ltext0
 3094 05a7 00040000 		.4byte	.LVL55-.Ltext0
 3095 05ab 0100     		.2byte	0x1
 3096 05ad 50       		.byte	0x50
 3097 05ae 08040000 		.4byte	.LVL56-.Ltext0
 3098 05b2 4C040000 		.4byte	.LVL63-.Ltext0
 3099 05b6 0100     		.2byte	0x1
 3100 05b8 50       		.byte	0x50
 3101 05b9 00000000 		.4byte	0x0
 3102 05bd 00000000 		.4byte	0x0
 3103              	.LLST38:
 3104 05c1 E0030000 		.4byte	.LVL54-.Ltext0
 3105 05c5 00040000 		.4byte	.LVL55-.Ltext0
 3106 05c9 0300     		.2byte	0x3
 3107 05cb 71       		.byte	0x71
 3108 05cc 38       		.sleb128 56
 3109 05cd 9F       		.byte	0x9f
 3110 05ce 10040000 		.4byte	.LVL58-.Ltext0
 3111 05d2 3C040000 		.4byte	.LVL61-.Ltext0
 3112 05d6 0100     		.2byte	0x1
 3113 05d8 52       		.byte	0x52
 3114 05d9 00000000 		.4byte	0x0
 3115 05dd 00000000 		.4byte	0x0
 3116              	.LLST39:
 3117 05e1 E0030000 		.4byte	.LVL54-.Ltext0
 3118 05e5 00040000 		.4byte	.LVL55-.Ltext0
 3119 05e9 0100     		.2byte	0x1
 3120 05eb 53       		.byte	0x53
 3121 05ec 20040000 		.4byte	.LVL59-.Ltext0
 3122 05f0 48040000 		.4byte	.LVL62-.Ltext0
 3123 05f4 0100     		.2byte	0x1
 3124 05f6 5C       		.byte	0x5c
 3125 05f7 00000000 		.4byte	0x0
 3126 05fb 00000000 		.4byte	0x0
 3127              	.LLST40:
 3128 05ff E0030000 		.4byte	.LVL54-.Ltext0
 3129 0603 00040000 		.4byte	.LVL55-.Ltext0
 3130 0607 0100     		.2byte	0x1
ARM GAS  C:\DOCUME~1\ADMINI~1\LOCALS~1\Temp\cc1Hp51A.s 			page 82


 3131 0609 53       		.byte	0x53
 3132 060a 00000000 		.4byte	0x0
 3133 060e 00000000 		.4byte	0x0
 3134              	.LLST41:
 3135 0612 E0030000 		.4byte	.LVL54-.Ltext0
 3136 0616 00040000 		.4byte	.LVL55-.Ltext0
 3137 061a 0300     		.2byte	0x3
 3138 061c 71       		.byte	0x71
 3139 061d 38       		.sleb128 56
 3140 061e 9F       		.byte	0x9f
 3141 061f 00000000 		.4byte	0x0
 3142 0623 00000000 		.4byte	0x0
 3143              	.LLST42:
 3144 0627 20040000 		.4byte	.LVL59-.Ltext0
 3145 062b 48040000 		.4byte	.LVL62-.Ltext0
 3146 062f 0100     		.2byte	0x1
 3147 0631 5C       		.byte	0x5c
 3148 0632 00000000 		.4byte	0x0
 3149 0636 00000000 		.4byte	0x0
 3150              	.LLST43:
 3151 063a 20040000 		.4byte	.LVL59-.Ltext0
 3152 063e 3C040000 		.4byte	.LVL61-.Ltext0
 3153 0642 0100     		.2byte	0x1
 3154 0644 52       		.byte	0x52
 3155 0645 00000000 		.4byte	0x0
 3156 0649 00000000 		.4byte	0x0
 3157              	.LLST44:
 3158 064d 20040000 		.4byte	.LVL59-.Ltext0
 3159 0651 48040000 		.4byte	.LVL62-.Ltext0
 3160 0655 0100     		.2byte	0x1
 3161 0657 5C       		.byte	0x5c
 3162 0658 00000000 		.4byte	0x0
 3163 065c 00000000 		.4byte	0x0
 3164              	.LLST45:
 3165 0660 20040000 		.4byte	.LVL59-.Ltext0
 3166 0664 3C040000 		.4byte	.LVL61-.Ltext0
 3167 0668 0100     		.2byte	0x1
 3168 066a 52       		.byte	0x52
 3169 066b 00000000 		.4byte	0x0
 3170 066f 00000000 		.4byte	0x0
 3171              	.LLST46:
 3172 0673 54040000 		.4byte	.LFB11-.Ltext0
 3173 0677 68040000 		.4byte	.LCFI11-.Ltext0
 3174 067b 0200     		.2byte	0x2
 3175 067d 7D       		.byte	0x7d
 3176 067e 00       		.sleb128 0
 3177 067f 68040000 		.4byte	.LCFI11-.Ltext0
 3178 0683 04050000 		.4byte	.LFE11-.Ltext0
 3179 0687 0200     		.2byte	0x2
 3180 0689 7D       		.byte	0x7d
 3181 068a 04       		.sleb128 4
 3182 068b 00000000 		.4byte	0x0
 3183 068f 00000000 		.4byte	0x0
 3184              	.LLST47:
 3185 0693 54040000 		.4byte	.LVL64-.Ltext0
 3186 0697 6C040000 		.4byte	.LVL66-.Ltext0
 3187 069b 0100     		.2byte	0x1
ARM GAS  C:\DOCUME~1\ADMINI~1\LOCALS~1\Temp\cc1Hp51A.s 			page 83


 3188 069d 50       		.byte	0x50
 3189 069e A8040000 		.4byte	.LVL70-.Ltext0
 3190 06a2 B4040000 		.4byte	.LVL72-.Ltext0
 3191 06a6 0100     		.2byte	0x1
 3192 06a8 50       		.byte	0x50
 3193 06a9 00000000 		.4byte	0x0
 3194 06ad 00000000 		.4byte	0x0
 3195              	.LLST48:
 3196 06b1 58040000 		.4byte	.LVL65-.Ltext0
 3197 06b5 70040000 		.4byte	.LVL67-.Ltext0
 3198 06b9 0300     		.2byte	0x3
 3199 06bb 70       		.byte	0x70
 3200 06bc DC00     		.sleb128 92
 3201 06be 70040000 		.4byte	.LVL67-.Ltext0
 3202 06c2 94040000 		.4byte	.LVL68-.Ltext0
 3203 06c6 0100     		.2byte	0x1
 3204 06c8 53       		.byte	0x53
 3205 06c9 A8040000 		.4byte	.LVL70-.Ltext0
 3206 06cd 04050000 		.4byte	.LFE11-.Ltext0
 3207 06d1 0100     		.2byte	0x1
 3208 06d3 53       		.byte	0x53
 3209 06d4 00000000 		.4byte	0x0
 3210 06d8 00000000 		.4byte	0x0
 3211              	.LLST49:
 3212 06dc 6C040000 		.4byte	.LVL66-.Ltext0
 3213 06e0 70040000 		.4byte	.LVL67-.Ltext0
 3214 06e4 0700     		.2byte	0x7
 3215 06e6 70       		.byte	0x70
 3216 06e7 DC00     		.sleb128 92
 3217 06e9 06       		.byte	0x6
 3218 06ea 23       		.byte	0x23
 3219 06eb 38       		.uleb128 0x38
 3220 06ec 9F       		.byte	0x9f
 3221 06ed 70040000 		.4byte	.LVL67-.Ltext0
 3222 06f1 94040000 		.4byte	.LVL68-.Ltext0
 3223 06f5 0300     		.2byte	0x3
 3224 06f7 73       		.byte	0x73
 3225 06f8 38       		.sleb128 56
 3226 06f9 9F       		.byte	0x9f
 3227 06fa AC040000 		.4byte	.LVL71-.Ltext0
 3228 06fe 04050000 		.4byte	.LFE11-.Ltext0
 3229 0702 0800     		.2byte	0x8
 3230 0704 71       		.byte	0x71
 3231 0705 00       		.sleb128 0
 3232 0706 33       		.byte	0x33
 3233 0707 24       		.byte	0x24
 3234 0708 73       		.byte	0x73
 3235 0709 00       		.sleb128 0
 3236 070a 22       		.byte	0x22
 3237 070b 9F       		.byte	0x9f
 3238 070c 00000000 		.4byte	0x0
 3239 0710 00000000 		.4byte	0x0
 3240              	.LLST50:
 3241 0714 6C040000 		.4byte	.LVL66-.Ltext0
 3242 0718 70040000 		.4byte	.LVL67-.Ltext0
 3243 071c 0700     		.2byte	0x7
 3244 071e 70       		.byte	0x70
ARM GAS  C:\DOCUME~1\ADMINI~1\LOCALS~1\Temp\cc1Hp51A.s 			page 84


 3245 071f DC00     		.sleb128 92
 3246 0721 06       		.byte	0x6
 3247 0722 23       		.byte	0x23
 3248 0723 38       		.uleb128 0x38
 3249 0724 9F       		.byte	0x9f
 3250 0725 70040000 		.4byte	.LVL67-.Ltext0
 3251 0729 94040000 		.4byte	.LVL68-.Ltext0
 3252 072d 0300     		.2byte	0x3
 3253 072f 73       		.byte	0x73
 3254 0730 38       		.sleb128 56
 3255 0731 9F       		.byte	0x9f
 3256 0732 00000000 		.4byte	0x0
 3257 0736 00000000 		.4byte	0x0
 3258              	.LLST51:
 3259 073a 70040000 		.4byte	.LVL67-.Ltext0
 3260 073e 94040000 		.4byte	.LVL68-.Ltext0
 3261 0742 0200     		.2byte	0x2
 3262 0744 73       		.byte	0x73
 3263 0745 3C       		.sleb128 60
 3264 0746 94040000 		.4byte	.LVL68-.Ltext0
 3265 074a A0040000 		.4byte	.LVL69-.Ltext0
 3266 074e 0100     		.2byte	0x1
 3267 0750 50       		.byte	0x50
 3268 0751 00000000 		.4byte	0x0
 3269 0755 00000000 		.4byte	0x0
 3270              	.LLST52:
 3271 0759 E0040000 		.4byte	.LVL74-.Ltext0
 3272 075d F4040000 		.4byte	.LVL75-.Ltext0
 3273 0761 0100     		.2byte	0x1
 3274 0763 51       		.byte	0x51
 3275 0764 00000000 		.4byte	0x0
 3276 0768 00000000 		.4byte	0x0
 3277              	.LLST53:
 3278 076c E0040000 		.4byte	.LVL74-.Ltext0
 3279 0770 F4040000 		.4byte	.LVL75-.Ltext0
 3280 0774 0400     		.2byte	0x4
 3281 0776 73       		.byte	0x73
 3282 0777 C000     		.sleb128 64
 3283 0779 9F       		.byte	0x9f
 3284 077a 00000000 		.4byte	0x0
 3285 077e 00000000 		.4byte	0x0
 3286              	.LLST54:
 3287 0782 04050000 		.4byte	.LVL77-.Ltext0
 3288 0786 24050000 		.4byte	.LVL80-.Ltext0
 3289 078a 0100     		.2byte	0x1
 3290 078c 50       		.byte	0x50
 3291 078d 00000000 		.4byte	0x0
 3292 0791 00000000 		.4byte	0x0
 3293              	.LLST55:
 3294 0795 2C050000 		.4byte	.LVL82-.Ltext0
 3295 0799 30050000 		.4byte	.LVL83-.Ltext0
 3296 079d 0100     		.2byte	0x1
 3297 079f 50       		.byte	0x50
 3298 07a0 00000000 		.4byte	0x0
 3299 07a4 00000000 		.4byte	0x0
 3300              	.LLST56:
 3301 07a8 10050000 		.4byte	.LVL78-.Ltext0
ARM GAS  C:\DOCUME~1\ADMINI~1\LOCALS~1\Temp\cc1Hp51A.s 			page 85


 3302 07ac 24050000 		.4byte	.LVL80-.Ltext0
 3303 07b0 0400     		.2byte	0x4
 3304 07b2 70       		.byte	0x70
 3305 07b3 C000     		.sleb128 64
 3306 07b5 9F       		.byte	0x9f
 3307 07b6 00000000 		.4byte	0x0
 3308 07ba 00000000 		.4byte	0x0
 3309              	.LLST57:
 3310 07be 20050000 		.4byte	.LVL79-.Ltext0
 3311 07c2 24050000 		.4byte	.LVL80-.Ltext0
 3312 07c6 0800     		.2byte	0x8
 3313 07c8 73       		.byte	0x73
 3314 07c9 00       		.sleb128 0
 3315 07ca 33       		.byte	0x33
 3316 07cb 24       		.byte	0x24
 3317 07cc 70       		.byte	0x70
 3318 07cd 00       		.sleb128 0
 3319 07ce 22       		.byte	0x22
 3320 07cf 9F       		.byte	0x9f
 3321 07d0 24050000 		.4byte	.LVL80-.Ltext0
 3322 07d4 28050000 		.4byte	.LVL81-.Ltext0
 3323 07d8 0100     		.2byte	0x1
 3324 07da 50       		.byte	0x50
 3325 07db 00000000 		.4byte	0x0
 3326 07df 00000000 		.4byte	0x0
 3327              	.LLST58:
 3328 07e3 38050000 		.4byte	.LFB14-.Ltext0
 3329 07e7 3C050000 		.4byte	.LCFI12-.Ltext0
 3330 07eb 0200     		.2byte	0x2
 3331 07ed 7D       		.byte	0x7d
 3332 07ee 00       		.sleb128 0
 3333 07ef 3C050000 		.4byte	.LCFI12-.Ltext0
 3334 07f3 48050000 		.4byte	.LCFI13-.Ltext0
 3335 07f7 0200     		.2byte	0x2
 3336 07f9 7C       		.byte	0x7c
 3337 07fa 00       		.sleb128 0
 3338 07fb 48050000 		.4byte	.LCFI13-.Ltext0
 3339 07ff D4050000 		.4byte	.LFE14-.Ltext0
 3340 0803 0200     		.2byte	0x2
 3341 0805 7B       		.byte	0x7b
 3342 0806 04       		.sleb128 4
 3343 0807 00000000 		.4byte	0x0
 3344 080b 00000000 		.4byte	0x0
 3345              	.LLST59:
 3346 080f 6C050000 		.4byte	.LVL85-.Ltext0
 3347 0813 78050000 		.4byte	.LVL86-.Ltext0
 3348 0817 0500     		.2byte	0x5
 3349 0819 70       		.byte	0x70
 3350 081a 04       		.sleb128 4
 3351 081b 06       		.byte	0x6
 3352 081c 23       		.byte	0x23
 3353 081d 08       		.uleb128 0x8
 3354 081e 78050000 		.4byte	.LVL86-.Ltext0
 3355 0822 8B050000 		.4byte	.LVL87-1-.Ltext0
 3356 0826 0200     		.2byte	0x2
 3357 0828 72       		.byte	0x72
 3358 0829 08       		.sleb128 8
ARM GAS  C:\DOCUME~1\ADMINI~1\LOCALS~1\Temp\cc1Hp51A.s 			page 86


 3359 082a 8B050000 		.4byte	.LVL87-1-.Ltext0
 3360 082e D4050000 		.4byte	.LFE14-.Ltext0
 3361 0832 0100     		.2byte	0x1
 3362 0834 54       		.byte	0x54
 3363 0835 00000000 		.4byte	0x0
 3364 0839 00000000 		.4byte	0x0
 3365              	.LLST60:
 3366 083d 90050000 		.4byte	.LVL88-.Ltext0
 3367 0841 B0050000 		.4byte	.LVL89-.Ltext0
 3368 0845 0100     		.2byte	0x1
 3369 0847 54       		.byte	0x54
 3370 0848 00000000 		.4byte	0x0
 3371 084c 00000000 		.4byte	0x0
 3372              	.LLST61:
 3373 0850 24060000 		.4byte	.LVL93-.Ltext0
 3374 0854 30060000 		.4byte	.LVL94-.Ltext0
 3375 0858 0100     		.2byte	0x1
 3376 085a 50       		.byte	0x50
 3377 085b 00000000 		.4byte	0x0
 3378 085f 00000000 		.4byte	0x0
 3379              	.LLST62:
 3380 0863 58060000 		.4byte	.LFB22-.Ltext0
 3381 0867 64060000 		.4byte	.LCFI14-.Ltext0
 3382 086b 0200     		.2byte	0x2
 3383 086d 7D       		.byte	0x7d
 3384 086e 00       		.sleb128 0
 3385 086f 64060000 		.4byte	.LCFI14-.Ltext0
 3386 0873 70060000 		.4byte	.LCFI15-.Ltext0
 3387 0877 0200     		.2byte	0x2
 3388 0879 7C       		.byte	0x7c
 3389 087a 00       		.sleb128 0
 3390 087b 70060000 		.4byte	.LCFI15-.Ltext0
 3391 087f D8060000 		.4byte	.LFE22-.Ltext0
 3392 0883 0200     		.2byte	0x2
 3393 0885 7B       		.byte	0x7b
 3394 0886 04       		.sleb128 4
 3395 0887 00000000 		.4byte	0x0
 3396 088b 00000000 		.4byte	0x0
 3397              	.LLST63:
 3398 088f D8060000 		.4byte	.LFB23-.Ltext0
 3399 0893 DC060000 		.4byte	.LCFI16-.Ltext0
 3400 0897 0200     		.2byte	0x2
 3401 0899 7D       		.byte	0x7d
 3402 089a 00       		.sleb128 0
 3403 089b DC060000 		.4byte	.LCFI16-.Ltext0
 3404 089f F0060000 		.4byte	.LCFI17-.Ltext0
 3405 08a3 0200     		.2byte	0x2
 3406 08a5 7C       		.byte	0x7c
 3407 08a6 00       		.sleb128 0
 3408 08a7 F0060000 		.4byte	.LCFI17-.Ltext0
 3409 08ab 54070000 		.4byte	.LFE23-.Ltext0
 3410 08af 0200     		.2byte	0x2
 3411 08b1 7B       		.byte	0x7b
 3412 08b2 04       		.sleb128 4
 3413 08b3 00000000 		.4byte	0x0
 3414 08b7 00000000 		.4byte	0x0
 3415              	.LLST64:
ARM GAS  C:\DOCUME~1\ADMINI~1\LOCALS~1\Temp\cc1Hp51A.s 			page 87


 3416 08bb 98070000 		.4byte	.LVL97-.Ltext0
 3417 08bf A4070000 		.4byte	.LVL99-.Ltext0
 3418 08c3 0100     		.2byte	0x1
 3419 08c5 50       		.byte	0x50
 3420 08c6 C8070000 		.4byte	.LVL100-.Ltext0
 3421 08ca CC070000 		.4byte	.LVL101-.Ltext0
 3422 08ce 0100     		.2byte	0x1
 3423 08d0 50       		.byte	0x50
 3424 08d1 00000000 		.4byte	0x0
 3425 08d5 00000000 		.4byte	0x0
 3426              	.LLST65:
 3427 08d9 9C070000 		.4byte	.LVL98-.Ltext0
 3428 08dd CC070000 		.4byte	.LVL101-.Ltext0
 3429 08e1 0200     		.2byte	0x2
 3430 08e3 70       		.byte	0x70
 3431 08e4 04       		.sleb128 4
 3432 08e5 CC070000 		.4byte	.LVL101-.Ltext0
 3433 08e9 D0070000 		.4byte	.LFE26-.Ltext0
 3434 08ed 0100     		.2byte	0x1
 3435 08ef 53       		.byte	0x53
 3436 08f0 00000000 		.4byte	0x0
 3437 08f4 00000000 		.4byte	0x0
 3438              	.LLST66:
 3439 08f8 D0070000 		.4byte	.LVL102-.Ltext0
 3440 08fc F4070000 		.4byte	.LVL104-.Ltext0
 3441 0900 0100     		.2byte	0x1
 3442 0902 51       		.byte	0x51
 3443 0903 00000000 		.4byte	0x0
 3444 0907 00000000 		.4byte	0x0
 3445              	.LLST67:
 3446 090b 24080000 		.4byte	.LVL105-.Ltext0
 3447 090f 44080000 		.4byte	.LVL106-.Ltext0
 3448 0913 0100     		.2byte	0x1
 3449 0915 50       		.byte	0x50
 3450 0916 4C080000 		.4byte	.LVL107-.Ltext0
 3451 091a 5C080000 		.4byte	.LVL109-.Ltext0
 3452 091e 0100     		.2byte	0x1
 3453 0920 50       		.byte	0x50
 3454 0921 90080000 		.4byte	.LVL110-.Ltext0
 3455 0925 94080000 		.4byte	.LVL111-.Ltext0
 3456 0929 0100     		.2byte	0x1
 3457 092b 50       		.byte	0x50
 3458 092c 00000000 		.4byte	0x0
 3459 0930 00000000 		.4byte	0x0
 3460              	.LLST68:
 3461 0934 58080000 		.4byte	.LVL108-.Ltext0
 3462 0938 90080000 		.4byte	.LVL110-.Ltext0
 3463 093c 0200     		.2byte	0x2
 3464 093e 71       		.byte	0x71
 3465 093f 00       		.sleb128 0
 3466 0940 00000000 		.4byte	0x0
 3467 0944 00000000 		.4byte	0x0
 3468              	.LLST69:
 3469 0948 5C080000 		.4byte	.LVL109-.Ltext0
 3470 094c 90080000 		.4byte	.LVL110-.Ltext0
 3471 0950 0500     		.2byte	0x5
 3472 0952 71       		.byte	0x71
ARM GAS  C:\DOCUME~1\ADMINI~1\LOCALS~1\Temp\cc1Hp51A.s 			page 88


 3473 0953 00       		.sleb128 0
 3474 0954 06       		.byte	0x6
 3475 0955 23       		.byte	0x23
 3476 0956 04       		.uleb128 0x4
 3477 0957 00000000 		.4byte	0x0
 3478 095b 00000000 		.4byte	0x0
 3479              	.LLST70:
 3480 095f 98080000 		.4byte	.LFB16-.Ltext0
 3481 0963 9C080000 		.4byte	.LCFI18-.Ltext0
 3482 0967 0200     		.2byte	0x2
 3483 0969 7D       		.byte	0x7d
 3484 096a 00       		.sleb128 0
 3485 096b 9C080000 		.4byte	.LCFI18-.Ltext0
 3486 096f B0080000 		.4byte	.LCFI19-.Ltext0
 3487 0973 0200     		.2byte	0x2
 3488 0975 7C       		.byte	0x7c
 3489 0976 00       		.sleb128 0
 3490 0977 B0080000 		.4byte	.LCFI19-.Ltext0
 3491 097b B0090000 		.4byte	.LFE16-.Ltext0
 3492 097f 0200     		.2byte	0x2
 3493 0981 7B       		.byte	0x7b
 3494 0982 04       		.sleb128 4
 3495 0983 00000000 		.4byte	0x0
 3496 0987 00000000 		.4byte	0x0
 3497              	.LLST71:
 3498 098b CC080000 		.4byte	.LVL113-.Ltext0
 3499 098f 28090000 		.4byte	.LVL118-.Ltext0
 3500 0993 0100     		.2byte	0x1
 3501 0995 54       		.byte	0x54
 3502 0996 2C090000 		.4byte	.LVL119-.Ltext0
 3503 099a 43090000 		.4byte	.LVL120-1-.Ltext0
 3504 099e 0200     		.2byte	0x2
 3505 09a0 71       		.byte	0x71
 3506 09a1 08       		.sleb128 8
 3507 09a2 43090000 		.4byte	.LVL120-1-.Ltext0
 3508 09a6 94090000 		.4byte	.LVL123-.Ltext0
 3509 09aa 0100     		.2byte	0x1
 3510 09ac 54       		.byte	0x54
 3511 09ad 00000000 		.4byte	0x0
 3512 09b1 00000000 		.4byte	0x0
 3513              	.LLST72:
 3514 09b5 E4080000 		.4byte	.LVL114-.Ltext0
 3515 09b9 00090000 		.4byte	.LVL116-.Ltext0
 3516 09bd 0100     		.2byte	0x1
 3517 09bf 52       		.byte	0x52
 3518 09c0 00000000 		.4byte	0x0
 3519 09c4 00000000 		.4byte	0x0
 3520              	.LLST73:
 3521 09c8 E4080000 		.4byte	.LVL114-.Ltext0
 3522 09cc 18090000 		.4byte	.LVL117-.Ltext0
 3523 09d0 0100     		.2byte	0x1
 3524 09d2 5E       		.byte	0x5e
 3525 09d3 00000000 		.4byte	0x0
 3526 09d7 00000000 		.4byte	0x0
 3527              	.LLST74:
 3528 09db 28090000 		.4byte	.LVL118-.Ltext0
 3529 09df 43090000 		.4byte	.LVL120-1-.Ltext0
ARM GAS  C:\DOCUME~1\ADMINI~1\LOCALS~1\Temp\cc1Hp51A.s 			page 89


 3530 09e3 0100     		.2byte	0x1
 3531 09e5 51       		.byte	0x51
 3532 09e6 00000000 		.4byte	0x0
 3533 09ea 00000000 		.4byte	0x0
 3534              	.LLST75:
 3535 09ee CC080000 		.4byte	.LVL113-.Ltext0
 3536 09f2 28090000 		.4byte	.LVL118-.Ltext0
 3537 09f6 0100     		.2byte	0x1
 3538 09f8 59       		.byte	0x59
 3539 09f9 5C090000 		.4byte	.LVL121-.Ltext0
 3540 09fd 78090000 		.4byte	.LVL122-.Ltext0
 3541 0a01 0100     		.2byte	0x1
 3542 0a03 50       		.byte	0x50
 3543 0a04 78090000 		.4byte	.LVL122-.Ltext0
 3544 0a08 94090000 		.4byte	.LVL123-.Ltext0
 3545 0a0c 0100     		.2byte	0x1
 3546 0a0e 59       		.byte	0x59
 3547 0a0f 00000000 		.4byte	0x0
 3548 0a13 00000000 		.4byte	0x0
 3549              	.LLST76:
 3550 0a17 E4080000 		.4byte	.LVL114-.Ltext0
 3551 0a1b 28090000 		.4byte	.LVL118-.Ltext0
 3552 0a1f 0600     		.2byte	0x6
 3553 0a21 03       		.byte	0x3
 3554 0a22 40000000 		.4byte	gstrReadyTab+64
 3555 0a26 9F       		.byte	0x9f
 3556 0a27 00000000 		.4byte	0x0
 3557 0a2b 00000000 		.4byte	0x0
 3558              	.LLST77:
 3559 0a2f 28090000 		.4byte	.LVL118-.Ltext0
 3560 0a33 43090000 		.4byte	.LVL120-1-.Ltext0
 3561 0a37 0100     		.2byte	0x1
 3562 0a39 51       		.byte	0x51
 3563 0a3a 00000000 		.4byte	0x0
 3564 0a3e 00000000 		.4byte	0x0
 3565              	.LLST78:
 3566 0a42 2C090000 		.4byte	.LVL119-.Ltext0
 3567 0a46 43090000 		.4byte	.LVL120-1-.Ltext0
 3568 0a4a 0500     		.2byte	0x5
 3569 0a4c 71       		.byte	0x71
 3570 0a4d 08       		.sleb128 8
 3571 0a4e 06       		.byte	0x6
 3572 0a4f 23       		.byte	0x23
 3573 0a50 74       		.uleb128 0x74
 3574 0a51 00000000 		.4byte	0x0
 3575 0a55 00000000 		.4byte	0x0
 3576              	.LLST79:
 3577 0a59 E4080000 		.4byte	.LVL114-.Ltext0
 3578 0a5d 28090000 		.4byte	.LVL118-.Ltext0
 3579 0a61 0100     		.2byte	0x1
 3580 0a63 53       		.byte	0x53
 3581 0a64 00000000 		.4byte	0x0
 3582 0a68 00000000 		.4byte	0x0
 3583              	.LLST80:
 3584 0a6c E4080000 		.4byte	.LVL114-.Ltext0
 3585 0a70 28090000 		.4byte	.LVL118-.Ltext0
 3586 0a74 0100     		.2byte	0x1
ARM GAS  C:\DOCUME~1\ADMINI~1\LOCALS~1\Temp\cc1Hp51A.s 			page 90


 3587 0a76 53       		.byte	0x53
 3588 0a77 00000000 		.4byte	0x0
 3589 0a7b 00000000 		.4byte	0x0
 3590              	.LLST81:
 3591 0a7f E4080000 		.4byte	.LVL114-.Ltext0
 3592 0a83 28090000 		.4byte	.LVL118-.Ltext0
 3593 0a87 0600     		.2byte	0x6
 3594 0a89 03       		.byte	0x3
 3595 0a8a 40000000 		.4byte	gstrReadyTab+64
 3596 0a8e 9F       		.byte	0x9f
 3597 0a8f 00000000 		.4byte	0x0
 3598 0a93 00000000 		.4byte	0x0
 3599              	.LLST82:
 3600 0a97 E4080000 		.4byte	.LVL114-.Ltext0
 3601 0a9b 18090000 		.4byte	.LVL117-.Ltext0
 3602 0a9f 0100     		.2byte	0x1
 3603 0aa1 5E       		.byte	0x5e
 3604 0aa2 00000000 		.4byte	0x0
 3605 0aa6 00000000 		.4byte	0x0
 3606              	.LLST83:
 3607 0aaa E4080000 		.4byte	.LVL114-.Ltext0
 3608 0aae 00090000 		.4byte	.LVL116-.Ltext0
 3609 0ab2 0100     		.2byte	0x1
 3610 0ab4 52       		.byte	0x52
 3611 0ab5 00000000 		.4byte	0x0
 3612 0ab9 00000000 		.4byte	0x0
 3613              	.LLST84:
 3614 0abd F4080000 		.4byte	.LVL115-.Ltext0
 3615 0ac1 28090000 		.4byte	.LVL118-.Ltext0
 3616 0ac5 0100     		.2byte	0x1
 3617 0ac7 53       		.byte	0x53
 3618 0ac8 00000000 		.4byte	0x0
 3619 0acc 00000000 		.4byte	0x0
 3620              	.LLST85:
 3621 0ad0 F4080000 		.4byte	.LVL115-.Ltext0
 3622 0ad4 28090000 		.4byte	.LVL118-.Ltext0
 3623 0ad8 0600     		.2byte	0x6
 3624 0ada 03       		.byte	0x3
 3625 0adb 40000000 		.4byte	gstrReadyTab+64
 3626 0adf 9F       		.byte	0x9f
 3627 0ae0 00000000 		.4byte	0x0
 3628 0ae4 00000000 		.4byte	0x0
 3629              	.LLST86:
 3630 0ae8 E4080000 		.4byte	.LVL114-.Ltext0
 3631 0aec 18090000 		.4byte	.LVL117-.Ltext0
 3632 0af0 0100     		.2byte	0x1
 3633 0af2 5E       		.byte	0x5e
 3634 0af3 00000000 		.4byte	0x0
 3635 0af7 00000000 		.4byte	0x0
 3636              	.LLST87:
 3637 0afb E4080000 		.4byte	.LVL114-.Ltext0
 3638 0aff 00090000 		.4byte	.LVL116-.Ltext0
 3639 0b03 0100     		.2byte	0x1
 3640 0b05 52       		.byte	0x52
 3641 0b06 00000000 		.4byte	0x0
 3642 0b0a 00000000 		.4byte	0x0
 3643              	.LLST88:
ARM GAS  C:\DOCUME~1\ADMINI~1\LOCALS~1\Temp\cc1Hp51A.s 			page 91


 3644 0b0e B0090000 		.4byte	.LFB13-.Ltext0
 3645 0b12 B4090000 		.4byte	.LCFI20-.Ltext0
 3646 0b16 0200     		.2byte	0x2
 3647 0b18 7D       		.byte	0x7d
 3648 0b19 00       		.sleb128 0
 3649 0b1a B4090000 		.4byte	.LCFI20-.Ltext0
 3650 0b1e C0090000 		.4byte	.LCFI21-.Ltext0
 3651 0b22 0200     		.2byte	0x2
 3652 0b24 7C       		.byte	0x7c
 3653 0b25 00       		.sleb128 0
 3654 0b26 C0090000 		.4byte	.LCFI21-.Ltext0
 3655 0b2a 500A0000 		.4byte	.LFE13-.Ltext0
 3656 0b2e 0200     		.2byte	0x2
 3657 0b30 7B       		.byte	0x7b
 3658 0b31 04       		.sleb128 4
 3659 0b32 00000000 		.4byte	0x0
 3660 0b36 00000000 		.4byte	0x0
 3661              	.LLST89:
 3662 0b3a E8090000 		.4byte	.LVL125-.Ltext0
 3663 0b3e F4090000 		.4byte	.LVL126-.Ltext0
 3664 0b42 0500     		.2byte	0x5
 3665 0b44 70       		.byte	0x70
 3666 0b45 04       		.sleb128 4
 3667 0b46 06       		.byte	0x6
 3668 0b47 23       		.byte	0x23
 3669 0b48 08       		.uleb128 0x8
 3670 0b49 F4090000 		.4byte	.LVL126-.Ltext0
 3671 0b4d 070A0000 		.4byte	.LVL127-1-.Ltext0
 3672 0b51 0200     		.2byte	0x2
 3673 0b53 72       		.byte	0x72
 3674 0b54 08       		.sleb128 8
 3675 0b55 070A0000 		.4byte	.LVL127-1-.Ltext0
 3676 0b59 500A0000 		.4byte	.LFE13-.Ltext0
 3677 0b5d 0100     		.2byte	0x1
 3678 0b5f 54       		.byte	0x54
 3679 0b60 00000000 		.4byte	0x0
 3680 0b64 00000000 		.4byte	0x0
 3681              	.LLST90:
 3682 0b68 0C0A0000 		.4byte	.LVL128-.Ltext0
 3683 0b6c 2C0A0000 		.4byte	.LVL129-.Ltext0
 3684 0b70 0100     		.2byte	0x1
 3685 0b72 54       		.byte	0x54
 3686 0b73 00000000 		.4byte	0x0
 3687 0b77 00000000 		.4byte	0x0
 3688              	.LLST91:
 3689 0b7b 680A0000 		.4byte	.LVL130-.Ltext0
 3690 0b7f 6C0A0000 		.4byte	.LVL131-.Ltext0
 3691 0b83 0100     		.2byte	0x1
 3692 0b85 50       		.byte	0x50
 3693 0b86 00000000 		.4byte	0x0
 3694 0b8a 00000000 		.4byte	0x0
 3695              	.LLST92:
 3696 0b8e 700A0000 		.4byte	.LVL132-.Ltext0
 3697 0b92 7C0A0000 		.4byte	.LVL133-.Ltext0
 3698 0b96 0100     		.2byte	0x1
 3699 0b98 50       		.byte	0x50
 3700 0b99 00000000 		.4byte	0x0
ARM GAS  C:\DOCUME~1\ADMINI~1\LOCALS~1\Temp\cc1Hp51A.s 			page 92


 3701 0b9d 00000000 		.4byte	0x0
 3702              		.file 2 "../mindows/mds_mdsdef.h"
 3703              		.file 3 "../mindows/mds_task.h"
 3704              		.file 4 "../mindows/mds_core_c_inner.h"
 3705              		.file 5 "../mindows/mds_task_inner.h"
 3706              		.section	.debug_info
 3707 0000 78130000 		.4byte	0x1378
 3708 0004 0200     		.2byte	0x2
 3709 0006 00000000 		.4byte	.Ldebug_abbrev0
 3710 000a 04       		.byte	0x4
 3711 000b 01       		.uleb128 0x1
 3712 000c 3C050000 		.4byte	.LASF119
 3713 0010 01       		.byte	0x1
 3714 0011 3B010000 		.4byte	.LASF120
 3715 0015 77040000 		.4byte	.LASF121
 3716 0019 00000000 		.4byte	.Ltext0
 3717 001d 840A0000 		.4byte	.Letext0
 3718 0021 00000000 		.4byte	.Ldebug_line0
 3719 0025 02       		.uleb128 0x2
 3720 0026 553800   		.ascii	"U8\000"
 3721 0029 02       		.byte	0x2
 3722 002a 07       		.byte	0x7
 3723 002b 2F000000 		.4byte	0x2f
 3724 002f 03       		.uleb128 0x3
 3725 0030 01       		.byte	0x1
 3726 0031 08       		.byte	0x8
 3727 0032 28030000 		.4byte	.LASF0
 3728 0036 03       		.uleb128 0x3
 3729 0037 02       		.byte	0x2
 3730 0038 07       		.byte	0x7
 3731 0039 20040000 		.4byte	.LASF1
 3732 003d 02       		.uleb128 0x2
 3733 003e 55333200 		.ascii	"U32\000"
 3734 0042 02       		.byte	0x2
 3735 0043 09       		.byte	0x9
 3736 0044 48000000 		.4byte	0x48
 3737 0048 03       		.uleb128 0x3
 3738 0049 04       		.byte	0x4
 3739 004a 07       		.byte	0x7
 3740 004b 98030000 		.4byte	.LASF2
 3741 004f 03       		.uleb128 0x3
 3742 0050 01       		.byte	0x1
 3743 0051 08       		.byte	0x8
 3744 0052 3D040000 		.4byte	.LASF3
 3745 0056 03       		.uleb128 0x3
 3746 0057 02       		.byte	0x2
 3747 0058 05       		.byte	0x5
 3748 0059 9E000000 		.4byte	.LASF4
 3749 005d 02       		.uleb128 0x2
 3750 005e 53333200 		.ascii	"S32\000"
 3751 0062 02       		.byte	0x2
 3752 0063 0C       		.byte	0xc
 3753 0064 68000000 		.4byte	0x68
 3754 0068 04       		.uleb128 0x4
 3755 0069 04       		.byte	0x4
 3756 006a 05       		.byte	0x5
 3757 006b 696E7400 		.ascii	"int\000"
ARM GAS  C:\DOCUME~1\ADMINI~1\LOCALS~1\Temp\cc1Hp51A.s 			page 93


 3758 006f 05       		.uleb128 0x5
 3759 0070 FD030000 		.4byte	.LASF5
 3760 0074 02       		.byte	0x2
 3761 0075 0D       		.byte	0xd
 3762 0076 7A000000 		.4byte	0x7a
 3763 007a 06       		.uleb128 0x6
 3764 007b 04       		.byte	0x4
 3765 007c 80000000 		.4byte	0x80
 3766 0080 07       		.uleb128 0x7
 3767 0081 01       		.byte	0x1
 3768 0082 08       		.uleb128 0x8
 3769 0083 A8000000 		.4byte	.LASF24
 3770 0087 44       		.byte	0x44
 3771 0088 02       		.byte	0x2
 3772 0089 46       		.byte	0x46
 3773 008a 7D010000 		.4byte	0x17d
 3774 008e 09       		.uleb128 0x9
 3775 008f A2020000 		.4byte	.LASF6
 3776 0093 02       		.byte	0x2
 3777 0094 48       		.byte	0x48
 3778 0095 3D000000 		.4byte	0x3d
 3779 0099 02       		.byte	0x2
 3780 009a 23       		.byte	0x23
 3781 009b 00       		.uleb128 0x0
 3782 009c 09       		.uleb128 0x9
 3783 009d BD020000 		.4byte	.LASF7
 3784 00a1 02       		.byte	0x2
 3785 00a2 49       		.byte	0x49
 3786 00a3 3D000000 		.4byte	0x3d
 3787 00a7 02       		.byte	0x2
 3788 00a8 23       		.byte	0x23
 3789 00a9 04       		.uleb128 0x4
 3790 00aa 09       		.uleb128 0x9
 3791 00ab C2020000 		.4byte	.LASF8
 3792 00af 02       		.byte	0x2
 3793 00b0 4A       		.byte	0x4a
 3794 00b1 3D000000 		.4byte	0x3d
 3795 00b5 02       		.byte	0x2
 3796 00b6 23       		.byte	0x23
 3797 00b7 08       		.uleb128 0x8
 3798 00b8 09       		.uleb128 0x9
 3799 00b9 C7020000 		.4byte	.LASF9
 3800 00bd 02       		.byte	0x2
 3801 00be 4B       		.byte	0x4b
 3802 00bf 3D000000 		.4byte	0x3d
 3803 00c3 02       		.byte	0x2
 3804 00c4 23       		.byte	0x23
 3805 00c5 0C       		.uleb128 0xc
 3806 00c6 09       		.uleb128 0x9
 3807 00c7 CC020000 		.4byte	.LASF10
 3808 00cb 02       		.byte	0x2
 3809 00cc 4C       		.byte	0x4c
 3810 00cd 3D000000 		.4byte	0x3d
 3811 00d1 02       		.byte	0x2
 3812 00d2 23       		.byte	0x23
 3813 00d3 10       		.uleb128 0x10
 3814 00d4 09       		.uleb128 0x9
ARM GAS  C:\DOCUME~1\ADMINI~1\LOCALS~1\Temp\cc1Hp51A.s 			page 94


 3815 00d5 D1020000 		.4byte	.LASF11
 3816 00d9 02       		.byte	0x2
 3817 00da 4D       		.byte	0x4d
 3818 00db 3D000000 		.4byte	0x3d
 3819 00df 02       		.byte	0x2
 3820 00e0 23       		.byte	0x23
 3821 00e1 14       		.uleb128 0x14
 3822 00e2 09       		.uleb128 0x9
 3823 00e3 D6020000 		.4byte	.LASF12
 3824 00e7 02       		.byte	0x2
 3825 00e8 4E       		.byte	0x4e
 3826 00e9 3D000000 		.4byte	0x3d
 3827 00ed 02       		.byte	0x2
 3828 00ee 23       		.byte	0x23
 3829 00ef 18       		.uleb128 0x18
 3830 00f0 09       		.uleb128 0x9
 3831 00f1 DB020000 		.4byte	.LASF13
 3832 00f5 02       		.byte	0x2
 3833 00f6 4F       		.byte	0x4f
 3834 00f7 3D000000 		.4byte	0x3d
 3835 00fb 02       		.byte	0x2
 3836 00fc 23       		.byte	0x23
 3837 00fd 1C       		.uleb128 0x1c
 3838 00fe 09       		.uleb128 0x9
 3839 00ff E0020000 		.4byte	.LASF14
 3840 0103 02       		.byte	0x2
 3841 0104 50       		.byte	0x50
 3842 0105 3D000000 		.4byte	0x3d
 3843 0109 02       		.byte	0x2
 3844 010a 23       		.byte	0x23
 3845 010b 20       		.uleb128 0x20
 3846 010c 09       		.uleb128 0x9
 3847 010d E5020000 		.4byte	.LASF15
 3848 0111 02       		.byte	0x2
 3849 0112 51       		.byte	0x51
 3850 0113 3D000000 		.4byte	0x3d
 3851 0117 02       		.byte	0x2
 3852 0118 23       		.byte	0x23
 3853 0119 24       		.uleb128 0x24
 3854 011a 09       		.uleb128 0x9
 3855 011b EA020000 		.4byte	.LASF16
 3856 011f 02       		.byte	0x2
 3857 0120 52       		.byte	0x52
 3858 0121 3D000000 		.4byte	0x3d
 3859 0125 02       		.byte	0x2
 3860 0126 23       		.byte	0x23
 3861 0127 28       		.uleb128 0x28
 3862 0128 09       		.uleb128 0x9
 3863 0129 C3030000 		.4byte	.LASF17
 3864 012d 02       		.byte	0x2
 3865 012e 53       		.byte	0x53
 3866 012f 3D000000 		.4byte	0x3d
 3867 0133 02       		.byte	0x2
 3868 0134 23       		.byte	0x23
 3869 0135 2C       		.uleb128 0x2c
 3870 0136 09       		.uleb128 0x9
 3871 0137 C9030000 		.4byte	.LASF18
ARM GAS  C:\DOCUME~1\ADMINI~1\LOCALS~1\Temp\cc1Hp51A.s 			page 95


 3872 013b 02       		.byte	0x2
 3873 013c 54       		.byte	0x54
 3874 013d 3D000000 		.4byte	0x3d
 3875 0141 02       		.byte	0x2
 3876 0142 23       		.byte	0x23
 3877 0143 30       		.uleb128 0x30
 3878 0144 09       		.uleb128 0x9
 3879 0145 CF030000 		.4byte	.LASF19
 3880 0149 02       		.byte	0x2
 3881 014a 55       		.byte	0x55
 3882 014b 3D000000 		.4byte	0x3d
 3883 014f 02       		.byte	0x2
 3884 0150 23       		.byte	0x23
 3885 0151 34       		.uleb128 0x34
 3886 0152 09       		.uleb128 0x9
 3887 0153 D5030000 		.4byte	.LASF20
 3888 0157 02       		.byte	0x2
 3889 0158 56       		.byte	0x56
 3890 0159 3D000000 		.4byte	0x3d
 3891 015d 02       		.byte	0x2
 3892 015e 23       		.byte	0x23
 3893 015f 38       		.uleb128 0x38
 3894 0160 09       		.uleb128 0x9
 3895 0161 DB030000 		.4byte	.LASF21
 3896 0165 02       		.byte	0x2
 3897 0166 57       		.byte	0x57
 3898 0167 3D000000 		.4byte	0x3d
 3899 016b 02       		.byte	0x2
 3900 016c 23       		.byte	0x23
 3901 016d 3C       		.uleb128 0x3c
 3902 016e 09       		.uleb128 0x9
 3903 016f E1030000 		.4byte	.LASF22
 3904 0173 02       		.byte	0x2
 3905 0174 58       		.byte	0x58
 3906 0175 3D000000 		.4byte	0x3d
 3907 0179 02       		.byte	0x2
 3908 017a 23       		.byte	0x23
 3909 017b 40       		.uleb128 0x40
 3910 017c 00       		.byte	0x0
 3911 017d 05       		.uleb128 0x5
 3912 017e 1F030000 		.4byte	.LASF23
 3913 0182 02       		.byte	0x2
 3914 0183 59       		.byte	0x59
 3915 0184 82000000 		.4byte	0x82
 3916 0188 08       		.uleb128 0x8
 3917 0189 A9020000 		.4byte	.LASF25
 3918 018d 08       		.byte	0x8
 3919 018e 02       		.byte	0x2
 3920 018f 5B       		.byte	0x5b
 3921 0190 B1010000 		.4byte	0x1b1
 3922 0194 09       		.uleb128 0x9
 3923 0195 14000000 		.4byte	.LASF26
 3924 0199 02       		.byte	0x2
 3925 019a 5D       		.byte	0x5d
 3926 019b B1010000 		.4byte	0x1b1
 3927 019f 02       		.byte	0x2
 3928 01a0 23       		.byte	0x23
ARM GAS  C:\DOCUME~1\ADMINI~1\LOCALS~1\Temp\cc1Hp51A.s 			page 96


 3929 01a1 00       		.uleb128 0x0
 3930 01a2 09       		.uleb128 0x9
 3931 01a3 DF040000 		.4byte	.LASF27
 3932 01a7 02       		.byte	0x2
 3933 01a8 5E       		.byte	0x5e
 3934 01a9 B1010000 		.4byte	0x1b1
 3935 01ad 02       		.byte	0x2
 3936 01ae 23       		.byte	0x23
 3937 01af 04       		.uleb128 0x4
 3938 01b0 00       		.byte	0x0
 3939 01b1 06       		.uleb128 0x6
 3940 01b2 04       		.byte	0x4
 3941 01b3 88010000 		.4byte	0x188
 3942 01b7 05       		.uleb128 0x5
 3943 01b8 6A000000 		.4byte	.LASF28
 3944 01bc 02       		.byte	0x2
 3945 01bd 5F       		.byte	0x5f
 3946 01be 88010000 		.4byte	0x188
 3947 01c2 08       		.uleb128 0x8
 3948 01c3 61000000 		.4byte	.LASF29
 3949 01c7 0C       		.byte	0xc
 3950 01c8 02       		.byte	0x2
 3951 01c9 61       		.byte	0x61
 3952 01ca EB010000 		.4byte	0x1eb
 3953 01ce 09       		.uleb128 0x9
 3954 01cf 15040000 		.4byte	.LASF30
 3955 01d3 02       		.byte	0x2
 3956 01d4 63       		.byte	0x63
 3957 01d5 B7010000 		.4byte	0x1b7
 3958 01d9 02       		.byte	0x2
 3959 01da 23       		.byte	0x23
 3960 01db 00       		.uleb128 0x0
 3961 01dc 09       		.uleb128 0x9
 3962 01dd FE010000 		.4byte	.LASF31
 3963 01e1 02       		.byte	0x2
 3964 01e2 64       		.byte	0x64
 3965 01e3 76020000 		.4byte	0x276
 3966 01e7 02       		.byte	0x2
 3967 01e8 23       		.byte	0x23
 3968 01e9 08       		.uleb128 0x8
 3969 01ea 00       		.byte	0x0
 3970 01eb 08       		.uleb128 0x8
 3971 01ec E7010000 		.4byte	.LASF32
 3972 01f0 78       		.byte	0x78
 3973 01f1 02       		.byte	0x2
 3974 01f2 8A       		.byte	0x8a
 3975 01f3 76020000 		.4byte	0x276
 3976 01f7 09       		.uleb128 0x9
 3977 01f8 6B050000 		.4byte	.LASF33
 3978 01fc 02       		.byte	0x2
 3979 01fd 8C       		.byte	0x8c
 3980 01fe 7D010000 		.4byte	0x17d
 3981 0202 02       		.byte	0x2
 3982 0203 23       		.byte	0x23
 3983 0204 00       		.uleb128 0x0
 3984 0205 09       		.uleb128 0x9
 3985 0206 FF040000 		.4byte	.LASF34
ARM GAS  C:\DOCUME~1\ADMINI~1\LOCALS~1\Temp\cc1Hp51A.s 			page 97


 3986 020a 02       		.byte	0x2
 3987 020b 8D       		.byte	0x8d
 3988 020c 7C020000 		.4byte	0x27c
 3989 0210 02       		.byte	0x2
 3990 0211 23       		.byte	0x23
 3991 0212 44       		.uleb128 0x44
 3992 0213 09       		.uleb128 0x9
 3993 0214 17050000 		.4byte	.LASF35
 3994 0218 02       		.byte	0x2
 3995 0219 8E       		.byte	0x8e
 3996 021a 7C020000 		.4byte	0x27c
 3997 021e 02       		.byte	0x2
 3998 021f 23       		.byte	0x23
 3999 0220 50       		.uleb128 0x50
 4000 0221 09       		.uleb128 0x9
 4001 0222 22060000 		.4byte	.LASF36
 4002 0226 02       		.byte	0x2
 4003 0227 8F       		.byte	0x8f
 4004 0228 67030000 		.4byte	0x367
 4005 022c 02       		.byte	0x2
 4006 022d 23       		.byte	0x23
 4007 022e 5C       		.uleb128 0x5c
 4008 022f 09       		.uleb128 0x9
 4009 0230 6B040000 		.4byte	.LASF37
 4010 0234 02       		.byte	0x2
 4011 0235 90       		.byte	0x90
 4012 0236 6D030000 		.4byte	0x36d
 4013 023a 02       		.byte	0x2
 4014 023b 23       		.byte	0x23
 4015 023c 60       		.uleb128 0x60
 4016 023d 09       		.uleb128 0x9
 4017 023e 18010000 		.4byte	.LASF38
 4018 0242 02       		.byte	0x2
 4019 0243 91       		.byte	0x91
 4020 0244 3D000000 		.4byte	0x3d
 4021 0248 02       		.byte	0x2
 4022 0249 23       		.byte	0x23
 4023 024a 64       		.uleb128 0x64
 4024 024b 09       		.uleb128 0x9
 4025 024c 29000000 		.4byte	.LASF39
 4026 0250 02       		.byte	0x2
 4027 0251 92       		.byte	0x92
 4028 0252 25000000 		.4byte	0x25
 4029 0256 02       		.byte	0x2
 4030 0257 23       		.byte	0x23
 4031 0258 68       		.uleb128 0x68
 4032 0259 09       		.uleb128 0x9
 4033 025a F5050000 		.4byte	.LASF40
 4034 025e 02       		.byte	0x2
 4035 025f 93       		.byte	0x93
 4036 0260 B0020000 		.4byte	0x2b0
 4037 0264 02       		.byte	0x2
 4038 0265 23       		.byte	0x23
 4039 0266 6C       		.uleb128 0x6c
 4040 0267 09       		.uleb128 0x9
 4041 0268 A9040000 		.4byte	.LASF41
 4042 026c 02       		.byte	0x2
ARM GAS  C:\DOCUME~1\ADMINI~1\LOCALS~1\Temp\cc1Hp51A.s 			page 98


 4043 026d 94       		.byte	0x94
 4044 026e 3D000000 		.4byte	0x3d
 4045 0272 02       		.byte	0x2
 4046 0273 23       		.byte	0x23
 4047 0274 74       		.uleb128 0x74
 4048 0275 00       		.byte	0x0
 4049 0276 06       		.uleb128 0x6
 4050 0277 04       		.byte	0x4
 4051 0278 EB010000 		.4byte	0x1eb
 4052 027c 05       		.uleb128 0x5
 4053 027d 48050000 		.4byte	.LASF42
 4054 0281 02       		.byte	0x2
 4055 0282 65       		.byte	0x65
 4056 0283 C2010000 		.4byte	0x1c2
 4057 0287 08       		.uleb128 0x8
 4058 0288 34000000 		.4byte	.LASF43
 4059 028c 08       		.byte	0x8
 4060 028d 02       		.byte	0x2
 4061 028e 67       		.byte	0x67
 4062 028f B0020000 		.4byte	0x2b0
 4063 0293 09       		.uleb128 0x9
 4064 0294 A5030000 		.4byte	.LASF44
 4065 0298 02       		.byte	0x2
 4066 0299 69       		.byte	0x69
 4067 029a 25000000 		.4byte	0x25
 4068 029e 02       		.byte	0x2
 4069 029f 23       		.byte	0x23
 4070 02a0 00       		.uleb128 0x0
 4071 02a1 09       		.uleb128 0x9
 4072 02a2 1D000000 		.4byte	.LASF45
 4073 02a6 02       		.byte	0x2
 4074 02a7 6A       		.byte	0x6a
 4075 02a8 3D000000 		.4byte	0x3d
 4076 02ac 02       		.byte	0x2
 4077 02ad 23       		.byte	0x23
 4078 02ae 04       		.uleb128 0x4
 4079 02af 00       		.byte	0x0
 4080 02b0 05       		.uleb128 0x5
 4081 02b1 E8040000 		.4byte	.LASF46
 4082 02b5 02       		.byte	0x2
 4083 02b6 6B       		.byte	0x6b
 4084 02b7 87020000 		.4byte	0x287
 4085 02bb 08       		.uleb128 0x8
 4086 02bc 7C010000 		.4byte	.LASF47
 4087 02c0 01       		.byte	0x1
 4088 02c1 02       		.byte	0x2
 4089 02c2 6D       		.byte	0x6d
 4090 02c3 D6020000 		.4byte	0x2d6
 4091 02c7 09       		.uleb128 0x9
 4092 02c8 D8010000 		.4byte	.LASF48
 4093 02cc 02       		.byte	0x2
 4094 02cd 77       		.byte	0x77
 4095 02ce 25000000 		.4byte	0x25
 4096 02d2 02       		.byte	0x2
 4097 02d3 23       		.byte	0x23
 4098 02d4 00       		.uleb128 0x0
 4099 02d5 00       		.byte	0x0
ARM GAS  C:\DOCUME~1\ADMINI~1\LOCALS~1\Temp\cc1Hp51A.s 			page 99


 4100 02d6 05       		.uleb128 0x5
 4101 02d7 BF010000 		.4byte	.LASF49
 4102 02db 02       		.byte	0x2
 4103 02dc 79       		.byte	0x79
 4104 02dd BB020000 		.4byte	0x2bb
 4105 02e1 08       		.uleb128 0x8
 4106 02e2 DD050000 		.4byte	.LASF50
 4107 02e6 44       		.byte	0x44
 4108 02e7 02       		.byte	0x2
 4109 02e8 7B       		.byte	0x7b
 4110 02e9 0A030000 		.4byte	0x30a
 4111 02ed 09       		.uleb128 0x9
 4112 02ee 03030000 		.4byte	.LASF51
 4113 02f2 02       		.byte	0x2
 4114 02f3 7D       		.byte	0x7d
 4115 02f4 0A030000 		.4byte	0x30a
 4116 02f8 02       		.byte	0x2
 4117 02f9 23       		.byte	0x23
 4118 02fa 00       		.uleb128 0x0
 4119 02fb 09       		.uleb128 0x9
 4120 02fc 90030000 		.4byte	.LASF52
 4121 0300 02       		.byte	0x2
 4122 0301 7E       		.byte	0x7e
 4123 0302 D6020000 		.4byte	0x2d6
 4124 0306 02       		.byte	0x2
 4125 0307 23       		.byte	0x23
 4126 0308 40       		.uleb128 0x40
 4127 0309 00       		.byte	0x0
 4128 030a 0A       		.uleb128 0xa
 4129 030b B7010000 		.4byte	0x1b7
 4130 030f 1A030000 		.4byte	0x31a
 4131 0313 0B       		.uleb128 0xb
 4132 0314 48000000 		.4byte	0x48
 4133 0318 07       		.byte	0x7
 4134 0319 00       		.byte	0x0
 4135 031a 05       		.uleb128 0x5
 4136 031b 0D060000 		.4byte	.LASF53
 4137 031f 02       		.byte	0x2
 4138 0320 7F       		.byte	0x7f
 4139 0321 E1020000 		.4byte	0x2e1
 4140 0325 08       		.uleb128 0x8
 4141 0326 1C060000 		.4byte	.LASF54
 4142 032a 4C       		.byte	0x4c
 4143 032b 02       		.byte	0x2
 4144 032c 82       		.byte	0x82
 4145 032d 5C030000 		.4byte	0x35c
 4146 0331 09       		.uleb128 0x9
 4147 0332 33040000 		.4byte	.LASF55
 4148 0336 02       		.byte	0x2
 4149 0337 84       		.byte	0x84
 4150 0338 1A030000 		.4byte	0x31a
 4151 033c 02       		.byte	0x2
 4152 033d 23       		.byte	0x23
 4153 033e 00       		.uleb128 0x0
 4154 033f 09       		.uleb128 0x9
 4155 0340 7E000000 		.4byte	.LASF56
 4156 0344 02       		.byte	0x2
ARM GAS  C:\DOCUME~1\ADMINI~1\LOCALS~1\Temp\cc1Hp51A.s 			page 100


 4157 0345 85       		.byte	0x85
 4158 0346 3D000000 		.4byte	0x3d
 4159 034a 02       		.byte	0x2
 4160 034b 23       		.byte	0x23
 4161 034c 44       		.uleb128 0x44
 4162 034d 09       		.uleb128 0x9
 4163 034e 62040000 		.4byte	.LASF57
 4164 0352 02       		.byte	0x2
 4165 0353 86       		.byte	0x86
 4166 0354 3D000000 		.4byte	0x3d
 4167 0358 02       		.byte	0x2
 4168 0359 23       		.byte	0x23
 4169 035a 48       		.uleb128 0x48
 4170 035b 00       		.byte	0x0
 4171 035c 05       		.uleb128 0x5
 4172 035d 23050000 		.4byte	.LASF58
 4173 0361 02       		.byte	0x2
 4174 0362 87       		.byte	0x87
 4175 0363 25030000 		.4byte	0x325
 4176 0367 06       		.uleb128 0x6
 4177 0368 04       		.byte	0x4
 4178 0369 5C030000 		.4byte	0x35c
 4179 036d 06       		.uleb128 0x6
 4180 036e 04       		.byte	0x4
 4181 036f 25000000 		.4byte	0x25
 4182 0373 05       		.uleb128 0x5
 4183 0374 98000000 		.4byte	.LASF59
 4184 0378 02       		.byte	0x2
 4185 0379 95       		.byte	0x95
 4186 037a EB010000 		.4byte	0x1eb
 4187 037e 06       		.uleb128 0x6
 4188 037f 04       		.byte	0x4
 4189 0380 73030000 		.4byte	0x373
 4190 0384 05       		.uleb128 0x5
 4191 0385 B9050000 		.4byte	.LASF60
 4192 0389 03       		.byte	0x3
 4193 038a 07       		.byte	0x7
 4194 038b 8F030000 		.4byte	0x38f
 4195 038f 06       		.uleb128 0x6
 4196 0390 04       		.byte	0x4
 4197 0391 95030000 		.4byte	0x395
 4198 0395 0C       		.uleb128 0xc
 4199 0396 01       		.byte	0x1
 4200 0397 A6030000 		.4byte	0x3a6
 4201 039b 0D       		.uleb128 0xd
 4202 039c 7E030000 		.4byte	0x37e
 4203 03a0 0D       		.uleb128 0xd
 4204 03a1 7E030000 		.4byte	0x37e
 4205 03a5 00       		.byte	0x0
 4206 03a6 03       		.uleb128 0x3
 4207 03a7 04       		.byte	0x4
 4208 03a8 07       		.byte	0x7
 4209 03a9 76020000 		.4byte	.LASF61
 4210 03ad 0E       		.uleb128 0xe
 4211 03ae 01       		.byte	0x1
 4212 03af 88020000 		.4byte	.LASF62
 4213 03b3 01       		.byte	0x1
ARM GAS  C:\DOCUME~1\ADMINI~1\LOCALS~1\Temp\cc1Hp51A.s 			page 101


 4214 03b4 8A03     		.2byte	0x38a
 4215 03b6 01       		.byte	0x1
 4216 03b7 01       		.byte	0x1
 4217 03b8 C9030000 		.4byte	0x3c9
 4218 03bc 0F       		.uleb128 0xf
 4219 03bd 42040000 		.4byte	.LASF64
 4220 03c1 01       		.byte	0x1
 4221 03c2 8A03     		.2byte	0x38a
 4222 03c4 C9030000 		.4byte	0x3c9
 4223 03c8 00       		.byte	0x0
 4224 03c9 06       		.uleb128 0x6
 4225 03ca 04       		.byte	0x4
 4226 03cb B7010000 		.4byte	0x1b7
 4227 03cf 10       		.uleb128 0x10
 4228 03d0 01       		.byte	0x1
 4229 03d1 ED000000 		.4byte	.LASF63
 4230 03d5 01       		.byte	0x1
 4231 03d6 AE       		.byte	0xae
 4232 03d7 01       		.byte	0x1
 4233 03d8 01       		.byte	0x1
 4234 03d9 F2030000 		.4byte	0x3f2
 4235 03dd 11       		.uleb128 0x11
 4236 03de 51050000 		.4byte	.LASF65
 4237 03e2 01       		.byte	0x1
 4238 03e3 AE       		.byte	0xae
 4239 03e4 F2030000 		.4byte	0x3f2
 4240 03e8 12       		.uleb128 0x12
 4241 03e9 6900     		.ascii	"i\000"
 4242 03eb 01       		.byte	0x1
 4243 03ec B0       		.byte	0xb0
 4244 03ed 3D000000 		.4byte	0x3d
 4245 03f1 00       		.byte	0x0
 4246 03f2 06       		.uleb128 0x6
 4247 03f3 04       		.byte	0x4
 4248 03f4 1A030000 		.4byte	0x31a
 4249 03f8 0E       		.uleb128 0xe
 4250 03f9 01       		.byte	0x1
 4251 03fa ED010000 		.4byte	.LASF66
 4252 03fe 01       		.byte	0x1
 4253 03ff 9703     		.2byte	0x397
 4254 0401 01       		.byte	0x1
 4255 0402 01       		.byte	0x1
 4256 0403 20040000 		.4byte	0x420
 4257 0407 0F       		.uleb128 0xf
 4258 0408 42040000 		.4byte	.LASF64
 4259 040c 01       		.byte	0x1
 4260 040d 9703     		.2byte	0x397
 4261 040f C9030000 		.4byte	0x3c9
 4262 0413 0F       		.uleb128 0xf
 4263 0414 EC050000 		.4byte	.LASF67
 4264 0418 01       		.byte	0x1
 4265 0419 9703     		.2byte	0x397
 4266 041b C9030000 		.4byte	0x3c9
 4267 041f 00       		.byte	0x0
 4268 0420 0E       		.uleb128 0xe
 4269 0421 01       		.byte	0x1
 4270 0422 36030000 		.4byte	.LASF68
ARM GAS  C:\DOCUME~1\ADMINI~1\LOCALS~1\Temp\cc1Hp51A.s 			page 102


 4271 0426 01       		.byte	0x1
 4272 0427 7F02     		.2byte	0x27f
 4273 0429 01       		.byte	0x1
 4274 042a 01       		.byte	0x1
 4275 042b 48040000 		.4byte	0x448
 4276 042f 0F       		.uleb128 0xf
 4277 0430 00060000 		.4byte	.LASF69
 4278 0434 01       		.byte	0x1
 4279 0435 7F02     		.2byte	0x27f
 4280 0437 48040000 		.4byte	0x448
 4281 043b 0F       		.uleb128 0xf
 4282 043c 29000000 		.4byte	.LASF39
 4283 0440 01       		.byte	0x1
 4284 0441 7F02     		.2byte	0x27f
 4285 0443 25000000 		.4byte	0x25
 4286 0447 00       		.byte	0x0
 4287 0448 06       		.uleb128 0x6
 4288 0449 04       		.byte	0x4
 4289 044a D6020000 		.4byte	0x2d6
 4290 044e 10       		.uleb128 0x10
 4291 044f 01       		.byte	0x1
 4292 0450 E7030000 		.4byte	.LASF70
 4293 0454 01       		.byte	0x1
 4294 0455 DF       		.byte	0xdf
 4295 0456 01       		.byte	0x1
 4296 0457 01       		.byte	0x1
 4297 0458 89040000 		.4byte	0x489
 4298 045c 11       		.uleb128 0x11
 4299 045d 42040000 		.4byte	.LASF64
 4300 0461 01       		.byte	0x1
 4301 0462 DF       		.byte	0xdf
 4302 0463 C9030000 		.4byte	0x3c9
 4303 0467 11       		.uleb128 0x11
 4304 0468 EC050000 		.4byte	.LASF67
 4305 046c 01       		.byte	0x1
 4306 046d DF       		.byte	0xdf
 4307 046e C9030000 		.4byte	0x3c9
 4308 0472 11       		.uleb128 0x11
 4309 0473 00060000 		.4byte	.LASF69
 4310 0477 01       		.byte	0x1
 4311 0478 E0       		.byte	0xe0
 4312 0479 48040000 		.4byte	0x448
 4313 047d 11       		.uleb128 0x11
 4314 047e 29000000 		.4byte	.LASF39
 4315 0482 01       		.byte	0x1
 4316 0483 E0       		.byte	0xe0
 4317 0484 25000000 		.4byte	0x25
 4318 0488 00       		.byte	0x0
 4319 0489 13       		.uleb128 0x13
 4320 048a 01       		.byte	0x1
 4321 048b 00000000 		.4byte	.LASF72
 4322 048f 01       		.byte	0x1
 4323 0490 B903     		.2byte	0x3b9
 4324 0492 01       		.byte	0x1
 4325 0493 C9030000 		.4byte	0x3c9
 4326 0497 01       		.byte	0x1
 4327 0498 B5040000 		.4byte	0x4b5
ARM GAS  C:\DOCUME~1\ADMINI~1\LOCALS~1\Temp\cc1Hp51A.s 			page 103


 4328 049c 0F       		.uleb128 0xf
 4329 049d 42040000 		.4byte	.LASF64
 4330 04a1 01       		.byte	0x1
 4331 04a2 B903     		.2byte	0x3b9
 4332 04a4 C9030000 		.4byte	0x3c9
 4333 04a8 14       		.uleb128 0x14
 4334 04a9 3C020000 		.4byte	.LASF71
 4335 04ad 01       		.byte	0x1
 4336 04ae BB03     		.2byte	0x3bb
 4337 04b0 C9030000 		.4byte	0x3c9
 4338 04b4 00       		.byte	0x0
 4339 04b5 13       		.uleb128 0x13
 4340 04b6 01       		.byte	0x1
 4341 04b7 5F020000 		.4byte	.LASF73
 4342 04bb 01       		.byte	0x1
 4343 04bc F302     		.2byte	0x2f3
 4344 04be 01       		.byte	0x1
 4345 04bf 25000000 		.4byte	0x25
 4346 04c3 01       		.byte	0x1
 4347 04c4 D5040000 		.4byte	0x4d5
 4348 04c8 0F       		.uleb128 0xf
 4349 04c9 00060000 		.4byte	.LASF69
 4350 04cd 01       		.byte	0x1
 4351 04ce F302     		.2byte	0x2f3
 4352 04d0 48040000 		.4byte	0x448
 4353 04d4 00       		.byte	0x0
 4354 04d5 13       		.uleb128 0x13
 4355 04d6 01       		.byte	0x1
 4356 04d7 88000000 		.4byte	.LASF74
 4357 04db 01       		.byte	0x1
 4358 04dc 2504     		.2byte	0x425
 4359 04de 01       		.byte	0x1
 4360 04df C9030000 		.4byte	0x3c9
 4361 04e3 01       		.byte	0x1
 4362 04e4 F5040000 		.4byte	0x4f5
 4363 04e8 0F       		.uleb128 0xf
 4364 04e9 42040000 		.4byte	.LASF64
 4365 04ed 01       		.byte	0x1
 4366 04ee 2504     		.2byte	0x425
 4367 04f0 C9030000 		.4byte	0x3c9
 4368 04f4 00       		.byte	0x0
 4369 04f5 13       		.uleb128 0x13
 4370 04f6 01       		.byte	0x1
 4371 04f7 9A010000 		.4byte	.LASF75
 4372 04fb 01       		.byte	0x1
 4373 04fc 0D02     		.2byte	0x20d
 4374 04fe 01       		.byte	0x1
 4375 04ff 7E030000 		.4byte	0x37e
 4376 0503 01       		.byte	0x1
 4377 0504 2D050000 		.4byte	0x52d
 4378 0508 14       		.uleb128 0x14
 4379 0509 FE010000 		.4byte	.LASF31
 4380 050d 01       		.byte	0x1
 4381 050e 0F02     		.2byte	0x20f
 4382 0510 7E030000 		.4byte	0x37e
 4383 0514 14       		.uleb128 0x14
 4384 0515 D3040000 		.4byte	.LASF76
ARM GAS  C:\DOCUME~1\ADMINI~1\LOCALS~1\Temp\cc1Hp51A.s 			page 104


 4385 0519 01       		.byte	0x1
 4386 051a 1002     		.2byte	0x210
 4387 051c 2D050000 		.4byte	0x52d
 4388 0520 14       		.uleb128 0x14
 4389 0521 29000000 		.4byte	.LASF39
 4390 0525 01       		.byte	0x1
 4391 0526 1102     		.2byte	0x211
 4392 0528 25000000 		.4byte	0x25
 4393 052c 00       		.byte	0x0
 4394 052d 06       		.uleb128 0x6
 4395 052e 04       		.byte	0x4
 4396 052f 7C020000 		.4byte	0x27c
 4397 0533 10       		.uleb128 0x10
 4398 0534 01       		.byte	0x1
 4399 0535 B0010000 		.4byte	.LASF77
 4400 0539 01       		.byte	0x1
 4401 053a 8A       		.byte	0x8a
 4402 053b 01       		.byte	0x1
 4403 053c 01       		.byte	0x1
 4404 053d 4D050000 		.4byte	0x54d
 4405 0541 11       		.uleb128 0x11
 4406 0542 FE010000 		.4byte	.LASF31
 4407 0546 01       		.byte	0x1
 4408 0547 8A       		.byte	0x8a
 4409 0548 7E030000 		.4byte	0x37e
 4410 054c 00       		.byte	0x0
 4411 054d 0E       		.uleb128 0xe
 4412 054e 01       		.byte	0x1
 4413 054f 53010000 		.4byte	.LASF78
 4414 0553 01       		.byte	0x1
 4415 0554 B502     		.2byte	0x2b5
 4416 0556 01       		.byte	0x1
 4417 0557 01       		.byte	0x1
 4418 0558 75050000 		.4byte	0x575
 4419 055c 0F       		.uleb128 0xf
 4420 055d 00060000 		.4byte	.LASF69
 4421 0561 01       		.byte	0x1
 4422 0562 B502     		.2byte	0x2b5
 4423 0564 48040000 		.4byte	0x448
 4424 0568 0F       		.uleb128 0xf
 4425 0569 29000000 		.4byte	.LASF39
 4426 056d 01       		.byte	0x1
 4427 056e B502     		.2byte	0x2b5
 4428 0570 25000000 		.4byte	0x25
 4429 0574 00       		.byte	0x0
 4430 0575 13       		.uleb128 0x13
 4431 0576 01       		.byte	0x1
 4432 0577 23010000 		.4byte	.LASF79
 4433 057b 01       		.byte	0x1
 4434 057c 4901     		.2byte	0x149
 4435 057e 01       		.byte	0x1
 4436 057f C9030000 		.4byte	0x3c9
 4437 0583 01       		.byte	0x1
 4438 0584 B9050000 		.4byte	0x5b9
 4439 0588 0F       		.uleb128 0xf
 4440 0589 42040000 		.4byte	.LASF64
 4441 058d 01       		.byte	0x1
ARM GAS  C:\DOCUME~1\ADMINI~1\LOCALS~1\Temp\cc1Hp51A.s 			page 105


 4442 058e 4901     		.2byte	0x149
 4443 0590 C9030000 		.4byte	0x3c9
 4444 0594 0F       		.uleb128 0xf
 4445 0595 00060000 		.4byte	.LASF69
 4446 0599 01       		.byte	0x1
 4447 059a 4901     		.2byte	0x149
 4448 059c 48040000 		.4byte	0x448
 4449 05a0 0F       		.uleb128 0xf
 4450 05a1 29000000 		.4byte	.LASF39
 4451 05a5 01       		.byte	0x1
 4452 05a6 4A01     		.2byte	0x14a
 4453 05a8 25000000 		.4byte	0x25
 4454 05ac 14       		.uleb128 0x14
 4455 05ad B1020000 		.4byte	.LASF80
 4456 05b1 01       		.byte	0x1
 4457 05b2 4C01     		.2byte	0x14c
 4458 05b4 C9030000 		.4byte	0x3c9
 4459 05b8 00       		.byte	0x0
 4460 05b9 0E       		.uleb128 0xe
 4461 05ba 01       		.byte	0x1
 4462 05bb 7E050000 		.4byte	.LASF81
 4463 05bf 01       		.byte	0x1
 4464 05c0 E303     		.2byte	0x3e3
 4465 05c2 01       		.byte	0x1
 4466 05c3 01       		.byte	0x1
 4467 05c4 ED050000 		.4byte	0x5ed
 4468 05c8 0F       		.uleb128 0xf
 4469 05c9 42040000 		.4byte	.LASF64
 4470 05cd 01       		.byte	0x1
 4471 05ce E303     		.2byte	0x3e3
 4472 05d0 C9030000 		.4byte	0x3c9
 4473 05d4 0F       		.uleb128 0xf
 4474 05d5 EC050000 		.4byte	.LASF67
 4475 05d9 01       		.byte	0x1
 4476 05da E303     		.2byte	0x3e3
 4477 05dc C9030000 		.4byte	0x3c9
 4478 05e0 0F       		.uleb128 0xf
 4479 05e1 72000000 		.4byte	.LASF82
 4480 05e5 01       		.byte	0x1
 4481 05e6 E403     		.2byte	0x3e4
 4482 05e8 C9030000 		.4byte	0x3c9
 4483 05ec 00       		.byte	0x0
 4484 05ed 13       		.uleb128 0x13
 4485 05ee 01       		.byte	0x1
 4486 05ef 4A030000 		.4byte	.LASF83
 4487 05f3 01       		.byte	0x1
 4488 05f4 3004     		.2byte	0x430
 4489 05f6 01       		.byte	0x1
 4490 05f7 C9030000 		.4byte	0x3c9
 4491 05fb 01       		.byte	0x1
 4492 05fc 19060000 		.4byte	0x619
 4493 0600 0F       		.uleb128 0xf
 4494 0601 42040000 		.4byte	.LASF64
 4495 0605 01       		.byte	0x1
 4496 0606 3004     		.2byte	0x430
 4497 0608 C9030000 		.4byte	0x3c9
 4498 060c 0F       		.uleb128 0xf
ARM GAS  C:\DOCUME~1\ADMINI~1\LOCALS~1\Temp\cc1Hp51A.s 			page 106


 4499 060d EC050000 		.4byte	.LASF67
 4500 0611 01       		.byte	0x1
 4501 0612 3004     		.2byte	0x430
 4502 0614 C9030000 		.4byte	0x3c9
 4503 0618 00       		.byte	0x0
 4504 0619 15       		.uleb128 0x15
 4505 061a 01       		.byte	0x1
 4506 061b 03040000 		.4byte	.LASF92
 4507 061f 01       		.byte	0x1
 4508 0620 49       		.byte	0x49
 4509 0621 01       		.byte	0x1
 4510 0622 3D000000 		.4byte	0x3d
 4511 0626 00000000 		.4byte	.LFB1
 4512 062a 30000000 		.4byte	.LFE1
 4513 062e 00000000 		.4byte	.LLST0
 4514 0632 46060000 		.4byte	0x646
 4515 0636 16       		.uleb128 0x16
 4516 0637 CA010000 		.4byte	.LASF86
 4517 063b 01       		.byte	0x1
 4518 063c 49       		.byte	0x49
 4519 063d 6F000000 		.4byte	0x6f
 4520 0641 2C000000 		.4byte	.LLST1
 4521 0645 00       		.byte	0x0
 4522 0646 17       		.uleb128 0x17
 4523 0647 01       		.byte	0x1
 4524 0648 06020000 		.4byte	.LASF84
 4525 064c 01       		.byte	0x1
 4526 064d 5C       		.byte	0x5c
 4527 064e 01       		.byte	0x1
 4528 064f 30000000 		.4byte	.LFB2
 4529 0653 E8000000 		.4byte	.LFE2
 4530 0657 3F000000 		.4byte	.LLST2
 4531 065b C4060000 		.4byte	0x6c4
 4532 065f 18       		.uleb128 0x18
 4533 0660 CF030000 		.4byte	0x3cf
 4534 0664 6C000000 		.4byte	.LBB94
 4535 0668 00000000 		.4byte	.Ldebug_ranges0+0x0
 4536 066c 01       		.byte	0x1
 4537 066d 71       		.byte	0x71
 4538 066e A7060000 		.4byte	0x6a7
 4539 0672 19       		.uleb128 0x19
 4540 0673 DD030000 		.4byte	0x3dd
 4541 0677 06       		.byte	0x6
 4542 0678 03       		.byte	0x3
 4543 0679 00000000 		.4byte	gstrReadyTab
 4544 067d 9F       		.byte	0x9f
 4545 067e 1A       		.uleb128 0x1a
 4546 067f 18000000 		.4byte	.Ldebug_ranges0+0x18
 4547 0683 1B       		.uleb128 0x1b
 4548 0684 E8030000 		.4byte	0x3e8
 4549 0688 6B000000 		.4byte	.LLST3
 4550 068c 1C       		.uleb128 0x1c
 4551 068d AD030000 		.4byte	0x3ad
 4552 0691 6C000000 		.4byte	.LBB96
 4553 0695 30000000 		.4byte	.Ldebug_ranges0+0x30
 4554 0699 01       		.byte	0x1
 4555 069a B5       		.byte	0xb5
ARM GAS  C:\DOCUME~1\ADMINI~1\LOCALS~1\Temp\cc1Hp51A.s 			page 107


 4556 069b 1D       		.uleb128 0x1d
 4557 069c BC030000 		.4byte	0x3bc
 4558 06a0 DF000000 		.4byte	.LLST4
 4559 06a4 00       		.byte	0x0
 4560 06a5 00       		.byte	0x0
 4561 06a6 00       		.byte	0x0
 4562 06a7 1C       		.uleb128 0x1c
 4563 06a8 AD030000 		.4byte	0x3ad
 4564 06ac 70000000 		.4byte	.LBB101
 4565 06b0 48000000 		.4byte	.Ldebug_ranges0+0x48
 4566 06b4 01       		.byte	0x1
 4567 06b5 74       		.byte	0x74
 4568 06b6 19       		.uleb128 0x19
 4569 06b7 BC030000 		.4byte	0x3bc
 4570 06bb 06       		.byte	0x6
 4571 06bc 03       		.byte	0x3
 4572 06bd 00000000 		.4byte	gstrDelayTab
 4573 06c1 9F       		.byte	0x9f
 4574 06c2 00       		.byte	0x0
 4575 06c3 00       		.byte	0x0
 4576 06c4 1E       		.uleb128 0x1e
 4577 06c5 33050000 		.4byte	0x533
 4578 06c9 E8000000 		.4byte	.LFB4
 4579 06cd 14010000 		.4byte	.LFE4
 4580 06d1 02       		.byte	0x2
 4581 06d2 7D       		.byte	0x7d
 4582 06d3 00       		.sleb128 0
 4583 06d4 E0060000 		.4byte	0x6e0
 4584 06d8 19       		.uleb128 0x19
 4585 06d9 41050000 		.4byte	0x541
 4586 06dd 01       		.byte	0x1
 4587 06de 50       		.byte	0x50
 4588 06df 00       		.byte	0x0
 4589 06e0 17       		.uleb128 0x17
 4590 06e1 01       		.byte	0x1
 4591 06e2 62030000 		.4byte	.LASF85
 4592 06e6 01       		.byte	0x1
 4593 06e7 9D       		.byte	0x9d
 4594 06e8 01       		.byte	0x1
 4595 06e9 14010000 		.4byte	.LFB5
 4596 06ed 48010000 		.4byte	.LFE5
 4597 06f1 67010000 		.4byte	.LLST5
 4598 06f5 09070000 		.4byte	0x709
 4599 06f9 16       		.uleb128 0x16
 4600 06fa FE010000 		.4byte	.LASF31
 4601 06fe 01       		.byte	0x1
 4602 06ff 9D       		.byte	0x9d
 4603 0700 7E030000 		.4byte	0x37e
 4604 0704 93010000 		.4byte	.LLST6
 4605 0708 00       		.byte	0x0
 4606 0709 1F       		.uleb128 0x1f
 4607 070a 01       		.byte	0x1
 4608 070b 5D040000 		.4byte	.LASF96
 4609 070f 01       		.byte	0x1
 4610 0710 30       		.byte	0x30
 4611 0711 01       		.byte	0x1
 4612 0712 5D000000 		.4byte	0x5d
ARM GAS  C:\DOCUME~1\ADMINI~1\LOCALS~1\Temp\cc1Hp51A.s 			page 108


 4613 0716 48010000 		.4byte	.LFB0
 4614 071a E4010000 		.4byte	.LFE0
 4615 071e A6010000 		.4byte	.LLST7
 4616 0722 1E       		.uleb128 0x1e
 4617 0723 CF030000 		.4byte	0x3cf
 4618 0727 E4010000 		.4byte	.LFB6
 4619 072b 30020000 		.4byte	.LFE6
 4620 072f 02       		.byte	0x2
 4621 0730 7D       		.byte	0x7d
 4622 0731 00       		.sleb128 0
 4623 0732 60070000 		.4byte	0x760
 4624 0736 19       		.uleb128 0x19
 4625 0737 DD030000 		.4byte	0x3dd
 4626 073b 01       		.byte	0x1
 4627 073c 50       		.byte	0x50
 4628 073d 1B       		.uleb128 0x1b
 4629 073e E8030000 		.4byte	0x3e8
 4630 0742 D2010000 		.4byte	.LLST8
 4631 0746 20       		.uleb128 0x20
 4632 0747 AD030000 		.4byte	0x3ad
 4633 074b E4010000 		.4byte	.LBB106
 4634 074f 28020000 		.4byte	.LBE106
 4635 0753 01       		.byte	0x1
 4636 0754 B5       		.byte	0xb5
 4637 0755 1D       		.uleb128 0x1d
 4638 0756 BC030000 		.4byte	0x3bc
 4639 075a 46020000 		.4byte	.LLST9
 4640 075e 00       		.byte	0x0
 4641 075f 00       		.byte	0x0
 4642 0760 1E       		.uleb128 0x1e
 4643 0761 4E040000 		.4byte	0x44e
 4644 0765 30020000 		.4byte	.LFB7
 4645 0769 74020000 		.4byte	.LFE7
 4646 076d 02       		.byte	0x2
 4647 076e 7D       		.byte	0x7d
 4648 076f 00       		.sleb128 0
 4649 0770 DD070000 		.4byte	0x7dd
 4650 0774 1D       		.uleb128 0x1d
 4651 0775 5C040000 		.4byte	0x45c
 4652 0779 B4020000 		.4byte	.LLST10
 4653 077d 1D       		.uleb128 0x1d
 4654 077e 67040000 		.4byte	0x467
 4655 0782 C7020000 		.4byte	.LLST11
 4656 0786 19       		.uleb128 0x19
 4657 0787 72040000 		.4byte	0x472
 4658 078b 01       		.byte	0x1
 4659 078c 52       		.byte	0x52
 4660 078d 1D       		.uleb128 0x1d
 4661 078e 7D040000 		.4byte	0x47d
 4662 0792 DA020000 		.4byte	.LLST12
 4663 0796 21       		.uleb128 0x21
 4664 0797 F8030000 		.4byte	0x3f8
 4665 079b 30020000 		.4byte	.LBB108
 4666 079f 60020000 		.4byte	.LBE108
 4667 07a3 01       		.byte	0x1
 4668 07a4 E3       		.byte	0xe3
 4669 07a5 BC070000 		.4byte	0x7bc
ARM GAS  C:\DOCUME~1\ADMINI~1\LOCALS~1\Temp\cc1Hp51A.s 			page 109


 4670 07a9 1D       		.uleb128 0x1d
 4671 07aa 13040000 		.4byte	0x413
 4672 07ae ED020000 		.4byte	.LLST13
 4673 07b2 1D       		.uleb128 0x1d
 4674 07b3 07040000 		.4byte	0x407
 4675 07b7 00030000 		.4byte	.LLST14
 4676 07bb 00       		.byte	0x0
 4677 07bc 20       		.uleb128 0x20
 4678 07bd 20040000 		.4byte	0x420
 4679 07c1 60020000 		.4byte	.LBB110
 4680 07c5 70020000 		.4byte	.LBE110
 4681 07c9 01       		.byte	0x1
 4682 07ca E6       		.byte	0xe6
 4683 07cb 1D       		.uleb128 0x1d
 4684 07cc 3B040000 		.4byte	0x43b
 4685 07d0 13030000 		.4byte	.LLST15
 4686 07d4 19       		.uleb128 0x19
 4687 07d5 2F040000 		.4byte	0x42f
 4688 07d9 01       		.byte	0x1
 4689 07da 52       		.byte	0x52
 4690 07db 00       		.byte	0x0
 4691 07dc 00       		.byte	0x0
 4692 07dd 17       		.uleb128 0x17
 4693 07de 01       		.byte	0x1
 4694 07df 49020000 		.4byte	.LASF87
 4695 07e3 01       		.byte	0x1
 4696 07e4 EE       		.byte	0xee
 4697 07e5 01       		.byte	0x1
 4698 07e6 74020000 		.4byte	.LFB8
 4699 07ea 58030000 		.4byte	.LFE8
 4700 07ee 26030000 		.4byte	.LLST16
 4701 07f2 32090000 		.4byte	0x932
 4702 07f6 22       		.uleb128 0x22
 4703 07f7 EC050000 		.4byte	.LASF67
 4704 07fb 01       		.byte	0x1
 4705 07fc EE       		.byte	0xee
 4706 07fd C9030000 		.4byte	0x3c9
 4707 0801 01       		.byte	0x1
 4708 0802 50       		.byte	0x50
 4709 0803 23       		.uleb128 0x23
 4710 0804 3C020000 		.4byte	.LASF71
 4711 0808 01       		.byte	0x1
 4712 0809 F0       		.byte	0xf0
 4713 080a C9030000 		.4byte	0x3c9
 4714 080e 46030000 		.4byte	.LLST17
 4715 0812 24       		.uleb128 0x24
 4716 0813 C2000000 		.4byte	.LASF88
 4717 0817 01       		.byte	0x1
 4718 0818 F1       		.byte	0xf1
 4719 0819 C9030000 		.4byte	0x3c9
 4720 081d 01       		.byte	0x1
 4721 081e 53       		.byte	0x53
 4722 081f 23       		.uleb128 0x23
 4723 0820 F2040000 		.4byte	.LASF89
 4724 0824 01       		.byte	0x1
 4725 0825 F2       		.byte	0xf2
 4726 0826 2D050000 		.4byte	0x52d
ARM GAS  C:\DOCUME~1\ADMINI~1\LOCALS~1\Temp\cc1Hp51A.s 			page 110


 4727 082a 6F030000 		.4byte	.LLST18
 4728 082e 23       		.uleb128 0x23
 4729 082f A9040000 		.4byte	.LASF41
 4730 0833 01       		.byte	0x1
 4731 0834 F3       		.byte	0xf3
 4732 0835 3D000000 		.4byte	0x3d
 4733 0839 A3030000 		.4byte	.LLST19
 4734 083d 23       		.uleb128 0x23
 4735 083e CD050000 		.4byte	.LASF90
 4736 0842 01       		.byte	0x1
 4737 0843 F4       		.byte	0xf4
 4738 0844 3D000000 		.4byte	0x3d
 4739 0848 C5030000 		.4byte	.LLST20
 4740 084c 21       		.uleb128 0x21
 4741 084d D5040000 		.4byte	0x4d5
 4742 0851 74020000 		.4byte	.LBB112
 4743 0855 7C020000 		.4byte	.LBE112
 4744 0859 01       		.byte	0x1
 4745 085a F7       		.byte	0xf7
 4746 085b 6C080000 		.4byte	0x86c
 4747 085f 19       		.uleb128 0x19
 4748 0860 E8040000 		.4byte	0x4e8
 4749 0864 06       		.byte	0x6
 4750 0865 03       		.byte	0x3
 4751 0866 00000000 		.4byte	gstrDelayTab
 4752 086a 9F       		.byte	0x9f
 4753 086b 00       		.byte	0x0
 4754 086c 25       		.uleb128 0x25
 4755 086d ED050000 		.4byte	0x5ed
 4756 0871 B0020000 		.4byte	.LBB114
 4757 0875 60000000 		.4byte	.Ldebug_ranges0+0x60
 4758 0879 01       		.byte	0x1
 4759 087a 2B01     		.2byte	0x12b
 4760 087c 93080000 		.4byte	0x893
 4761 0880 1D       		.uleb128 0x1d
 4762 0881 0C060000 		.4byte	0x60c
 4763 0885 FD030000 		.4byte	.LLST21
 4764 0889 1D       		.uleb128 0x1d
 4765 088a 00060000 		.4byte	0x600
 4766 088e 1B040000 		.4byte	.LLST22
 4767 0892 00       		.byte	0x0
 4768 0893 26       		.uleb128 0x26
 4769 0894 F8030000 		.4byte	0x3f8
 4770 0898 EC020000 		.4byte	.LBB118
 4771 089c 04030000 		.4byte	.LBE118
 4772 08a0 01       		.byte	0x1
 4773 08a1 3001     		.2byte	0x130
 4774 08a3 BA080000 		.4byte	0x8ba
 4775 08a7 1D       		.uleb128 0x1d
 4776 08a8 13040000 		.4byte	0x413
 4777 08ac 43040000 		.4byte	.LLST23
 4778 08b0 1D       		.uleb128 0x1d
 4779 08b1 07040000 		.4byte	0x407
 4780 08b5 56040000 		.4byte	.LLST24
 4781 08b9 00       		.byte	0x0
 4782 08ba 26       		.uleb128 0x26
 4783 08bb B9050000 		.4byte	0x5b9
ARM GAS  C:\DOCUME~1\ADMINI~1\LOCALS~1\Temp\cc1Hp51A.s 			page 111


 4784 08bf 0C030000 		.4byte	.LBB120
 4785 08c3 3C030000 		.4byte	.LBE120
 4786 08c7 01       		.byte	0x1
 4787 08c8 2101     		.2byte	0x121
 4788 08ca 0D090000 		.4byte	0x90d
 4789 08ce 1D       		.uleb128 0x1d
 4790 08cf E0050000 		.4byte	0x5e0
 4791 08d3 6E040000 		.4byte	.LLST25
 4792 08d7 1D       		.uleb128 0x1d
 4793 08d8 D4050000 		.4byte	0x5d4
 4794 08dc 81040000 		.4byte	.LLST26
 4795 08e0 1D       		.uleb128 0x1d
 4796 08e1 C8050000 		.4byte	0x5c8
 4797 08e5 94040000 		.4byte	.LLST27
 4798 08e9 27       		.uleb128 0x27
 4799 08ea F8030000 		.4byte	0x3f8
 4800 08ee 14030000 		.4byte	.LBB122
 4801 08f2 78000000 		.4byte	.Ldebug_ranges0+0x78
 4802 08f6 01       		.byte	0x1
 4803 08f7 F703     		.2byte	0x3f7
 4804 08f9 1D       		.uleb128 0x1d
 4805 08fa 13040000 		.4byte	0x413
 4806 08fe AC040000 		.4byte	.LLST28
 4807 0902 1D       		.uleb128 0x1d
 4808 0903 07040000 		.4byte	0x407
 4809 0907 BF040000 		.4byte	.LLST29
 4810 090b 00       		.byte	0x0
 4811 090c 00       		.byte	0x0
 4812 090d 28       		.uleb128 0x28
 4813 090e F8030000 		.4byte	0x3f8
 4814 0912 3C030000 		.4byte	.LBB130
 4815 0916 58030000 		.4byte	.LBE130
 4816 091a 01       		.byte	0x1
 4817 091b 3C01     		.2byte	0x13c
 4818 091d 19       		.uleb128 0x19
 4819 091e 13040000 		.4byte	0x413
 4820 0922 01       		.byte	0x1
 4821 0923 50       		.byte	0x50
 4822 0924 19       		.uleb128 0x19
 4823 0925 07040000 		.4byte	0x407
 4824 0929 06       		.byte	0x6
 4825 092a 03       		.byte	0x3
 4826 092b 00000000 		.4byte	gstrDelayTab
 4827 092f 9F       		.byte	0x9f
 4828 0930 00       		.byte	0x0
 4829 0931 00       		.byte	0x0
 4830 0932 29       		.uleb128 0x29
 4831 0933 75050000 		.4byte	0x575
 4832 0937 58030000 		.4byte	.LFB9
 4833 093b B8030000 		.4byte	.LFE9
 4834 093f D7040000 		.4byte	.LLST30
 4835 0943 B6090000 		.4byte	0x9b6
 4836 0947 1D       		.uleb128 0x1d
 4837 0948 88050000 		.4byte	0x588
 4838 094c F7040000 		.4byte	.LLST31
 4839 0950 19       		.uleb128 0x19
 4840 0951 94050000 		.4byte	0x594
ARM GAS  C:\DOCUME~1\ADMINI~1\LOCALS~1\Temp\cc1Hp51A.s 			page 112


 4841 0955 01       		.byte	0x1
 4842 0956 51       		.byte	0x51
 4843 0957 1D       		.uleb128 0x1d
 4844 0958 A0050000 		.4byte	0x5a0
 4845 095c 15050000 		.4byte	.LLST32
 4846 0960 2A       		.uleb128 0x2a
 4847 0961 AC050000 		.4byte	0x5ac
 4848 0965 01       		.byte	0x1
 4849 0966 53       		.byte	0x53
 4850 0967 25       		.uleb128 0x25
 4851 0968 89040000 		.4byte	0x489
 4852 096c 58030000 		.4byte	.LBB132
 4853 0970 A0000000 		.4byte	.Ldebug_ranges0+0xa0
 4854 0974 01       		.byte	0x1
 4855 0975 4F01     		.2byte	0x14f
 4856 0977 94090000 		.4byte	0x994
 4857 097b 1D       		.uleb128 0x1d
 4858 097c 9C040000 		.4byte	0x49c
 4859 0980 33050000 		.4byte	.LLST33
 4860 0984 1A       		.uleb128 0x1a
 4861 0985 C8000000 		.4byte	.Ldebug_ranges0+0xc8
 4862 0989 1B       		.uleb128 0x1b
 4863 098a A8040000 		.4byte	0x4a8
 4864 098e 51050000 		.4byte	.LLST34
 4865 0992 00       		.byte	0x0
 4866 0993 00       		.byte	0x0
 4867 0994 28       		.uleb128 0x28
 4868 0995 4D050000 		.4byte	0x54d
 4869 0999 A4030000 		.4byte	.LBB140
 4870 099d B8030000 		.4byte	.LBE140
 4871 09a1 01       		.byte	0x1
 4872 09a2 5401     		.2byte	0x154
 4873 09a4 1D       		.uleb128 0x1d
 4874 09a5 68050000 		.4byte	0x568
 4875 09a9 70050000 		.4byte	.LLST35
 4876 09ad 19       		.uleb128 0x19
 4877 09ae 5C050000 		.4byte	0x55c
 4878 09b2 01       		.byte	0x1
 4879 09b3 51       		.byte	0x51
 4880 09b4 00       		.byte	0x0
 4881 09b5 00       		.byte	0x0
 4882 09b6 2B       		.uleb128 0x2b
 4883 09b7 01       		.byte	0x1
 4884 09b8 EF020000 		.4byte	.LASF91
 4885 09bc 01       		.byte	0x1
 4886 09bd 6101     		.2byte	0x161
 4887 09bf 01       		.byte	0x1
 4888 09c0 B8030000 		.4byte	.LFB10
 4889 09c4 54040000 		.4byte	.LFE10
 4890 09c8 83050000 		.4byte	.LLST36
 4891 09cc D00A0000 		.4byte	0xad0
 4892 09d0 2C       		.uleb128 0x2c
 4893 09d1 FE010000 		.4byte	.LASF31
 4894 09d5 01       		.byte	0x1
 4895 09d6 6101     		.2byte	0x161
 4896 09d8 7E030000 		.4byte	0x37e
 4897 09dc A3050000 		.4byte	.LLST37
ARM GAS  C:\DOCUME~1\ADMINI~1\LOCALS~1\Temp\cc1Hp51A.s 			page 113


 4898 09e0 2D       		.uleb128 0x2d
 4899 09e1 22060000 		.4byte	.LASF36
 4900 09e5 01       		.byte	0x1
 4901 09e6 6101     		.2byte	0x161
 4902 09e8 67030000 		.4byte	0x367
 4903 09ec 01       		.byte	0x1
 4904 09ed 51       		.byte	0x51
 4905 09ee 2E       		.uleb128 0x2e
 4906 09ef 42040000 		.4byte	.LASF64
 4907 09f3 01       		.byte	0x1
 4908 09f4 6301     		.2byte	0x163
 4909 09f6 C9030000 		.4byte	0x3c9
 4910 09fa C1050000 		.4byte	.LLST38
 4911 09fe 2E       		.uleb128 0x2e
 4912 09ff EC050000 		.4byte	.LASF67
 4913 0a03 01       		.byte	0x1
 4914 0a04 6401     		.2byte	0x164
 4915 0a06 C9030000 		.4byte	0x3c9
 4916 0a0a E1050000 		.4byte	.LLST39
 4917 0a0e 2F       		.uleb128 0x2f
 4918 0a0f 00060000 		.4byte	.LASF69
 4919 0a13 01       		.byte	0x1
 4920 0a14 6501     		.2byte	0x165
 4921 0a16 48040000 		.4byte	0x448
 4922 0a1a 04       		.byte	0x4
 4923 0a1b 71       		.byte	0x71
 4924 0a1c C000     		.sleb128 64
 4925 0a1e 9F       		.byte	0x9f
 4926 0a1f 2F       		.uleb128 0x2f
 4927 0a20 29000000 		.4byte	.LASF39
 4928 0a24 01       		.byte	0x1
 4929 0a25 6601     		.2byte	0x166
 4930 0a27 25000000 		.4byte	0x25
 4931 0a2b 01       		.byte	0x1
 4932 0a2c 53       		.byte	0x53
 4933 0a2d 25       		.uleb128 0x25
 4934 0a2e F8030000 		.4byte	0x3f8
 4935 0a32 CC030000 		.4byte	.LBB142
 4936 0a36 F0000000 		.4byte	.Ldebug_ranges0+0xf0
 4937 0a3a 01       		.byte	0x1
 4938 0a3b 7B01     		.2byte	0x17b
 4939 0a3d 540A0000 		.4byte	0xa54
 4940 0a41 1D       		.uleb128 0x1d
 4941 0a42 13040000 		.4byte	0x413
 4942 0a46 FF050000 		.4byte	.LLST40
 4943 0a4a 1D       		.uleb128 0x1d
 4944 0a4b 07040000 		.4byte	0x407
 4945 0a4f 12060000 		.4byte	.LLST41
 4946 0a53 00       		.byte	0x0
 4947 0a54 27       		.uleb128 0x27
 4948 0a55 4E040000 		.4byte	0x44e
 4949 0a59 10040000 		.4byte	.LBB146
 4950 0a5d 08010000 		.4byte	.Ldebug_ranges0+0x108
 4951 0a61 01       		.byte	0x1
 4952 0a62 7201     		.2byte	0x172
 4953 0a64 19       		.uleb128 0x19
 4954 0a65 7D040000 		.4byte	0x47d
ARM GAS  C:\DOCUME~1\ADMINI~1\LOCALS~1\Temp\cc1Hp51A.s 			page 114


 4955 0a69 01       		.byte	0x1
 4956 0a6a 53       		.byte	0x53
 4957 0a6b 19       		.uleb128 0x19
 4958 0a6c 72040000 		.4byte	0x472
 4959 0a70 04       		.byte	0x4
 4960 0a71 71       		.byte	0x71
 4961 0a72 C000     		.sleb128 64
 4962 0a74 9F       		.byte	0x9f
 4963 0a75 1D       		.uleb128 0x1d
 4964 0a76 67040000 		.4byte	0x467
 4965 0a7a 27060000 		.4byte	.LLST42
 4966 0a7e 1D       		.uleb128 0x1d
 4967 0a7f 5C040000 		.4byte	0x45c
 4968 0a83 3A060000 		.4byte	.LLST43
 4969 0a87 18       		.uleb128 0x18
 4970 0a88 F8030000 		.4byte	0x3f8
 4971 0a8c 10040000 		.4byte	.LBB147
 4972 0a90 20010000 		.4byte	.Ldebug_ranges0+0x120
 4973 0a94 01       		.byte	0x1
 4974 0a95 E3       		.byte	0xe3
 4975 0a96 AD0A0000 		.4byte	0xaad
 4976 0a9a 1D       		.uleb128 0x1d
 4977 0a9b 13040000 		.4byte	0x413
 4978 0a9f 4D060000 		.4byte	.LLST44
 4979 0aa3 1D       		.uleb128 0x1d
 4980 0aa4 07040000 		.4byte	0x407
 4981 0aa8 60060000 		.4byte	.LLST45
 4982 0aac 00       		.byte	0x0
 4983 0aad 1C       		.uleb128 0x1c
 4984 0aae 20040000 		.4byte	0x420
 4985 0ab2 38040000 		.4byte	.LBB152
 4986 0ab6 40010000 		.4byte	.Ldebug_ranges0+0x140
 4987 0aba 01       		.byte	0x1
 4988 0abb E6       		.byte	0xe6
 4989 0abc 19       		.uleb128 0x19
 4990 0abd 3B040000 		.4byte	0x43b
 4991 0ac1 01       		.byte	0x1
 4992 0ac2 53       		.byte	0x53
 4993 0ac3 19       		.uleb128 0x19
 4994 0ac4 2F040000 		.4byte	0x42f
 4995 0ac8 04       		.byte	0x4
 4996 0ac9 71       		.byte	0x71
 4997 0aca C000     		.sleb128 64
 4998 0acc 9F       		.byte	0x9f
 4999 0acd 00       		.byte	0x0
 5000 0ace 00       		.byte	0x0
 5001 0acf 00       		.byte	0x0
 5002 0ad0 30       		.uleb128 0x30
 5003 0ad1 01       		.byte	0x1
 5004 0ad2 02010000 		.4byte	.LASF93
 5005 0ad6 01       		.byte	0x1
 5006 0ad7 8401     		.2byte	0x184
 5007 0ad9 01       		.byte	0x1
 5008 0ada C9030000 		.4byte	0x3c9
 5009 0ade 54040000 		.4byte	.LFB11
 5010 0ae2 04050000 		.4byte	.LFE11
 5011 0ae6 73060000 		.4byte	.LLST46
ARM GAS  C:\DOCUME~1\ADMINI~1\LOCALS~1\Temp\cc1Hp51A.s 			page 115


 5012 0aea 070C0000 		.4byte	0xc07
 5013 0aee 2C       		.uleb128 0x2c
 5014 0aef FE010000 		.4byte	.LASF31
 5015 0af3 01       		.byte	0x1
 5016 0af4 8401     		.2byte	0x184
 5017 0af6 7E030000 		.4byte	0x37e
 5018 0afa 93060000 		.4byte	.LLST47
 5019 0afe 2E       		.uleb128 0x2e
 5020 0aff 22060000 		.4byte	.LASF36
 5021 0b03 01       		.byte	0x1
 5022 0b04 8601     		.2byte	0x186
 5023 0b06 67030000 		.4byte	0x367
 5024 0b0a B1060000 		.4byte	.LLST48
 5025 0b0e 2E       		.uleb128 0x2e
 5026 0b0f 42040000 		.4byte	.LASF64
 5027 0b13 01       		.byte	0x1
 5028 0b14 8701     		.2byte	0x187
 5029 0b16 C9030000 		.4byte	0x3c9
 5030 0b1a DC060000 		.4byte	.LLST49
 5031 0b1e 2F       		.uleb128 0x2f
 5032 0b1f 00060000 		.4byte	.LASF69
 5033 0b23 01       		.byte	0x1
 5034 0b24 8801     		.2byte	0x188
 5035 0b26 48040000 		.4byte	0x448
 5036 0b2a 04       		.byte	0x4
 5037 0b2b 73       		.byte	0x73
 5038 0b2c C000     		.sleb128 64
 5039 0b2e 9F       		.byte	0x9f
 5040 0b2f 2F       		.uleb128 0x2f
 5041 0b30 29000000 		.4byte	.LASF39
 5042 0b34 01       		.byte	0x1
 5043 0b35 8901     		.2byte	0x189
 5044 0b37 25000000 		.4byte	0x25
 5045 0b3b 01       		.byte	0x1
 5046 0b3c 51       		.byte	0x51
 5047 0b3d 25       		.uleb128 0x25
 5048 0b3e 89040000 		.4byte	0x489
 5049 0b42 6C040000 		.4byte	.LBB158
 5050 0b46 58010000 		.4byte	.Ldebug_ranges0+0x158
 5051 0b4a 01       		.byte	0x1
 5052 0b4b 9F01     		.2byte	0x19f
 5053 0b4d 6A0B0000 		.4byte	0xb6a
 5054 0b51 1D       		.uleb128 0x1d
 5055 0b52 9C040000 		.4byte	0x49c
 5056 0b56 14070000 		.4byte	.LLST50
 5057 0b5a 1A       		.uleb128 0x1a
 5058 0b5b 70010000 		.4byte	.Ldebug_ranges0+0x170
 5059 0b5f 1B       		.uleb128 0x1b
 5060 0b60 A8040000 		.4byte	0x4a8
 5061 0b64 3A070000 		.4byte	.LLST51
 5062 0b68 00       		.byte	0x0
 5063 0b69 00       		.byte	0x0
 5064 0b6a 28       		.uleb128 0x28
 5065 0b6b 75050000 		.4byte	0x575
 5066 0b6f AC040000 		.4byte	.LBB162
 5067 0b73 04050000 		.4byte	.LBE162
 5068 0b77 01       		.byte	0x1
ARM GAS  C:\DOCUME~1\ADMINI~1\LOCALS~1\Temp\cc1Hp51A.s 			page 116


 5069 0b78 9701     		.2byte	0x197
 5070 0b7a 19       		.uleb128 0x19
 5071 0b7b A0050000 		.4byte	0x5a0
 5072 0b7f 01       		.byte	0x1
 5073 0b80 51       		.byte	0x51
 5074 0b81 19       		.uleb128 0x19
 5075 0b82 94050000 		.4byte	0x594
 5076 0b86 04       		.byte	0x4
 5077 0b87 73       		.byte	0x73
 5078 0b88 C000     		.sleb128 64
 5079 0b8a 9F       		.byte	0x9f
 5080 0b8b 19       		.uleb128 0x19
 5081 0b8c 88050000 		.4byte	0x588
 5082 0b90 08       		.byte	0x8
 5083 0b91 71       		.byte	0x71
 5084 0b92 00       		.sleb128 0
 5085 0b93 33       		.byte	0x33
 5086 0b94 24       		.byte	0x24
 5087 0b95 73       		.byte	0x73
 5088 0b96 00       		.sleb128 0
 5089 0b97 22       		.byte	0x22
 5090 0b98 9F       		.byte	0x9f
 5091 0b99 31       		.uleb128 0x31
 5092 0b9a AC040000 		.4byte	.LBB163
 5093 0b9e 04050000 		.4byte	.LBE163
 5094 0ba2 2A       		.uleb128 0x2a
 5095 0ba3 AC050000 		.4byte	0x5ac
 5096 0ba7 01       		.byte	0x1
 5097 0ba8 50       		.byte	0x50
 5098 0ba9 25       		.uleb128 0x25
 5099 0baa 89040000 		.4byte	0x489
 5100 0bae AC040000 		.4byte	.LBB164
 5101 0bb2 88010000 		.4byte	.Ldebug_ranges0+0x188
 5102 0bb6 01       		.byte	0x1
 5103 0bb7 4F01     		.2byte	0x14f
 5104 0bb9 E10B0000 		.4byte	0xbe1
 5105 0bbd 19       		.uleb128 0x19
 5106 0bbe 9C040000 		.4byte	0x49c
 5107 0bc2 08       		.byte	0x8
 5108 0bc3 71       		.byte	0x71
 5109 0bc4 00       		.sleb128 0
 5110 0bc5 33       		.byte	0x33
 5111 0bc6 24       		.byte	0x24
 5112 0bc7 73       		.byte	0x73
 5113 0bc8 00       		.sleb128 0
 5114 0bc9 22       		.byte	0x22
 5115 0bca 9F       		.byte	0x9f
 5116 0bcb 1A       		.uleb128 0x1a
 5117 0bcc A8010000 		.4byte	.Ldebug_ranges0+0x1a8
 5118 0bd0 2A       		.uleb128 0x2a
 5119 0bd1 A8040000 		.4byte	0x4a8
 5120 0bd5 09       		.byte	0x9
 5121 0bd6 71       		.byte	0x71
 5122 0bd7 00       		.sleb128 0
 5123 0bd8 33       		.byte	0x33
 5124 0bd9 24       		.byte	0x24
 5125 0bda 73       		.byte	0x73
ARM GAS  C:\DOCUME~1\ADMINI~1\LOCALS~1\Temp\cc1Hp51A.s 			page 117


 5126 0bdb 00       		.sleb128 0
 5127 0bdc 22       		.byte	0x22
 5128 0bdd 23       		.byte	0x23
 5129 0bde 04       		.uleb128 0x4
 5130 0bdf 00       		.byte	0x0
 5131 0be0 00       		.byte	0x0
 5132 0be1 28       		.uleb128 0x28
 5133 0be2 4D050000 		.4byte	0x54d
 5134 0be6 E0040000 		.4byte	.LBB169
 5135 0bea F4040000 		.4byte	.LBE169
 5136 0bee 01       		.byte	0x1
 5137 0bef 5401     		.2byte	0x154
 5138 0bf1 1D       		.uleb128 0x1d
 5139 0bf2 68050000 		.4byte	0x568
 5140 0bf6 59070000 		.4byte	.LLST52
 5141 0bfa 1D       		.uleb128 0x1d
 5142 0bfb 5C050000 		.4byte	0x55c
 5143 0bff 6C070000 		.4byte	.LLST53
 5144 0c03 00       		.byte	0x0
 5145 0c04 00       		.byte	0x0
 5146 0c05 00       		.byte	0x0
 5147 0c06 00       		.byte	0x0
 5148 0c07 32       		.uleb128 0x32
 5149 0c08 01       		.byte	0x1
 5150 0c09 67010000 		.4byte	.LASF94
 5151 0c0d 01       		.byte	0x1
 5152 0c0e A801     		.2byte	0x1a8
 5153 0c10 01       		.byte	0x1
 5154 0c11 7E030000 		.4byte	0x37e
 5155 0c15 04050000 		.4byte	.LFB12
 5156 0c19 38050000 		.4byte	.LFE12
 5157 0c1d 02       		.byte	0x2
 5158 0c1e 7D       		.byte	0x7d
 5159 0c1f 00       		.sleb128 0
 5160 0c20 970C0000 		.4byte	0xc97
 5161 0c24 2C       		.uleb128 0x2c
 5162 0c25 22060000 		.4byte	.LASF36
 5163 0c29 01       		.byte	0x1
 5164 0c2a A801     		.2byte	0x1a8
 5165 0c2c 67030000 		.4byte	0x367
 5166 0c30 82070000 		.4byte	.LLST54
 5167 0c34 2F       		.uleb128 0x2f
 5168 0c35 EC050000 		.4byte	.LASF67
 5169 0c39 01       		.byte	0x1
 5170 0c3a AA01     		.2byte	0x1aa
 5171 0c3c C9030000 		.4byte	0x3c9
 5172 0c40 01       		.byte	0x1
 5173 0c41 50       		.byte	0x50
 5174 0c42 2E       		.uleb128 0x2e
 5175 0c43 D3040000 		.4byte	.LASF76
 5176 0c47 01       		.byte	0x1
 5177 0c48 AB01     		.2byte	0x1ab
 5178 0c4a 2D050000 		.4byte	0x52d
 5179 0c4e 95070000 		.4byte	.LLST55
 5180 0c52 14       		.uleb128 0x14
 5181 0c53 29000000 		.4byte	.LASF39
 5182 0c57 01       		.byte	0x1
ARM GAS  C:\DOCUME~1\ADMINI~1\LOCALS~1\Temp\cc1Hp51A.s 			page 118


 5183 0c58 AC01     		.2byte	0x1ac
 5184 0c5a 25000000 		.4byte	0x25
 5185 0c5e 26       		.uleb128 0x26
 5186 0c5f B5040000 		.4byte	0x4b5
 5187 0c63 10050000 		.4byte	.LBB172
 5188 0c67 14050000 		.4byte	.LBE172
 5189 0c6b 01       		.byte	0x1
 5190 0c6c B201     		.2byte	0x1b2
 5191 0c6e 7C0C0000 		.4byte	0xc7c
 5192 0c72 1D       		.uleb128 0x1d
 5193 0c73 C8040000 		.4byte	0x4c8
 5194 0c77 A8070000 		.4byte	.LLST56
 5195 0c7b 00       		.byte	0x0
 5196 0c7c 28       		.uleb128 0x28
 5197 0c7d D5040000 		.4byte	0x4d5
 5198 0c81 20050000 		.4byte	.LBB174
 5199 0c85 28050000 		.4byte	.LBE174
 5200 0c89 01       		.byte	0x1
 5201 0c8a BA01     		.2byte	0x1ba
 5202 0c8c 1D       		.uleb128 0x1d
 5203 0c8d E8040000 		.4byte	0x4e8
 5204 0c91 BE070000 		.4byte	.LLST57
 5205 0c95 00       		.byte	0x0
 5206 0c96 00       		.byte	0x0
 5207 0c97 2B       		.uleb128 0x2b
 5208 0c98 01       		.byte	0x1
 5209 0c99 29050000 		.4byte	.LASF95
 5210 0c9d 01       		.byte	0x1
 5211 0c9e EF01     		.2byte	0x1ef
 5212 0ca0 01       		.byte	0x1
 5213 0ca1 38050000 		.4byte	.LFB14
 5214 0ca5 D4050000 		.4byte	.LFE14
 5215 0ca9 E3070000 		.4byte	.LLST58
 5216 0cad 3F0D0000 		.4byte	0xd3f
 5217 0cb1 2F       		.uleb128 0x2f
 5218 0cb2 FE010000 		.4byte	.LASF31
 5219 0cb6 01       		.byte	0x1
 5220 0cb7 F101     		.2byte	0x1f1
 5221 0cb9 7E030000 		.4byte	0x37e
 5222 0cbd 01       		.byte	0x1
 5223 0cbe 54       		.byte	0x54
 5224 0cbf 25       		.uleb128 0x25
 5225 0cc0 F5040000 		.4byte	0x4f5
 5226 0cc4 40050000 		.4byte	.LBB176
 5227 0cc8 C8010000 		.4byte	.Ldebug_ranges0+0x1c8
 5228 0ccc 01       		.byte	0x1
 5229 0ccd F401     		.2byte	0x1f4
 5230 0ccf 240D0000 		.4byte	0xd24
 5231 0cd3 1A       		.uleb128 0x1a
 5232 0cd4 F8010000 		.4byte	.Ldebug_ranges0+0x1f8
 5233 0cd8 1B       		.uleb128 0x1b
 5234 0cd9 08050000 		.4byte	0x508
 5235 0cdd 0F080000 		.4byte	.LLST59
 5236 0ce1 33       		.uleb128 0x33
 5237 0ce2 14050000 		.4byte	0x514
 5238 0ce6 33       		.uleb128 0x33
 5239 0ce7 20050000 		.4byte	0x520
ARM GAS  C:\DOCUME~1\ADMINI~1\LOCALS~1\Temp\cc1Hp51A.s 			page 119


 5240 0ceb 26       		.uleb128 0x26
 5241 0cec B5040000 		.4byte	0x4b5
 5242 0cf0 4C050000 		.4byte	.LBB181
 5243 0cf4 50050000 		.4byte	.LBE181
 5244 0cf8 01       		.byte	0x1
 5245 0cf9 1402     		.2byte	0x214
 5246 0cfb 0C0D0000 		.4byte	0xd0c
 5247 0cff 19       		.uleb128 0x19
 5248 0d00 C8040000 		.4byte	0x4c8
 5249 0d04 06       		.byte	0x6
 5250 0d05 03       		.byte	0x3
 5251 0d06 40000000 		.4byte	gstrReadyTab+64
 5252 0d0a 9F       		.byte	0x9f
 5253 0d0b 00       		.byte	0x0
 5254 0d0c 27       		.uleb128 0x27
 5255 0d0d D5040000 		.4byte	0x4d5
 5256 0d11 40050000 		.4byte	.LBB183
 5257 0d15 28020000 		.4byte	.Ldebug_ranges0+0x228
 5258 0d19 01       		.byte	0x1
 5259 0d1a 1502     		.2byte	0x215
 5260 0d1c 34       		.uleb128 0x34
 5261 0d1d E8040000 		.4byte	0x4e8
 5262 0d21 00       		.byte	0x0
 5263 0d22 00       		.byte	0x0
 5264 0d23 00       		.byte	0x0
 5265 0d24 28       		.uleb128 0x28
 5266 0d25 33050000 		.4byte	0x533
 5267 0d29 90050000 		.4byte	.LBB192
 5268 0d2d A4050000 		.4byte	.LBE192
 5269 0d31 01       		.byte	0x1
 5270 0d32 0502     		.2byte	0x205
 5271 0d34 1D       		.uleb128 0x1d
 5272 0d35 41050000 		.4byte	0x541
 5273 0d39 3D080000 		.4byte	.LLST60
 5274 0d3d 00       		.byte	0x0
 5275 0d3e 00       		.byte	0x0
 5276 0d3f 1E       		.uleb128 0x1e
 5277 0d40 F5040000 		.4byte	0x4f5
 5278 0d44 D4050000 		.4byte	.LFB15
 5279 0d48 FC050000 		.4byte	.LFE15
 5280 0d4c 02       		.byte	0x2
 5281 0d4d 7D       		.byte	0x7d
 5282 0d4e 00       		.sleb128 0
 5283 0d4f 9A0D0000 		.4byte	0xd9a
 5284 0d53 33       		.uleb128 0x33
 5285 0d54 08050000 		.4byte	0x508
 5286 0d58 33       		.uleb128 0x33
 5287 0d59 14050000 		.4byte	0x514
 5288 0d5d 33       		.uleb128 0x33
 5289 0d5e 20050000 		.4byte	0x520
 5290 0d62 25       		.uleb128 0x25
 5291 0d63 D5040000 		.4byte	0x4d5
 5292 0d67 D4050000 		.4byte	.LBB194
 5293 0d6b 40020000 		.4byte	.Ldebug_ranges0+0x240
 5294 0d6f 01       		.byte	0x1
 5295 0d70 1502     		.2byte	0x215
 5296 0d72 7C0D0000 		.4byte	0xd7c
ARM GAS  C:\DOCUME~1\ADMINI~1\LOCALS~1\Temp\cc1Hp51A.s 			page 120


 5297 0d76 34       		.uleb128 0x34
 5298 0d77 E8040000 		.4byte	0x4e8
 5299 0d7b 00       		.byte	0x0
 5300 0d7c 28       		.uleb128 0x28
 5301 0d7d B5040000 		.4byte	0x4b5
 5302 0d81 DC050000 		.4byte	.LBB197
 5303 0d85 E0050000 		.4byte	.LBE197
 5304 0d89 01       		.byte	0x1
 5305 0d8a 1402     		.2byte	0x214
 5306 0d8c 19       		.uleb128 0x19
 5307 0d8d C8040000 		.4byte	0x4c8
 5308 0d91 06       		.byte	0x6
 5309 0d92 03       		.byte	0x3
 5310 0d93 40000000 		.4byte	gstrReadyTab+64
 5311 0d97 9F       		.byte	0x9f
 5312 0d98 00       		.byte	0x0
 5313 0d99 00       		.byte	0x0
 5314 0d9a 1E       		.uleb128 0x1e
 5315 0d9b 20040000 		.4byte	0x420
 5316 0d9f FC050000 		.4byte	.LFB17
 5317 0da3 10060000 		.4byte	.LFE17
 5318 0da7 02       		.byte	0x2
 5319 0da8 7D       		.byte	0x7d
 5320 0da9 00       		.sleb128 0
 5321 0daa BD0D0000 		.4byte	0xdbd
 5322 0dae 19       		.uleb128 0x19
 5323 0daf 2F040000 		.4byte	0x42f
 5324 0db3 01       		.byte	0x1
 5325 0db4 50       		.byte	0x50
 5326 0db5 19       		.uleb128 0x19
 5327 0db6 3B040000 		.4byte	0x43b
 5328 0dba 01       		.byte	0x1
 5329 0dbb 51       		.byte	0x51
 5330 0dbc 00       		.byte	0x0
 5331 0dbd 1E       		.uleb128 0x1e
 5332 0dbe 4D050000 		.4byte	0x54d
 5333 0dc2 10060000 		.4byte	.LFB18
 5334 0dc6 24060000 		.4byte	.LFE18
 5335 0dca 02       		.byte	0x2
 5336 0dcb 7D       		.byte	0x7d
 5337 0dcc 00       		.sleb128 0
 5338 0dcd E00D0000 		.4byte	0xde0
 5339 0dd1 19       		.uleb128 0x19
 5340 0dd2 5C050000 		.4byte	0x55c
 5341 0dd6 01       		.byte	0x1
 5342 0dd7 50       		.byte	0x50
 5343 0dd8 19       		.uleb128 0x19
 5344 0dd9 68050000 		.4byte	0x568
 5345 0ddd 01       		.byte	0x1
 5346 0dde 51       		.byte	0x51
 5347 0ddf 00       		.byte	0x0
 5348 0de0 1E       		.uleb128 0x1e
 5349 0de1 B5040000 		.4byte	0x4b5
 5350 0de5 24060000 		.4byte	.LFB19
 5351 0de9 38060000 		.4byte	.LFE19
 5352 0ded 02       		.byte	0x2
 5353 0dee 7D       		.byte	0x7d
ARM GAS  C:\DOCUME~1\ADMINI~1\LOCALS~1\Temp\cc1Hp51A.s 			page 121


 5354 0def 00       		.sleb128 0
 5355 0df0 FE0D0000 		.4byte	0xdfe
 5356 0df4 1D       		.uleb128 0x1d
 5357 0df5 C8040000 		.4byte	0x4c8
 5358 0df9 50080000 		.4byte	.LLST61
 5359 0dfd 00       		.byte	0x0
 5360 0dfe 35       		.uleb128 0x35
 5361 0dff 01       		.byte	0x1
 5362 0e00 18020000 		.4byte	.LASF97
 5363 0e04 01       		.byte	0x1
 5364 0e05 2003     		.2byte	0x320
 5365 0e07 01       		.byte	0x1
 5366 0e08 3D000000 		.4byte	0x3d
 5367 0e0c 38060000 		.4byte	.LFB20
 5368 0e10 48060000 		.4byte	.LFE20
 5369 0e14 02       		.byte	0x2
 5370 0e15 7D       		.byte	0x7d
 5371 0e16 00       		.sleb128 0
 5372 0e17 35       		.uleb128 0x35
 5373 0e18 01       		.byte	0x1
 5374 0e19 C1040000 		.4byte	.LASF98
 5375 0e1d 01       		.byte	0x1
 5376 0e1e 2A03     		.2byte	0x32a
 5377 0e20 01       		.byte	0x1
 5378 0e21 7E030000 		.4byte	0x37e
 5379 0e25 48060000 		.4byte	.LFB21
 5380 0e29 58060000 		.4byte	.LFE21
 5381 0e2d 02       		.byte	0x2
 5382 0e2e 7D       		.byte	0x7d
 5383 0e2f 00       		.sleb128 0
 5384 0e30 36       		.uleb128 0x36
 5385 0e31 01       		.byte	0x1
 5386 0e32 96020000 		.4byte	.LASF99
 5387 0e36 01       		.byte	0x1
 5388 0e37 3603     		.2byte	0x336
 5389 0e39 01       		.byte	0x1
 5390 0e3a 3D000000 		.4byte	0x3d
 5391 0e3e 58060000 		.4byte	.LFB22
 5392 0e42 D8060000 		.4byte	.LFE22
 5393 0e46 63080000 		.4byte	.LLST62
 5394 0e4a 36       		.uleb128 0x36
 5395 0e4b 01       		.byte	0x1
 5396 0e4c 70030000 		.4byte	.LASF100
 5397 0e50 01       		.byte	0x1
 5398 0e51 6103     		.2byte	0x361
 5399 0e53 01       		.byte	0x1
 5400 0e54 3D000000 		.4byte	0x3d
 5401 0e58 D8060000 		.4byte	.LFB23
 5402 0e5c 54070000 		.4byte	.LFE23
 5403 0e60 8F080000 		.4byte	.LLST63
 5404 0e64 1E       		.uleb128 0x1e
 5405 0e65 AD030000 		.4byte	0x3ad
 5406 0e69 54070000 		.4byte	.LFB24
 5407 0e6d 64070000 		.4byte	.LFE24
 5408 0e71 02       		.byte	0x2
 5409 0e72 7D       		.byte	0x7d
 5410 0e73 00       		.sleb128 0
ARM GAS  C:\DOCUME~1\ADMINI~1\LOCALS~1\Temp\cc1Hp51A.s 			page 122


 5411 0e74 800E0000 		.4byte	0xe80
 5412 0e78 19       		.uleb128 0x19
 5413 0e79 BC030000 		.4byte	0x3bc
 5414 0e7d 01       		.byte	0x1
 5415 0e7e 50       		.byte	0x50
 5416 0e7f 00       		.byte	0x0
 5417 0e80 1E       		.uleb128 0x1e
 5418 0e81 F8030000 		.4byte	0x3f8
 5419 0e85 64070000 		.4byte	.LFB25
 5420 0e89 98070000 		.4byte	.LFE25
 5421 0e8d 02       		.byte	0x2
 5422 0e8e 7D       		.byte	0x7d
 5423 0e8f 00       		.sleb128 0
 5424 0e90 A30E0000 		.4byte	0xea3
 5425 0e94 19       		.uleb128 0x19
 5426 0e95 07040000 		.4byte	0x407
 5427 0e99 01       		.byte	0x1
 5428 0e9a 50       		.byte	0x50
 5429 0e9b 19       		.uleb128 0x19
 5430 0e9c 13040000 		.4byte	0x413
 5431 0ea0 01       		.byte	0x1
 5432 0ea1 51       		.byte	0x51
 5433 0ea2 00       		.byte	0x0
 5434 0ea3 1E       		.uleb128 0x1e
 5435 0ea4 89040000 		.4byte	0x489
 5436 0ea8 98070000 		.4byte	.LFB26
 5437 0eac D0070000 		.4byte	.LFE26
 5438 0eb0 02       		.byte	0x2
 5439 0eb1 7D       		.byte	0x7d
 5440 0eb2 00       		.sleb128 0
 5441 0eb3 CA0E0000 		.4byte	0xeca
 5442 0eb7 1D       		.uleb128 0x1d
 5443 0eb8 9C040000 		.4byte	0x49c
 5444 0ebc BB080000 		.4byte	.LLST64
 5445 0ec0 1B       		.uleb128 0x1b
 5446 0ec1 A8040000 		.4byte	0x4a8
 5447 0ec5 D9080000 		.4byte	.LLST65
 5448 0ec9 00       		.byte	0x0
 5449 0eca 1E       		.uleb128 0x1e
 5450 0ecb B9050000 		.4byte	0x5b9
 5451 0ecf D0070000 		.4byte	.LFB27
 5452 0ed3 24080000 		.4byte	.LFE27
 5453 0ed7 02       		.byte	0x2
 5454 0ed8 7D       		.byte	0x7d
 5455 0ed9 00       		.sleb128 0
 5456 0eda 150F0000 		.4byte	0xf15
 5457 0ede 19       		.uleb128 0x19
 5458 0edf C8050000 		.4byte	0x5c8
 5459 0ee3 01       		.byte	0x1
 5460 0ee4 50       		.byte	0x50
 5461 0ee5 1D       		.uleb128 0x1d
 5462 0ee6 D4050000 		.4byte	0x5d4
 5463 0eea F8080000 		.4byte	.LLST66
 5464 0eee 19       		.uleb128 0x19
 5465 0eef E0050000 		.4byte	0x5e0
 5466 0ef3 01       		.byte	0x1
 5467 0ef4 52       		.byte	0x52
ARM GAS  C:\DOCUME~1\ADMINI~1\LOCALS~1\Temp\cc1Hp51A.s 			page 123


 5468 0ef5 28       		.uleb128 0x28
 5469 0ef6 F8030000 		.4byte	0x3f8
 5470 0efa F0070000 		.4byte	.LBB200
 5471 0efe 24080000 		.4byte	.LBE200
 5472 0f02 01       		.byte	0x1
 5473 0f03 F703     		.2byte	0x3f7
 5474 0f05 19       		.uleb128 0x19
 5475 0f06 13040000 		.4byte	0x413
 5476 0f0a 01       		.byte	0x1
 5477 0f0b 52       		.byte	0x52
 5478 0f0c 19       		.uleb128 0x19
 5479 0f0d 07040000 		.4byte	0x407
 5480 0f11 01       		.byte	0x1
 5481 0f12 50       		.byte	0x50
 5482 0f13 00       		.byte	0x0
 5483 0f14 00       		.byte	0x0
 5484 0f15 32       		.uleb128 0x32
 5485 0f16 01       		.byte	0x1
 5486 0f17 A2050000 		.4byte	.LASF101
 5487 0f1b 01       		.byte	0x1
 5488 0f1c 0104     		.2byte	0x401
 5489 0f1e 01       		.byte	0x1
 5490 0f1f C9030000 		.4byte	0x3c9
 5491 0f23 24080000 		.4byte	.LFB28
 5492 0f27 98080000 		.4byte	.LFE28
 5493 0f2b 02       		.byte	0x2
 5494 0f2c 7D       		.byte	0x7d
 5495 0f2d 00       		.sleb128 0
 5496 0f2e 7E0F0000 		.4byte	0xf7e
 5497 0f32 2C       		.uleb128 0x2c
 5498 0f33 42040000 		.4byte	.LASF64
 5499 0f37 01       		.byte	0x1
 5500 0f38 0104     		.2byte	0x401
 5501 0f3a C9030000 		.4byte	0x3c9
 5502 0f3e 0B090000 		.4byte	.LLST67
 5503 0f42 2D       		.uleb128 0x2d
 5504 0f43 EC050000 		.4byte	.LASF67
 5505 0f47 01       		.byte	0x1
 5506 0f48 0104     		.2byte	0x401
 5507 0f4a C9030000 		.4byte	0x3c9
 5508 0f4e 01       		.byte	0x1
 5509 0f4f 51       		.byte	0x51
 5510 0f50 28       		.uleb128 0x28
 5511 0f51 89040000 		.4byte	0x489
 5512 0f55 58080000 		.4byte	.LBB202
 5513 0f59 90080000 		.4byte	.LBE202
 5514 0f5d 01       		.byte	0x1
 5515 0f5e 1404     		.2byte	0x414
 5516 0f60 1D       		.uleb128 0x1d
 5517 0f61 9C040000 		.4byte	0x49c
 5518 0f65 34090000 		.4byte	.LLST68
 5519 0f69 31       		.uleb128 0x31
 5520 0f6a 58080000 		.4byte	.LBB203
 5521 0f6e 90080000 		.4byte	.LBE203
 5522 0f72 1B       		.uleb128 0x1b
 5523 0f73 A8040000 		.4byte	0x4a8
 5524 0f77 48090000 		.4byte	.LLST69
ARM GAS  C:\DOCUME~1\ADMINI~1\LOCALS~1\Temp\cc1Hp51A.s 			page 124


 5525 0f7b 00       		.byte	0x0
 5526 0f7c 00       		.byte	0x0
 5527 0f7d 00       		.byte	0x0
 5528 0f7e 2B       		.uleb128 0x2b
 5529 0f7f 01       		.byte	0x1
 5530 0f80 CF000000 		.4byte	.LASF102
 5531 0f84 01       		.byte	0x1
 5532 0f85 2002     		.2byte	0x220
 5533 0f87 01       		.byte	0x1
 5534 0f88 98080000 		.4byte	.LFB16
 5535 0f8c B0090000 		.4byte	.LFE16
 5536 0f90 5F090000 		.4byte	.LLST70
 5537 0f94 C7100000 		.4byte	0x10c7
 5538 0f98 2E       		.uleb128 0x2e
 5539 0f99 FE010000 		.4byte	.LASF31
 5540 0f9d 01       		.byte	0x1
 5541 0f9e 2202     		.2byte	0x222
 5542 0fa0 7E030000 		.4byte	0x37e
 5543 0fa4 8B090000 		.4byte	.LLST71
 5544 0fa8 2E       		.uleb128 0x2e
 5545 0fa9 42040000 		.4byte	.LASF64
 5546 0fad 01       		.byte	0x1
 5547 0fae 2302     		.2byte	0x223
 5548 0fb0 C9030000 		.4byte	0x3c9
 5549 0fb4 B5090000 		.4byte	.LLST72
 5550 0fb8 2E       		.uleb128 0x2e
 5551 0fb9 EC050000 		.4byte	.LASF67
 5552 0fbd 01       		.byte	0x1
 5553 0fbe 2402     		.2byte	0x224
 5554 0fc0 C9030000 		.4byte	0x3c9
 5555 0fc4 C8090000 		.4byte	.LLST73
 5556 0fc8 2E       		.uleb128 0x2e
 5557 0fc9 3E000000 		.4byte	.LASF103
 5558 0fcd 01       		.byte	0x1
 5559 0fce 2502     		.2byte	0x225
 5560 0fd0 C9030000 		.4byte	0x3c9
 5561 0fd4 DB090000 		.4byte	.LLST74
 5562 0fd8 2E       		.uleb128 0x2e
 5563 0fd9 C2000000 		.4byte	.LASF88
 5564 0fdd 01       		.byte	0x1
 5565 0fde 2602     		.2byte	0x226
 5566 0fe0 C9030000 		.4byte	0x3c9
 5567 0fe4 EE090000 		.4byte	.LLST75
 5568 0fe8 2E       		.uleb128 0x2e
 5569 0fe9 00060000 		.4byte	.LASF69
 5570 0fed 01       		.byte	0x1
 5571 0fee 2702     		.2byte	0x227
 5572 0ff0 48040000 		.4byte	0x448
 5573 0ff4 170A0000 		.4byte	.LLST76
 5574 0ff8 2E       		.uleb128 0x2e
 5575 0ff9 F2040000 		.4byte	.LASF89
 5576 0ffd 01       		.byte	0x1
 5577 0ffe 2802     		.2byte	0x228
 5578 1000 2D050000 		.4byte	0x52d
 5579 1004 2F0A0000 		.4byte	.LLST77
 5580 1008 2E       		.uleb128 0x2e
 5581 1009 77050000 		.4byte	.LASF104
ARM GAS  C:\DOCUME~1\ADMINI~1\LOCALS~1\Temp\cc1Hp51A.s 			page 125


 5582 100d 01       		.byte	0x1
 5583 100e 2902     		.2byte	0x229
 5584 1010 3D000000 		.4byte	0x3d
 5585 1014 420A0000 		.4byte	.LLST78
 5586 1018 2E       		.uleb128 0x2e
 5587 1019 29000000 		.4byte	.LASF39
 5588 101d 01       		.byte	0x1
 5589 101e 2A02     		.2byte	0x22a
 5590 1020 25000000 		.4byte	0x25
 5591 1024 590A0000 		.4byte	.LLST79
 5592 1028 26       		.uleb128 0x26
 5593 1029 D5040000 		.4byte	0x4d5
 5594 102d A0080000 		.4byte	.LBB204
 5595 1031 A8080000 		.4byte	.LBE204
 5596 1035 01       		.byte	0x1
 5597 1036 2D02     		.2byte	0x22d
 5598 1038 49100000 		.4byte	0x1049
 5599 103c 19       		.uleb128 0x19
 5600 103d E8040000 		.4byte	0x4e8
 5601 1041 06       		.byte	0x6
 5602 1042 03       		.byte	0x3
 5603 1043 00000000 		.4byte	gstrDelayTab
 5604 1047 9F       		.byte	0x9f
 5605 1048 00       		.byte	0x0
 5606 1049 27       		.uleb128 0x27
 5607 104a 4E040000 		.4byte	0x44e
 5608 104e C4080000 		.4byte	.LBB206
 5609 1052 58020000 		.4byte	.Ldebug_ranges0+0x258
 5610 1056 01       		.byte	0x1
 5611 1057 6102     		.2byte	0x261
 5612 1059 1D       		.uleb128 0x1d
 5613 105a 7D040000 		.4byte	0x47d
 5614 105e 6C0A0000 		.4byte	.LLST80
 5615 1062 1D       		.uleb128 0x1d
 5616 1063 72040000 		.4byte	0x472
 5617 1067 7F0A0000 		.4byte	.LLST81
 5618 106b 1D       		.uleb128 0x1d
 5619 106c 67040000 		.4byte	0x467
 5620 1070 970A0000 		.4byte	.LLST82
 5621 1074 1D       		.uleb128 0x1d
 5622 1075 5C040000 		.4byte	0x45c
 5623 1079 AA0A0000 		.4byte	.LLST83
 5624 107d 18       		.uleb128 0x18
 5625 107e 20040000 		.4byte	0x420
 5626 1082 C4080000 		.4byte	.LBB211
 5627 1086 80020000 		.4byte	.Ldebug_ranges0+0x280
 5628 108a 01       		.byte	0x1
 5629 108b E6       		.byte	0xe6
 5630 108c A3100000 		.4byte	0x10a3
 5631 1090 1D       		.uleb128 0x1d
 5632 1091 3B040000 		.4byte	0x43b
 5633 1095 BD0A0000 		.4byte	.LLST84
 5634 1099 1D       		.uleb128 0x1d
 5635 109a 2F040000 		.4byte	0x42f
 5636 109e D00A0000 		.4byte	.LLST85
 5637 10a2 00       		.byte	0x0
 5638 10a3 1C       		.uleb128 0x1c
ARM GAS  C:\DOCUME~1\ADMINI~1\LOCALS~1\Temp\cc1Hp51A.s 			page 126


 5639 10a4 F8030000 		.4byte	0x3f8
 5640 10a8 D4080000 		.4byte	.LBB215
 5641 10ac A0020000 		.4byte	.Ldebug_ranges0+0x2a0
 5642 10b0 01       		.byte	0x1
 5643 10b1 E3       		.byte	0xe3
 5644 10b2 1D       		.uleb128 0x1d
 5645 10b3 13040000 		.4byte	0x413
 5646 10b7 E80A0000 		.4byte	.LLST86
 5647 10bb 1D       		.uleb128 0x1d
 5648 10bc 07040000 		.4byte	0x407
 5649 10c0 FB0A0000 		.4byte	.LLST87
 5650 10c4 00       		.byte	0x0
 5651 10c5 00       		.byte	0x0
 5652 10c6 00       		.byte	0x0
 5653 10c7 2B       		.uleb128 0x2b
 5654 10c8 01       		.byte	0x1
 5655 10c9 09050000 		.4byte	.LASF105
 5656 10cd 01       		.byte	0x1
 5657 10ce CE01     		.2byte	0x1ce
 5658 10d0 01       		.byte	0x1
 5659 10d1 B0090000 		.4byte	.LFB13
 5660 10d5 500A0000 		.4byte	.LFE13
 5661 10d9 0E0B0000 		.4byte	.LLST88
 5662 10dd 6F110000 		.4byte	0x116f
 5663 10e1 2F       		.uleb128 0x2f
 5664 10e2 FE010000 		.4byte	.LASF31
 5665 10e6 01       		.byte	0x1
 5666 10e7 D001     		.2byte	0x1d0
 5667 10e9 7E030000 		.4byte	0x37e
 5668 10ed 01       		.byte	0x1
 5669 10ee 54       		.byte	0x54
 5670 10ef 25       		.uleb128 0x25
 5671 10f0 F5040000 		.4byte	0x4f5
 5672 10f4 B8090000 		.4byte	.LBB224
 5673 10f8 C8020000 		.4byte	.Ldebug_ranges0+0x2c8
 5674 10fc 01       		.byte	0x1
 5675 10fd D601     		.2byte	0x1d6
 5676 10ff 54110000 		.4byte	0x1154
 5677 1103 1A       		.uleb128 0x1a
 5678 1104 F8020000 		.4byte	.Ldebug_ranges0+0x2f8
 5679 1108 1B       		.uleb128 0x1b
 5680 1109 08050000 		.4byte	0x508
 5681 110d 3A0B0000 		.4byte	.LLST89
 5682 1111 33       		.uleb128 0x33
 5683 1112 14050000 		.4byte	0x514
 5684 1116 33       		.uleb128 0x33
 5685 1117 20050000 		.4byte	0x520
 5686 111b 26       		.uleb128 0x26
 5687 111c B5040000 		.4byte	0x4b5
 5688 1120 C8090000 		.4byte	.LBB229
 5689 1124 CC090000 		.4byte	.LBE229
 5690 1128 01       		.byte	0x1
 5691 1129 1402     		.2byte	0x214
 5692 112b 3C110000 		.4byte	0x113c
 5693 112f 19       		.uleb128 0x19
 5694 1130 C8040000 		.4byte	0x4c8
 5695 1134 06       		.byte	0x6
ARM GAS  C:\DOCUME~1\ADMINI~1\LOCALS~1\Temp\cc1Hp51A.s 			page 127


 5696 1135 03       		.byte	0x3
 5697 1136 40000000 		.4byte	gstrReadyTab+64
 5698 113a 9F       		.byte	0x9f
 5699 113b 00       		.byte	0x0
 5700 113c 27       		.uleb128 0x27
 5701 113d D5040000 		.4byte	0x4d5
 5702 1141 B8090000 		.4byte	.LBB231
 5703 1145 28030000 		.4byte	.Ldebug_ranges0+0x328
 5704 1149 01       		.byte	0x1
 5705 114a 1502     		.2byte	0x215
 5706 114c 34       		.uleb128 0x34
 5707 114d E8040000 		.4byte	0x4e8
 5708 1151 00       		.byte	0x0
 5709 1152 00       		.byte	0x0
 5710 1153 00       		.byte	0x0
 5711 1154 28       		.uleb128 0x28
 5712 1155 33050000 		.4byte	0x533
 5713 1159 0C0A0000 		.4byte	.LBB240
 5714 115d 200A0000 		.4byte	.LBE240
 5715 1161 01       		.byte	0x1
 5716 1162 E701     		.2byte	0x1e7
 5717 1164 1D       		.uleb128 0x1d
 5718 1165 41050000 		.4byte	0x541
 5719 1169 680B0000 		.4byte	.LLST90
 5720 116d 00       		.byte	0x0
 5721 116e 00       		.byte	0x0
 5722 116f 37       		.uleb128 0x37
 5723 1170 01       		.byte	0x1
 5724 1171 C0050000 		.4byte	.LASF122
 5725 1175 01       		.byte	0x1
 5726 1176 7C       		.byte	0x7c
 5727 1177 01       		.byte	0x1
 5728 1178 500A0000 		.4byte	.LFB3
 5729 117c 680A0000 		.4byte	.LFE3
 5730 1180 02       		.byte	0x2
 5731 1181 7D       		.byte	0x7d
 5732 1182 00       		.sleb128 0
 5733 1183 1E       		.uleb128 0x1e
 5734 1184 D5040000 		.4byte	0x4d5
 5735 1188 680A0000 		.4byte	.LFB29
 5736 118c 700A0000 		.4byte	.LFE29
 5737 1190 02       		.byte	0x2
 5738 1191 7D       		.byte	0x7d
 5739 1192 00       		.sleb128 0
 5740 1193 A1110000 		.4byte	0x11a1
 5741 1197 1D       		.uleb128 0x1d
 5742 1198 E8040000 		.4byte	0x4e8
 5743 119c 7B0B0000 		.4byte	.LLST91
 5744 11a0 00       		.byte	0x0
 5745 11a1 1E       		.uleb128 0x1e
 5746 11a2 ED050000 		.4byte	0x5ed
 5747 11a6 700A0000 		.4byte	.LFB30
 5748 11aa 840A0000 		.4byte	.LFE30
 5749 11ae 02       		.byte	0x2
 5750 11af 7D       		.byte	0x7d
 5751 11b0 00       		.sleb128 0
 5752 11b1 C6110000 		.4byte	0x11c6
ARM GAS  C:\DOCUME~1\ADMINI~1\LOCALS~1\Temp\cc1Hp51A.s 			page 128


 5753 11b5 1D       		.uleb128 0x1d
 5754 11b6 00060000 		.4byte	0x600
 5755 11ba 8E0B0000 		.4byte	.LLST92
 5756 11be 19       		.uleb128 0x19
 5757 11bf 0C060000 		.4byte	0x60c
 5758 11c3 01       		.byte	0x1
 5759 11c4 51       		.byte	0x51
 5760 11c5 00       		.byte	0x0
 5761 11c6 0A       		.uleb128 0xa
 5762 11c7 25000000 		.4byte	0x25
 5763 11cb D7110000 		.4byte	0x11d7
 5764 11cf 38       		.uleb128 0x38
 5765 11d0 48000000 		.4byte	0x48
 5766 11d4 5702     		.2byte	0x257
 5767 11d6 00       		.byte	0x0
 5768 11d7 39       		.uleb128 0x39
 5769 11d8 0D030000 		.4byte	.LASF106
 5770 11dc 04       		.byte	0x4
 5771 11dd 07       		.byte	0x7
 5772 11de C6110000 		.4byte	0x11c6
 5773 11e2 01       		.byte	0x1
 5774 11e3 01       		.byte	0x1
 5775 11e4 39       		.uleb128 0x39
 5776 11e5 7E030000 		.4byte	.LASF107
 5777 11e9 04       		.byte	0x4
 5778 11ea 08       		.byte	0x8
 5779 11eb C6110000 		.4byte	0x11c6
 5780 11ef 01       		.byte	0x1
 5781 11f0 01       		.byte	0x1
 5782 11f1 39       		.uleb128 0x39
 5783 11f2 95050000 		.4byte	.LASF108
 5784 11f6 04       		.byte	0x4
 5785 11f7 09       		.byte	0x9
 5786 11f8 1A030000 		.4byte	0x31a
 5787 11fc 01       		.byte	0x1
 5788 11fd 01       		.byte	0x1
 5789 11fe 39       		.uleb128 0x39
 5790 11ff 5E050000 		.4byte	.LASF109
 5791 1203 04       		.byte	0x4
 5792 1204 0A       		.byte	0xa
 5793 1205 B7010000 		.4byte	0x1b7
 5794 1209 01       		.byte	0x1
 5795 120a 01       		.byte	0x1
 5796 120b 39       		.uleb128 0x39
 5797 120c E5000000 		.4byte	.LASF110
 5798 1210 04       		.byte	0x4
 5799 1211 0B       		.byte	0xb
 5800 1212 3D000000 		.4byte	0x3d
 5801 1216 01       		.byte	0x1
 5802 1217 01       		.byte	0x1
 5803 1218 39       		.uleb128 0x39
 5804 1219 87010000 		.4byte	.LASF111
 5805 121d 04       		.byte	0x4
 5806 121e 0C       		.byte	0xc
 5807 121f 25120000 		.4byte	0x1225
 5808 1223 01       		.byte	0x1
 5809 1224 01       		.byte	0x1
ARM GAS  C:\DOCUME~1\ADMINI~1\LOCALS~1\Temp\cc1Hp51A.s 			page 129


 5810 1225 06       		.uleb128 0x6
 5811 1226 04       		.byte	0x4
 5812 1227 7D010000 		.4byte	0x17d
 5813 122b 39       		.uleb128 0x39
 5814 122c AF030000 		.4byte	.LASF112
 5815 1230 04       		.byte	0x4
 5816 1231 0D       		.byte	0xd
 5817 1232 25120000 		.4byte	0x1225
 5818 1236 01       		.byte	0x1
 5819 1237 01       		.byte	0x1
 5820 1238 39       		.uleb128 0x39
 5821 1239 B5040000 		.4byte	.LASF113
 5822 123d 04       		.byte	0x4
 5823 123e 0E       		.byte	0xe
 5824 123f 7E030000 		.4byte	0x37e
 5825 1243 01       		.byte	0x1
 5826 1244 01       		.byte	0x1
 5827 1245 39       		.uleb128 0x39
 5828 1246 B1000000 		.4byte	.LASF114
 5829 124a 04       		.byte	0x4
 5830 124b 0F       		.byte	0xf
 5831 124c 7E030000 		.4byte	0x37e
 5832 1250 01       		.byte	0x1
 5833 1251 01       		.byte	0x1
 5834 1252 39       		.uleb128 0x39
 5835 1253 4C040000 		.4byte	.LASF115
 5836 1257 04       		.byte	0x4
 5837 1258 10       		.byte	0x10
 5838 1259 7E030000 		.4byte	0x37e
 5839 125d 01       		.byte	0x1
 5840 125e 01       		.byte	0x1
 5841 125f 39       		.uleb128 0x39
 5842 1260 97040000 		.4byte	.LASF116
 5843 1264 04       		.byte	0x4
 5844 1265 11       		.byte	0x11
 5845 1266 3D000000 		.4byte	0x3d
 5846 126a 01       		.byte	0x1
 5847 126b 01       		.byte	0x1
 5848 126c 0A       		.uleb128 0xa
 5849 126d 25000000 		.4byte	0x25
 5850 1271 7C120000 		.4byte	0x127c
 5851 1275 0B       		.uleb128 0xb
 5852 1276 48000000 		.4byte	0x48
 5853 127a FF       		.byte	0xff
 5854 127b 00       		.byte	0x0
 5855 127c 39       		.uleb128 0x39
 5856 127d 4C000000 		.4byte	.LASF117
 5857 1281 04       		.byte	0x4
 5858 1282 12       		.byte	0x12
 5859 1283 89120000 		.4byte	0x1289
 5860 1287 01       		.byte	0x1
 5861 1288 01       		.byte	0x1
 5862 1289 3A       		.uleb128 0x3a
 5863 128a 6C120000 		.4byte	0x126c
 5864 128e 39       		.uleb128 0x39
 5865 128f 2A020000 		.4byte	.LASF118
 5866 1293 05       		.byte	0x5
ARM GAS  C:\DOCUME~1\ADMINI~1\LOCALS~1\Temp\cc1Hp51A.s 			page 130


 5867 1294 12       		.byte	0x12
 5868 1295 84030000 		.4byte	0x384
 5869 1299 01       		.byte	0x1
 5870 129a 01       		.byte	0x1
 5871 129b 39       		.uleb128 0x39
 5872 129c 0D030000 		.4byte	.LASF106
 5873 12a0 04       		.byte	0x4
 5874 12a1 07       		.byte	0x7
 5875 12a2 C6110000 		.4byte	0x11c6
 5876 12a6 01       		.byte	0x1
 5877 12a7 01       		.byte	0x1
 5878 12a8 39       		.uleb128 0x39
 5879 12a9 7E030000 		.4byte	.LASF107
 5880 12ad 04       		.byte	0x4
 5881 12ae 08       		.byte	0x8
 5882 12af C6110000 		.4byte	0x11c6
 5883 12b3 01       		.byte	0x1
 5884 12b4 01       		.byte	0x1
 5885 12b5 3B       		.uleb128 0x3b
 5886 12b6 95050000 		.4byte	.LASF108
 5887 12ba 01       		.byte	0x1
 5888 12bb 05       		.byte	0x5
 5889 12bc 1A030000 		.4byte	0x31a
 5890 12c0 01       		.byte	0x1
 5891 12c1 05       		.byte	0x5
 5892 12c2 03       		.byte	0x3
 5893 12c3 00000000 		.4byte	gstrReadyTab
 5894 12c7 3B       		.uleb128 0x3b
 5895 12c8 5E050000 		.4byte	.LASF109
 5896 12cc 01       		.byte	0x1
 5897 12cd 06       		.byte	0x6
 5898 12ce B7010000 		.4byte	0x1b7
 5899 12d2 01       		.byte	0x1
 5900 12d3 05       		.byte	0x5
 5901 12d4 03       		.byte	0x3
 5902 12d5 00000000 		.4byte	gstrDelayTab
 5903 12d9 3B       		.uleb128 0x3b
 5904 12da E5000000 		.4byte	.LASF110
 5905 12de 01       		.byte	0x1
 5906 12df 08       		.byte	0x8
 5907 12e0 3D000000 		.4byte	0x3d
 5908 12e4 01       		.byte	0x1
 5909 12e5 05       		.byte	0x5
 5910 12e6 03       		.byte	0x3
 5911 12e7 00000000 		.4byte	guiTick
 5912 12eb 3B       		.uleb128 0x3b
 5913 12ec 87010000 		.4byte	.LASF111
 5914 12f0 01       		.byte	0x1
 5915 12f1 0A       		.byte	0xa
 5916 12f2 25120000 		.4byte	0x1225
 5917 12f6 01       		.byte	0x1
 5918 12f7 05       		.byte	0x5
 5919 12f8 03       		.byte	0x3
 5920 12f9 00000000 		.4byte	gpstrCurTaskSpAddr
 5921 12fd 3B       		.uleb128 0x3b
 5922 12fe AF030000 		.4byte	.LASF112
 5923 1302 01       		.byte	0x1
ARM GAS  C:\DOCUME~1\ADMINI~1\LOCALS~1\Temp\cc1Hp51A.s 			page 131


 5924 1303 0C       		.byte	0xc
 5925 1304 25120000 		.4byte	0x1225
 5926 1308 01       		.byte	0x1
 5927 1309 05       		.byte	0x5
 5928 130a 03       		.byte	0x3
 5929 130b 00000000 		.4byte	gpstrNextTaskSpAddr
 5930 130f 3B       		.uleb128 0x3b
 5931 1310 B5040000 		.4byte	.LASF113
 5932 1314 01       		.byte	0x1
 5933 1315 0F       		.byte	0xf
 5934 1316 7E030000 		.4byte	0x37e
 5935 131a 01       		.byte	0x1
 5936 131b 05       		.byte	0x5
 5937 131c 03       		.byte	0x3
 5938 131d 00000000 		.4byte	gpstrCurTcb
 5939 1321 3B       		.uleb128 0x3b
 5940 1322 B1000000 		.4byte	.LASF114
 5941 1326 01       		.byte	0x1
 5942 1327 10       		.byte	0x10
 5943 1328 7E030000 		.4byte	0x37e
 5944 132c 01       		.byte	0x1
 5945 132d 05       		.byte	0x5
 5946 132e 03       		.byte	0x3
 5947 132f 00000000 		.4byte	gpstrRootTaskTcb
 5948 1333 3B       		.uleb128 0x3b
 5949 1334 4C040000 		.4byte	.LASF115
 5950 1338 01       		.byte	0x1
 5951 1339 11       		.byte	0x11
 5952 133a 7E030000 		.4byte	0x37e
 5953 133e 01       		.byte	0x1
 5954 133f 05       		.byte	0x5
 5955 1340 03       		.byte	0x3
 5956 1341 00000000 		.4byte	gpstrIdleTaskTcb
 5957 1345 3B       		.uleb128 0x3b
 5958 1346 97040000 		.4byte	.LASF116
 5959 134a 01       		.byte	0x1
 5960 134b 13       		.byte	0x13
 5961 134c 3D000000 		.4byte	0x3d
 5962 1350 01       		.byte	0x1
 5963 1351 05       		.byte	0x5
 5964 1352 03       		.byte	0x3
 5965 1353 00000000 		.4byte	guiIntLockCounter
 5966 1357 3B       		.uleb128 0x3b
 5967 1358 4C000000 		.4byte	.LASF117
 5968 135c 01       		.byte	0x1
 5969 135d 15       		.byte	0x15
 5970 135e 69130000 		.4byte	0x1369
 5971 1362 01       		.byte	0x1
 5972 1363 05       		.byte	0x5
 5973 1364 03       		.byte	0x3
 5974 1365 00000000 		.4byte	caucTaskPrioUnmapTab
 5975 1369 3A       		.uleb128 0x3a
 5976 136a 6C120000 		.4byte	0x126c
 5977 136e 39       		.uleb128 0x39
 5978 136f 2A020000 		.4byte	.LASF118
 5979 1373 05       		.byte	0x5
 5980 1374 12       		.byte	0x12
ARM GAS  C:\DOCUME~1\ADMINI~1\LOCALS~1\Temp\cc1Hp51A.s 			page 132


 5981 1375 84030000 		.4byte	0x384
 5982 1379 01       		.byte	0x1
 5983 137a 01       		.byte	0x1
 5984 137b 00       		.byte	0x0
 5985              		.section	.debug_abbrev
 5986 0000 01       		.uleb128 0x1
 5987 0001 11       		.uleb128 0x11
 5988 0002 01       		.byte	0x1
 5989 0003 25       		.uleb128 0x25
 5990 0004 0E       		.uleb128 0xe
 5991 0005 13       		.uleb128 0x13
 5992 0006 0B       		.uleb128 0xb
 5993 0007 03       		.uleb128 0x3
 5994 0008 0E       		.uleb128 0xe
 5995 0009 1B       		.uleb128 0x1b
 5996 000a 0E       		.uleb128 0xe
 5997 000b 11       		.uleb128 0x11
 5998 000c 01       		.uleb128 0x1
 5999 000d 12       		.uleb128 0x12
 6000 000e 01       		.uleb128 0x1
 6001 000f 10       		.uleb128 0x10
 6002 0010 06       		.uleb128 0x6
 6003 0011 00       		.byte	0x0
 6004 0012 00       		.byte	0x0
 6005 0013 02       		.uleb128 0x2
 6006 0014 16       		.uleb128 0x16
 6007 0015 00       		.byte	0x0
 6008 0016 03       		.uleb128 0x3
 6009 0017 08       		.uleb128 0x8
 6010 0018 3A       		.uleb128 0x3a
 6011 0019 0B       		.uleb128 0xb
 6012 001a 3B       		.uleb128 0x3b
 6013 001b 0B       		.uleb128 0xb
 6014 001c 49       		.uleb128 0x49
 6015 001d 13       		.uleb128 0x13
 6016 001e 00       		.byte	0x0
 6017 001f 00       		.byte	0x0
 6018 0020 03       		.uleb128 0x3
 6019 0021 24       		.uleb128 0x24
 6020 0022 00       		.byte	0x0
 6021 0023 0B       		.uleb128 0xb
 6022 0024 0B       		.uleb128 0xb
 6023 0025 3E       		.uleb128 0x3e
 6024 0026 0B       		.uleb128 0xb
 6025 0027 03       		.uleb128 0x3
 6026 0028 0E       		.uleb128 0xe
 6027 0029 00       		.byte	0x0
 6028 002a 00       		.byte	0x0
 6029 002b 04       		.uleb128 0x4
 6030 002c 24       		.uleb128 0x24
 6031 002d 00       		.byte	0x0
 6032 002e 0B       		.uleb128 0xb
 6033 002f 0B       		.uleb128 0xb
 6034 0030 3E       		.uleb128 0x3e
 6035 0031 0B       		.uleb128 0xb
 6036 0032 03       		.uleb128 0x3
 6037 0033 08       		.uleb128 0x8
ARM GAS  C:\DOCUME~1\ADMINI~1\LOCALS~1\Temp\cc1Hp51A.s 			page 133


 6038 0034 00       		.byte	0x0
 6039 0035 00       		.byte	0x0
 6040 0036 05       		.uleb128 0x5
 6041 0037 16       		.uleb128 0x16
 6042 0038 00       		.byte	0x0
 6043 0039 03       		.uleb128 0x3
 6044 003a 0E       		.uleb128 0xe
 6045 003b 3A       		.uleb128 0x3a
 6046 003c 0B       		.uleb128 0xb
 6047 003d 3B       		.uleb128 0x3b
 6048 003e 0B       		.uleb128 0xb
 6049 003f 49       		.uleb128 0x49
 6050 0040 13       		.uleb128 0x13
 6051 0041 00       		.byte	0x0
 6052 0042 00       		.byte	0x0
 6053 0043 06       		.uleb128 0x6
 6054 0044 0F       		.uleb128 0xf
 6055 0045 00       		.byte	0x0
 6056 0046 0B       		.uleb128 0xb
 6057 0047 0B       		.uleb128 0xb
 6058 0048 49       		.uleb128 0x49
 6059 0049 13       		.uleb128 0x13
 6060 004a 00       		.byte	0x0
 6061 004b 00       		.byte	0x0
 6062 004c 07       		.uleb128 0x7
 6063 004d 15       		.uleb128 0x15
 6064 004e 00       		.byte	0x0
 6065 004f 27       		.uleb128 0x27
 6066 0050 0C       		.uleb128 0xc
 6067 0051 00       		.byte	0x0
 6068 0052 00       		.byte	0x0
 6069 0053 08       		.uleb128 0x8
 6070 0054 13       		.uleb128 0x13
 6071 0055 01       		.byte	0x1
 6072 0056 03       		.uleb128 0x3
 6073 0057 0E       		.uleb128 0xe
 6074 0058 0B       		.uleb128 0xb
 6075 0059 0B       		.uleb128 0xb
 6076 005a 3A       		.uleb128 0x3a
 6077 005b 0B       		.uleb128 0xb
 6078 005c 3B       		.uleb128 0x3b
 6079 005d 0B       		.uleb128 0xb
 6080 005e 01       		.uleb128 0x1
 6081 005f 13       		.uleb128 0x13
 6082 0060 00       		.byte	0x0
 6083 0061 00       		.byte	0x0
 6084 0062 09       		.uleb128 0x9
 6085 0063 0D       		.uleb128 0xd
 6086 0064 00       		.byte	0x0
 6087 0065 03       		.uleb128 0x3
 6088 0066 0E       		.uleb128 0xe
 6089 0067 3A       		.uleb128 0x3a
 6090 0068 0B       		.uleb128 0xb
 6091 0069 3B       		.uleb128 0x3b
 6092 006a 0B       		.uleb128 0xb
 6093 006b 49       		.uleb128 0x49
 6094 006c 13       		.uleb128 0x13
ARM GAS  C:\DOCUME~1\ADMINI~1\LOCALS~1\Temp\cc1Hp51A.s 			page 134


 6095 006d 38       		.uleb128 0x38
 6096 006e 0A       		.uleb128 0xa
 6097 006f 00       		.byte	0x0
 6098 0070 00       		.byte	0x0
 6099 0071 0A       		.uleb128 0xa
 6100 0072 01       		.uleb128 0x1
 6101 0073 01       		.byte	0x1
 6102 0074 49       		.uleb128 0x49
 6103 0075 13       		.uleb128 0x13
 6104 0076 01       		.uleb128 0x1
 6105 0077 13       		.uleb128 0x13
 6106 0078 00       		.byte	0x0
 6107 0079 00       		.byte	0x0
 6108 007a 0B       		.uleb128 0xb
 6109 007b 21       		.uleb128 0x21
 6110 007c 00       		.byte	0x0
 6111 007d 49       		.uleb128 0x49
 6112 007e 13       		.uleb128 0x13
 6113 007f 2F       		.uleb128 0x2f
 6114 0080 0B       		.uleb128 0xb
 6115 0081 00       		.byte	0x0
 6116 0082 00       		.byte	0x0
 6117 0083 0C       		.uleb128 0xc
 6118 0084 15       		.uleb128 0x15
 6119 0085 01       		.byte	0x1
 6120 0086 27       		.uleb128 0x27
 6121 0087 0C       		.uleb128 0xc
 6122 0088 01       		.uleb128 0x1
 6123 0089 13       		.uleb128 0x13
 6124 008a 00       		.byte	0x0
 6125 008b 00       		.byte	0x0
 6126 008c 0D       		.uleb128 0xd
 6127 008d 05       		.uleb128 0x5
 6128 008e 00       		.byte	0x0
 6129 008f 49       		.uleb128 0x49
 6130 0090 13       		.uleb128 0x13
 6131 0091 00       		.byte	0x0
 6132 0092 00       		.byte	0x0
 6133 0093 0E       		.uleb128 0xe
 6134 0094 2E       		.uleb128 0x2e
 6135 0095 01       		.byte	0x1
 6136 0096 3F       		.uleb128 0x3f
 6137 0097 0C       		.uleb128 0xc
 6138 0098 03       		.uleb128 0x3
 6139 0099 0E       		.uleb128 0xe
 6140 009a 3A       		.uleb128 0x3a
 6141 009b 0B       		.uleb128 0xb
 6142 009c 3B       		.uleb128 0x3b
 6143 009d 05       		.uleb128 0x5
 6144 009e 27       		.uleb128 0x27
 6145 009f 0C       		.uleb128 0xc
 6146 00a0 20       		.uleb128 0x20
 6147 00a1 0B       		.uleb128 0xb
 6148 00a2 01       		.uleb128 0x1
 6149 00a3 13       		.uleb128 0x13
 6150 00a4 00       		.byte	0x0
 6151 00a5 00       		.byte	0x0
ARM GAS  C:\DOCUME~1\ADMINI~1\LOCALS~1\Temp\cc1Hp51A.s 			page 135


 6152 00a6 0F       		.uleb128 0xf
 6153 00a7 05       		.uleb128 0x5
 6154 00a8 00       		.byte	0x0
 6155 00a9 03       		.uleb128 0x3
 6156 00aa 0E       		.uleb128 0xe
 6157 00ab 3A       		.uleb128 0x3a
 6158 00ac 0B       		.uleb128 0xb
 6159 00ad 3B       		.uleb128 0x3b
 6160 00ae 05       		.uleb128 0x5
 6161 00af 49       		.uleb128 0x49
 6162 00b0 13       		.uleb128 0x13
 6163 00b1 00       		.byte	0x0
 6164 00b2 00       		.byte	0x0
 6165 00b3 10       		.uleb128 0x10
 6166 00b4 2E       		.uleb128 0x2e
 6167 00b5 01       		.byte	0x1
 6168 00b6 3F       		.uleb128 0x3f
 6169 00b7 0C       		.uleb128 0xc
 6170 00b8 03       		.uleb128 0x3
 6171 00b9 0E       		.uleb128 0xe
 6172 00ba 3A       		.uleb128 0x3a
 6173 00bb 0B       		.uleb128 0xb
 6174 00bc 3B       		.uleb128 0x3b
 6175 00bd 0B       		.uleb128 0xb
 6176 00be 27       		.uleb128 0x27
 6177 00bf 0C       		.uleb128 0xc
 6178 00c0 20       		.uleb128 0x20
 6179 00c1 0B       		.uleb128 0xb
 6180 00c2 01       		.uleb128 0x1
 6181 00c3 13       		.uleb128 0x13
 6182 00c4 00       		.byte	0x0
 6183 00c5 00       		.byte	0x0
 6184 00c6 11       		.uleb128 0x11
 6185 00c7 05       		.uleb128 0x5
 6186 00c8 00       		.byte	0x0
 6187 00c9 03       		.uleb128 0x3
 6188 00ca 0E       		.uleb128 0xe
 6189 00cb 3A       		.uleb128 0x3a
 6190 00cc 0B       		.uleb128 0xb
 6191 00cd 3B       		.uleb128 0x3b
 6192 00ce 0B       		.uleb128 0xb
 6193 00cf 49       		.uleb128 0x49
 6194 00d0 13       		.uleb128 0x13
 6195 00d1 00       		.byte	0x0
 6196 00d2 00       		.byte	0x0
 6197 00d3 12       		.uleb128 0x12
 6198 00d4 34       		.uleb128 0x34
 6199 00d5 00       		.byte	0x0
 6200 00d6 03       		.uleb128 0x3
 6201 00d7 08       		.uleb128 0x8
 6202 00d8 3A       		.uleb128 0x3a
 6203 00d9 0B       		.uleb128 0xb
 6204 00da 3B       		.uleb128 0x3b
 6205 00db 0B       		.uleb128 0xb
 6206 00dc 49       		.uleb128 0x49
 6207 00dd 13       		.uleb128 0x13
 6208 00de 00       		.byte	0x0
ARM GAS  C:\DOCUME~1\ADMINI~1\LOCALS~1\Temp\cc1Hp51A.s 			page 136


 6209 00df 00       		.byte	0x0
 6210 00e0 13       		.uleb128 0x13
 6211 00e1 2E       		.uleb128 0x2e
 6212 00e2 01       		.byte	0x1
 6213 00e3 3F       		.uleb128 0x3f
 6214 00e4 0C       		.uleb128 0xc
 6215 00e5 03       		.uleb128 0x3
 6216 00e6 0E       		.uleb128 0xe
 6217 00e7 3A       		.uleb128 0x3a
 6218 00e8 0B       		.uleb128 0xb
 6219 00e9 3B       		.uleb128 0x3b
 6220 00ea 05       		.uleb128 0x5
 6221 00eb 27       		.uleb128 0x27
 6222 00ec 0C       		.uleb128 0xc
 6223 00ed 49       		.uleb128 0x49
 6224 00ee 13       		.uleb128 0x13
 6225 00ef 20       		.uleb128 0x20
 6226 00f0 0B       		.uleb128 0xb
 6227 00f1 01       		.uleb128 0x1
 6228 00f2 13       		.uleb128 0x13
 6229 00f3 00       		.byte	0x0
 6230 00f4 00       		.byte	0x0
 6231 00f5 14       		.uleb128 0x14
 6232 00f6 34       		.uleb128 0x34
 6233 00f7 00       		.byte	0x0
 6234 00f8 03       		.uleb128 0x3
 6235 00f9 0E       		.uleb128 0xe
 6236 00fa 3A       		.uleb128 0x3a
 6237 00fb 0B       		.uleb128 0xb
 6238 00fc 3B       		.uleb128 0x3b
 6239 00fd 05       		.uleb128 0x5
 6240 00fe 49       		.uleb128 0x49
 6241 00ff 13       		.uleb128 0x13
 6242 0100 00       		.byte	0x0
 6243 0101 00       		.byte	0x0
 6244 0102 15       		.uleb128 0x15
 6245 0103 2E       		.uleb128 0x2e
 6246 0104 01       		.byte	0x1
 6247 0105 3F       		.uleb128 0x3f
 6248 0106 0C       		.uleb128 0xc
 6249 0107 03       		.uleb128 0x3
 6250 0108 0E       		.uleb128 0xe
 6251 0109 3A       		.uleb128 0x3a
 6252 010a 0B       		.uleb128 0xb
 6253 010b 3B       		.uleb128 0x3b
 6254 010c 0B       		.uleb128 0xb
 6255 010d 27       		.uleb128 0x27
 6256 010e 0C       		.uleb128 0xc
 6257 010f 49       		.uleb128 0x49
 6258 0110 13       		.uleb128 0x13
 6259 0111 11       		.uleb128 0x11
 6260 0112 01       		.uleb128 0x1
 6261 0113 12       		.uleb128 0x12
 6262 0114 01       		.uleb128 0x1
 6263 0115 40       		.uleb128 0x40
 6264 0116 06       		.uleb128 0x6
 6265 0117 01       		.uleb128 0x1
ARM GAS  C:\DOCUME~1\ADMINI~1\LOCALS~1\Temp\cc1Hp51A.s 			page 137


 6266 0118 13       		.uleb128 0x13
 6267 0119 00       		.byte	0x0
 6268 011a 00       		.byte	0x0
 6269 011b 16       		.uleb128 0x16
 6270 011c 05       		.uleb128 0x5
 6271 011d 00       		.byte	0x0
 6272 011e 03       		.uleb128 0x3
 6273 011f 0E       		.uleb128 0xe
 6274 0120 3A       		.uleb128 0x3a
 6275 0121 0B       		.uleb128 0xb
 6276 0122 3B       		.uleb128 0x3b
 6277 0123 0B       		.uleb128 0xb
 6278 0124 49       		.uleb128 0x49
 6279 0125 13       		.uleb128 0x13
 6280 0126 02       		.uleb128 0x2
 6281 0127 06       		.uleb128 0x6
 6282 0128 00       		.byte	0x0
 6283 0129 00       		.byte	0x0
 6284 012a 17       		.uleb128 0x17
 6285 012b 2E       		.uleb128 0x2e
 6286 012c 01       		.byte	0x1
 6287 012d 3F       		.uleb128 0x3f
 6288 012e 0C       		.uleb128 0xc
 6289 012f 03       		.uleb128 0x3
 6290 0130 0E       		.uleb128 0xe
 6291 0131 3A       		.uleb128 0x3a
 6292 0132 0B       		.uleb128 0xb
 6293 0133 3B       		.uleb128 0x3b
 6294 0134 0B       		.uleb128 0xb
 6295 0135 27       		.uleb128 0x27
 6296 0136 0C       		.uleb128 0xc
 6297 0137 11       		.uleb128 0x11
 6298 0138 01       		.uleb128 0x1
 6299 0139 12       		.uleb128 0x12
 6300 013a 01       		.uleb128 0x1
 6301 013b 40       		.uleb128 0x40
 6302 013c 06       		.uleb128 0x6
 6303 013d 01       		.uleb128 0x1
 6304 013e 13       		.uleb128 0x13
 6305 013f 00       		.byte	0x0
 6306 0140 00       		.byte	0x0
 6307 0141 18       		.uleb128 0x18
 6308 0142 1D       		.uleb128 0x1d
 6309 0143 01       		.byte	0x1
 6310 0144 31       		.uleb128 0x31
 6311 0145 13       		.uleb128 0x13
 6312 0146 52       		.uleb128 0x52
 6313 0147 01       		.uleb128 0x1
 6314 0148 55       		.uleb128 0x55
 6315 0149 06       		.uleb128 0x6
 6316 014a 58       		.uleb128 0x58
 6317 014b 0B       		.uleb128 0xb
 6318 014c 59       		.uleb128 0x59
 6319 014d 0B       		.uleb128 0xb
 6320 014e 01       		.uleb128 0x1
 6321 014f 13       		.uleb128 0x13
 6322 0150 00       		.byte	0x0
ARM GAS  C:\DOCUME~1\ADMINI~1\LOCALS~1\Temp\cc1Hp51A.s 			page 138


 6323 0151 00       		.byte	0x0
 6324 0152 19       		.uleb128 0x19
 6325 0153 05       		.uleb128 0x5
 6326 0154 00       		.byte	0x0
 6327 0155 31       		.uleb128 0x31
 6328 0156 13       		.uleb128 0x13
 6329 0157 02       		.uleb128 0x2
 6330 0158 0A       		.uleb128 0xa
 6331 0159 00       		.byte	0x0
 6332 015a 00       		.byte	0x0
 6333 015b 1A       		.uleb128 0x1a
 6334 015c 0B       		.uleb128 0xb
 6335 015d 01       		.byte	0x1
 6336 015e 55       		.uleb128 0x55
 6337 015f 06       		.uleb128 0x6
 6338 0160 00       		.byte	0x0
 6339 0161 00       		.byte	0x0
 6340 0162 1B       		.uleb128 0x1b
 6341 0163 34       		.uleb128 0x34
 6342 0164 00       		.byte	0x0
 6343 0165 31       		.uleb128 0x31
 6344 0166 13       		.uleb128 0x13
 6345 0167 02       		.uleb128 0x2
 6346 0168 06       		.uleb128 0x6
 6347 0169 00       		.byte	0x0
 6348 016a 00       		.byte	0x0
 6349 016b 1C       		.uleb128 0x1c
 6350 016c 1D       		.uleb128 0x1d
 6351 016d 01       		.byte	0x1
 6352 016e 31       		.uleb128 0x31
 6353 016f 13       		.uleb128 0x13
 6354 0170 52       		.uleb128 0x52
 6355 0171 01       		.uleb128 0x1
 6356 0172 55       		.uleb128 0x55
 6357 0173 06       		.uleb128 0x6
 6358 0174 58       		.uleb128 0x58
 6359 0175 0B       		.uleb128 0xb
 6360 0176 59       		.uleb128 0x59
 6361 0177 0B       		.uleb128 0xb
 6362 0178 00       		.byte	0x0
 6363 0179 00       		.byte	0x0
 6364 017a 1D       		.uleb128 0x1d
 6365 017b 05       		.uleb128 0x5
 6366 017c 00       		.byte	0x0
 6367 017d 31       		.uleb128 0x31
 6368 017e 13       		.uleb128 0x13
 6369 017f 02       		.uleb128 0x2
 6370 0180 06       		.uleb128 0x6
 6371 0181 00       		.byte	0x0
 6372 0182 00       		.byte	0x0
 6373 0183 1E       		.uleb128 0x1e
 6374 0184 2E       		.uleb128 0x2e
 6375 0185 01       		.byte	0x1
 6376 0186 31       		.uleb128 0x31
 6377 0187 13       		.uleb128 0x13
 6378 0188 11       		.uleb128 0x11
 6379 0189 01       		.uleb128 0x1
ARM GAS  C:\DOCUME~1\ADMINI~1\LOCALS~1\Temp\cc1Hp51A.s 			page 139


 6380 018a 12       		.uleb128 0x12
 6381 018b 01       		.uleb128 0x1
 6382 018c 40       		.uleb128 0x40
 6383 018d 0A       		.uleb128 0xa
 6384 018e 01       		.uleb128 0x1
 6385 018f 13       		.uleb128 0x13
 6386 0190 00       		.byte	0x0
 6387 0191 00       		.byte	0x0
 6388 0192 1F       		.uleb128 0x1f
 6389 0193 2E       		.uleb128 0x2e
 6390 0194 00       		.byte	0x0
 6391 0195 3F       		.uleb128 0x3f
 6392 0196 0C       		.uleb128 0xc
 6393 0197 03       		.uleb128 0x3
 6394 0198 0E       		.uleb128 0xe
 6395 0199 3A       		.uleb128 0x3a
 6396 019a 0B       		.uleb128 0xb
 6397 019b 3B       		.uleb128 0x3b
 6398 019c 0B       		.uleb128 0xb
 6399 019d 27       		.uleb128 0x27
 6400 019e 0C       		.uleb128 0xc
 6401 019f 49       		.uleb128 0x49
 6402 01a0 13       		.uleb128 0x13
 6403 01a1 11       		.uleb128 0x11
 6404 01a2 01       		.uleb128 0x1
 6405 01a3 12       		.uleb128 0x12
 6406 01a4 01       		.uleb128 0x1
 6407 01a5 40       		.uleb128 0x40
 6408 01a6 06       		.uleb128 0x6
 6409 01a7 00       		.byte	0x0
 6410 01a8 00       		.byte	0x0
 6411 01a9 20       		.uleb128 0x20
 6412 01aa 1D       		.uleb128 0x1d
 6413 01ab 01       		.byte	0x1
 6414 01ac 31       		.uleb128 0x31
 6415 01ad 13       		.uleb128 0x13
 6416 01ae 11       		.uleb128 0x11
 6417 01af 01       		.uleb128 0x1
 6418 01b0 12       		.uleb128 0x12
 6419 01b1 01       		.uleb128 0x1
 6420 01b2 58       		.uleb128 0x58
 6421 01b3 0B       		.uleb128 0xb
 6422 01b4 59       		.uleb128 0x59
 6423 01b5 0B       		.uleb128 0xb
 6424 01b6 00       		.byte	0x0
 6425 01b7 00       		.byte	0x0
 6426 01b8 21       		.uleb128 0x21
 6427 01b9 1D       		.uleb128 0x1d
 6428 01ba 01       		.byte	0x1
 6429 01bb 31       		.uleb128 0x31
 6430 01bc 13       		.uleb128 0x13
 6431 01bd 11       		.uleb128 0x11
 6432 01be 01       		.uleb128 0x1
 6433 01bf 12       		.uleb128 0x12
 6434 01c0 01       		.uleb128 0x1
 6435 01c1 58       		.uleb128 0x58
 6436 01c2 0B       		.uleb128 0xb
ARM GAS  C:\DOCUME~1\ADMINI~1\LOCALS~1\Temp\cc1Hp51A.s 			page 140


 6437 01c3 59       		.uleb128 0x59
 6438 01c4 0B       		.uleb128 0xb
 6439 01c5 01       		.uleb128 0x1
 6440 01c6 13       		.uleb128 0x13
 6441 01c7 00       		.byte	0x0
 6442 01c8 00       		.byte	0x0
 6443 01c9 22       		.uleb128 0x22
 6444 01ca 05       		.uleb128 0x5
 6445 01cb 00       		.byte	0x0
 6446 01cc 03       		.uleb128 0x3
 6447 01cd 0E       		.uleb128 0xe
 6448 01ce 3A       		.uleb128 0x3a
 6449 01cf 0B       		.uleb128 0xb
 6450 01d0 3B       		.uleb128 0x3b
 6451 01d1 0B       		.uleb128 0xb
 6452 01d2 49       		.uleb128 0x49
 6453 01d3 13       		.uleb128 0x13
 6454 01d4 02       		.uleb128 0x2
 6455 01d5 0A       		.uleb128 0xa
 6456 01d6 00       		.byte	0x0
 6457 01d7 00       		.byte	0x0
 6458 01d8 23       		.uleb128 0x23
 6459 01d9 34       		.uleb128 0x34
 6460 01da 00       		.byte	0x0
 6461 01db 03       		.uleb128 0x3
 6462 01dc 0E       		.uleb128 0xe
 6463 01dd 3A       		.uleb128 0x3a
 6464 01de 0B       		.uleb128 0xb
 6465 01df 3B       		.uleb128 0x3b
 6466 01e0 0B       		.uleb128 0xb
 6467 01e1 49       		.uleb128 0x49
 6468 01e2 13       		.uleb128 0x13
 6469 01e3 02       		.uleb128 0x2
 6470 01e4 06       		.uleb128 0x6
 6471 01e5 00       		.byte	0x0
 6472 01e6 00       		.byte	0x0
 6473 01e7 24       		.uleb128 0x24
 6474 01e8 34       		.uleb128 0x34
 6475 01e9 00       		.byte	0x0
 6476 01ea 03       		.uleb128 0x3
 6477 01eb 0E       		.uleb128 0xe
 6478 01ec 3A       		.uleb128 0x3a
 6479 01ed 0B       		.uleb128 0xb
 6480 01ee 3B       		.uleb128 0x3b
 6481 01ef 0B       		.uleb128 0xb
 6482 01f0 49       		.uleb128 0x49
 6483 01f1 13       		.uleb128 0x13
 6484 01f2 02       		.uleb128 0x2
 6485 01f3 0A       		.uleb128 0xa
 6486 01f4 00       		.byte	0x0
 6487 01f5 00       		.byte	0x0
 6488 01f6 25       		.uleb128 0x25
 6489 01f7 1D       		.uleb128 0x1d
 6490 01f8 01       		.byte	0x1
 6491 01f9 31       		.uleb128 0x31
 6492 01fa 13       		.uleb128 0x13
 6493 01fb 52       		.uleb128 0x52
ARM GAS  C:\DOCUME~1\ADMINI~1\LOCALS~1\Temp\cc1Hp51A.s 			page 141


 6494 01fc 01       		.uleb128 0x1
 6495 01fd 55       		.uleb128 0x55
 6496 01fe 06       		.uleb128 0x6
 6497 01ff 58       		.uleb128 0x58
 6498 0200 0B       		.uleb128 0xb
 6499 0201 59       		.uleb128 0x59
 6500 0202 05       		.uleb128 0x5
 6501 0203 01       		.uleb128 0x1
 6502 0204 13       		.uleb128 0x13
 6503 0205 00       		.byte	0x0
 6504 0206 00       		.byte	0x0
 6505 0207 26       		.uleb128 0x26
 6506 0208 1D       		.uleb128 0x1d
 6507 0209 01       		.byte	0x1
 6508 020a 31       		.uleb128 0x31
 6509 020b 13       		.uleb128 0x13
 6510 020c 11       		.uleb128 0x11
 6511 020d 01       		.uleb128 0x1
 6512 020e 12       		.uleb128 0x12
 6513 020f 01       		.uleb128 0x1
 6514 0210 58       		.uleb128 0x58
 6515 0211 0B       		.uleb128 0xb
 6516 0212 59       		.uleb128 0x59
 6517 0213 05       		.uleb128 0x5
 6518 0214 01       		.uleb128 0x1
 6519 0215 13       		.uleb128 0x13
 6520 0216 00       		.byte	0x0
 6521 0217 00       		.byte	0x0
 6522 0218 27       		.uleb128 0x27
 6523 0219 1D       		.uleb128 0x1d
 6524 021a 01       		.byte	0x1
 6525 021b 31       		.uleb128 0x31
 6526 021c 13       		.uleb128 0x13
 6527 021d 52       		.uleb128 0x52
 6528 021e 01       		.uleb128 0x1
 6529 021f 55       		.uleb128 0x55
 6530 0220 06       		.uleb128 0x6
 6531 0221 58       		.uleb128 0x58
 6532 0222 0B       		.uleb128 0xb
 6533 0223 59       		.uleb128 0x59
 6534 0224 05       		.uleb128 0x5
 6535 0225 00       		.byte	0x0
 6536 0226 00       		.byte	0x0
 6537 0227 28       		.uleb128 0x28
 6538 0228 1D       		.uleb128 0x1d
 6539 0229 01       		.byte	0x1
 6540 022a 31       		.uleb128 0x31
 6541 022b 13       		.uleb128 0x13
 6542 022c 11       		.uleb128 0x11
 6543 022d 01       		.uleb128 0x1
 6544 022e 12       		.uleb128 0x12
 6545 022f 01       		.uleb128 0x1
 6546 0230 58       		.uleb128 0x58
 6547 0231 0B       		.uleb128 0xb
 6548 0232 59       		.uleb128 0x59
 6549 0233 05       		.uleb128 0x5
 6550 0234 00       		.byte	0x0
ARM GAS  C:\DOCUME~1\ADMINI~1\LOCALS~1\Temp\cc1Hp51A.s 			page 142


 6551 0235 00       		.byte	0x0
 6552 0236 29       		.uleb128 0x29
 6553 0237 2E       		.uleb128 0x2e
 6554 0238 01       		.byte	0x1
 6555 0239 31       		.uleb128 0x31
 6556 023a 13       		.uleb128 0x13
 6557 023b 11       		.uleb128 0x11
 6558 023c 01       		.uleb128 0x1
 6559 023d 12       		.uleb128 0x12
 6560 023e 01       		.uleb128 0x1
 6561 023f 40       		.uleb128 0x40
 6562 0240 06       		.uleb128 0x6
 6563 0241 01       		.uleb128 0x1
 6564 0242 13       		.uleb128 0x13
 6565 0243 00       		.byte	0x0
 6566 0244 00       		.byte	0x0
 6567 0245 2A       		.uleb128 0x2a
 6568 0246 34       		.uleb128 0x34
 6569 0247 00       		.byte	0x0
 6570 0248 31       		.uleb128 0x31
 6571 0249 13       		.uleb128 0x13
 6572 024a 02       		.uleb128 0x2
 6573 024b 0A       		.uleb128 0xa
 6574 024c 00       		.byte	0x0
 6575 024d 00       		.byte	0x0
 6576 024e 2B       		.uleb128 0x2b
 6577 024f 2E       		.uleb128 0x2e
 6578 0250 01       		.byte	0x1
 6579 0251 3F       		.uleb128 0x3f
 6580 0252 0C       		.uleb128 0xc
 6581 0253 03       		.uleb128 0x3
 6582 0254 0E       		.uleb128 0xe
 6583 0255 3A       		.uleb128 0x3a
 6584 0256 0B       		.uleb128 0xb
 6585 0257 3B       		.uleb128 0x3b
 6586 0258 05       		.uleb128 0x5
 6587 0259 27       		.uleb128 0x27
 6588 025a 0C       		.uleb128 0xc
 6589 025b 11       		.uleb128 0x11
 6590 025c 01       		.uleb128 0x1
 6591 025d 12       		.uleb128 0x12
 6592 025e 01       		.uleb128 0x1
 6593 025f 40       		.uleb128 0x40
 6594 0260 06       		.uleb128 0x6
 6595 0261 01       		.uleb128 0x1
 6596 0262 13       		.uleb128 0x13
 6597 0263 00       		.byte	0x0
 6598 0264 00       		.byte	0x0
 6599 0265 2C       		.uleb128 0x2c
 6600 0266 05       		.uleb128 0x5
 6601 0267 00       		.byte	0x0
 6602 0268 03       		.uleb128 0x3
 6603 0269 0E       		.uleb128 0xe
 6604 026a 3A       		.uleb128 0x3a
 6605 026b 0B       		.uleb128 0xb
 6606 026c 3B       		.uleb128 0x3b
 6607 026d 05       		.uleb128 0x5
ARM GAS  C:\DOCUME~1\ADMINI~1\LOCALS~1\Temp\cc1Hp51A.s 			page 143


 6608 026e 49       		.uleb128 0x49
 6609 026f 13       		.uleb128 0x13
 6610 0270 02       		.uleb128 0x2
 6611 0271 06       		.uleb128 0x6
 6612 0272 00       		.byte	0x0
 6613 0273 00       		.byte	0x0
 6614 0274 2D       		.uleb128 0x2d
 6615 0275 05       		.uleb128 0x5
 6616 0276 00       		.byte	0x0
 6617 0277 03       		.uleb128 0x3
 6618 0278 0E       		.uleb128 0xe
 6619 0279 3A       		.uleb128 0x3a
 6620 027a 0B       		.uleb128 0xb
 6621 027b 3B       		.uleb128 0x3b
 6622 027c 05       		.uleb128 0x5
 6623 027d 49       		.uleb128 0x49
 6624 027e 13       		.uleb128 0x13
 6625 027f 02       		.uleb128 0x2
 6626 0280 0A       		.uleb128 0xa
 6627 0281 00       		.byte	0x0
 6628 0282 00       		.byte	0x0
 6629 0283 2E       		.uleb128 0x2e
 6630 0284 34       		.uleb128 0x34
 6631 0285 00       		.byte	0x0
 6632 0286 03       		.uleb128 0x3
 6633 0287 0E       		.uleb128 0xe
 6634 0288 3A       		.uleb128 0x3a
 6635 0289 0B       		.uleb128 0xb
 6636 028a 3B       		.uleb128 0x3b
 6637 028b 05       		.uleb128 0x5
 6638 028c 49       		.uleb128 0x49
 6639 028d 13       		.uleb128 0x13
 6640 028e 02       		.uleb128 0x2
 6641 028f 06       		.uleb128 0x6
 6642 0290 00       		.byte	0x0
 6643 0291 00       		.byte	0x0
 6644 0292 2F       		.uleb128 0x2f
 6645 0293 34       		.uleb128 0x34
 6646 0294 00       		.byte	0x0
 6647 0295 03       		.uleb128 0x3
 6648 0296 0E       		.uleb128 0xe
 6649 0297 3A       		.uleb128 0x3a
 6650 0298 0B       		.uleb128 0xb
 6651 0299 3B       		.uleb128 0x3b
 6652 029a 05       		.uleb128 0x5
 6653 029b 49       		.uleb128 0x49
 6654 029c 13       		.uleb128 0x13
 6655 029d 02       		.uleb128 0x2
 6656 029e 0A       		.uleb128 0xa
 6657 029f 00       		.byte	0x0
 6658 02a0 00       		.byte	0x0
 6659 02a1 30       		.uleb128 0x30
 6660 02a2 2E       		.uleb128 0x2e
 6661 02a3 01       		.byte	0x1
 6662 02a4 3F       		.uleb128 0x3f
 6663 02a5 0C       		.uleb128 0xc
 6664 02a6 03       		.uleb128 0x3
ARM GAS  C:\DOCUME~1\ADMINI~1\LOCALS~1\Temp\cc1Hp51A.s 			page 144


 6665 02a7 0E       		.uleb128 0xe
 6666 02a8 3A       		.uleb128 0x3a
 6667 02a9 0B       		.uleb128 0xb
 6668 02aa 3B       		.uleb128 0x3b
 6669 02ab 05       		.uleb128 0x5
 6670 02ac 27       		.uleb128 0x27
 6671 02ad 0C       		.uleb128 0xc
 6672 02ae 49       		.uleb128 0x49
 6673 02af 13       		.uleb128 0x13
 6674 02b0 11       		.uleb128 0x11
 6675 02b1 01       		.uleb128 0x1
 6676 02b2 12       		.uleb128 0x12
 6677 02b3 01       		.uleb128 0x1
 6678 02b4 40       		.uleb128 0x40
 6679 02b5 06       		.uleb128 0x6
 6680 02b6 01       		.uleb128 0x1
 6681 02b7 13       		.uleb128 0x13
 6682 02b8 00       		.byte	0x0
 6683 02b9 00       		.byte	0x0
 6684 02ba 31       		.uleb128 0x31
 6685 02bb 0B       		.uleb128 0xb
 6686 02bc 01       		.byte	0x1
 6687 02bd 11       		.uleb128 0x11
 6688 02be 01       		.uleb128 0x1
 6689 02bf 12       		.uleb128 0x12
 6690 02c0 01       		.uleb128 0x1
 6691 02c1 00       		.byte	0x0
 6692 02c2 00       		.byte	0x0
 6693 02c3 32       		.uleb128 0x32
 6694 02c4 2E       		.uleb128 0x2e
 6695 02c5 01       		.byte	0x1
 6696 02c6 3F       		.uleb128 0x3f
 6697 02c7 0C       		.uleb128 0xc
 6698 02c8 03       		.uleb128 0x3
 6699 02c9 0E       		.uleb128 0xe
 6700 02ca 3A       		.uleb128 0x3a
 6701 02cb 0B       		.uleb128 0xb
 6702 02cc 3B       		.uleb128 0x3b
 6703 02cd 05       		.uleb128 0x5
 6704 02ce 27       		.uleb128 0x27
 6705 02cf 0C       		.uleb128 0xc
 6706 02d0 49       		.uleb128 0x49
 6707 02d1 13       		.uleb128 0x13
 6708 02d2 11       		.uleb128 0x11
 6709 02d3 01       		.uleb128 0x1
 6710 02d4 12       		.uleb128 0x12
 6711 02d5 01       		.uleb128 0x1
 6712 02d6 40       		.uleb128 0x40
 6713 02d7 0A       		.uleb128 0xa
 6714 02d8 01       		.uleb128 0x1
 6715 02d9 13       		.uleb128 0x13
 6716 02da 00       		.byte	0x0
 6717 02db 00       		.byte	0x0
 6718 02dc 33       		.uleb128 0x33
 6719 02dd 34       		.uleb128 0x34
 6720 02de 00       		.byte	0x0
 6721 02df 31       		.uleb128 0x31
ARM GAS  C:\DOCUME~1\ADMINI~1\LOCALS~1\Temp\cc1Hp51A.s 			page 145


 6722 02e0 13       		.uleb128 0x13
 6723 02e1 00       		.byte	0x0
 6724 02e2 00       		.byte	0x0
 6725 02e3 34       		.uleb128 0x34
 6726 02e4 05       		.uleb128 0x5
 6727 02e5 00       		.byte	0x0
 6728 02e6 31       		.uleb128 0x31
 6729 02e7 13       		.uleb128 0x13
 6730 02e8 00       		.byte	0x0
 6731 02e9 00       		.byte	0x0
 6732 02ea 35       		.uleb128 0x35
 6733 02eb 2E       		.uleb128 0x2e
 6734 02ec 00       		.byte	0x0
 6735 02ed 3F       		.uleb128 0x3f
 6736 02ee 0C       		.uleb128 0xc
 6737 02ef 03       		.uleb128 0x3
 6738 02f0 0E       		.uleb128 0xe
 6739 02f1 3A       		.uleb128 0x3a
 6740 02f2 0B       		.uleb128 0xb
 6741 02f3 3B       		.uleb128 0x3b
 6742 02f4 05       		.uleb128 0x5
 6743 02f5 27       		.uleb128 0x27
 6744 02f6 0C       		.uleb128 0xc
 6745 02f7 49       		.uleb128 0x49
 6746 02f8 13       		.uleb128 0x13
 6747 02f9 11       		.uleb128 0x11
 6748 02fa 01       		.uleb128 0x1
 6749 02fb 12       		.uleb128 0x12
 6750 02fc 01       		.uleb128 0x1
 6751 02fd 40       		.uleb128 0x40
 6752 02fe 0A       		.uleb128 0xa
 6753 02ff 00       		.byte	0x0
 6754 0300 00       		.byte	0x0
 6755 0301 36       		.uleb128 0x36
 6756 0302 2E       		.uleb128 0x2e
 6757 0303 00       		.byte	0x0
 6758 0304 3F       		.uleb128 0x3f
 6759 0305 0C       		.uleb128 0xc
 6760 0306 03       		.uleb128 0x3
 6761 0307 0E       		.uleb128 0xe
 6762 0308 3A       		.uleb128 0x3a
 6763 0309 0B       		.uleb128 0xb
 6764 030a 3B       		.uleb128 0x3b
 6765 030b 05       		.uleb128 0x5
 6766 030c 27       		.uleb128 0x27
 6767 030d 0C       		.uleb128 0xc
 6768 030e 49       		.uleb128 0x49
 6769 030f 13       		.uleb128 0x13
 6770 0310 11       		.uleb128 0x11
 6771 0311 01       		.uleb128 0x1
 6772 0312 12       		.uleb128 0x12
 6773 0313 01       		.uleb128 0x1
 6774 0314 40       		.uleb128 0x40
 6775 0315 06       		.uleb128 0x6
 6776 0316 00       		.byte	0x0
 6777 0317 00       		.byte	0x0
 6778 0318 37       		.uleb128 0x37
ARM GAS  C:\DOCUME~1\ADMINI~1\LOCALS~1\Temp\cc1Hp51A.s 			page 146


 6779 0319 2E       		.uleb128 0x2e
 6780 031a 00       		.byte	0x0
 6781 031b 3F       		.uleb128 0x3f
 6782 031c 0C       		.uleb128 0xc
 6783 031d 03       		.uleb128 0x3
 6784 031e 0E       		.uleb128 0xe
 6785 031f 3A       		.uleb128 0x3a
 6786 0320 0B       		.uleb128 0xb
 6787 0321 3B       		.uleb128 0x3b
 6788 0322 0B       		.uleb128 0xb
 6789 0323 27       		.uleb128 0x27
 6790 0324 0C       		.uleb128 0xc
 6791 0325 11       		.uleb128 0x11
 6792 0326 01       		.uleb128 0x1
 6793 0327 12       		.uleb128 0x12
 6794 0328 01       		.uleb128 0x1
 6795 0329 40       		.uleb128 0x40
 6796 032a 0A       		.uleb128 0xa
 6797 032b 00       		.byte	0x0
 6798 032c 00       		.byte	0x0
 6799 032d 38       		.uleb128 0x38
 6800 032e 21       		.uleb128 0x21
 6801 032f 00       		.byte	0x0
 6802 0330 49       		.uleb128 0x49
 6803 0331 13       		.uleb128 0x13
 6804 0332 2F       		.uleb128 0x2f
 6805 0333 05       		.uleb128 0x5
 6806 0334 00       		.byte	0x0
 6807 0335 00       		.byte	0x0
 6808 0336 39       		.uleb128 0x39
 6809 0337 34       		.uleb128 0x34
 6810 0338 00       		.byte	0x0
 6811 0339 03       		.uleb128 0x3
 6812 033a 0E       		.uleb128 0xe
 6813 033b 3A       		.uleb128 0x3a
 6814 033c 0B       		.uleb128 0xb
 6815 033d 3B       		.uleb128 0x3b
 6816 033e 0B       		.uleb128 0xb
 6817 033f 49       		.uleb128 0x49
 6818 0340 13       		.uleb128 0x13
 6819 0341 3F       		.uleb128 0x3f
 6820 0342 0C       		.uleb128 0xc
 6821 0343 3C       		.uleb128 0x3c
 6822 0344 0C       		.uleb128 0xc
 6823 0345 00       		.byte	0x0
 6824 0346 00       		.byte	0x0
 6825 0347 3A       		.uleb128 0x3a
 6826 0348 26       		.uleb128 0x26
 6827 0349 00       		.byte	0x0
 6828 034a 49       		.uleb128 0x49
 6829 034b 13       		.uleb128 0x13
 6830 034c 00       		.byte	0x0
 6831 034d 00       		.byte	0x0
 6832 034e 3B       		.uleb128 0x3b
 6833 034f 34       		.uleb128 0x34
 6834 0350 00       		.byte	0x0
 6835 0351 03       		.uleb128 0x3
ARM GAS  C:\DOCUME~1\ADMINI~1\LOCALS~1\Temp\cc1Hp51A.s 			page 147


 6836 0352 0E       		.uleb128 0xe
 6837 0353 3A       		.uleb128 0x3a
 6838 0354 0B       		.uleb128 0xb
 6839 0355 3B       		.uleb128 0x3b
 6840 0356 0B       		.uleb128 0xb
 6841 0357 49       		.uleb128 0x49
 6842 0358 13       		.uleb128 0x13
 6843 0359 3F       		.uleb128 0x3f
 6844 035a 0C       		.uleb128 0xc
 6845 035b 02       		.uleb128 0x2
 6846 035c 0A       		.uleb128 0xa
 6847 035d 00       		.byte	0x0
 6848 035e 00       		.byte	0x0
 6849 035f 00       		.byte	0x0
 6850              		.section	.debug_pubnames,"",%progbits
 6851 0000 8E030000 		.4byte	0x38e
 6852 0004 0200     		.2byte	0x2
 6853 0006 00000000 		.4byte	.Ldebug_info0
 6854 000a 7C130000 		.4byte	0x137c
 6855 000e 19060000 		.4byte	0x619
 6856 0012 4D44535F 		.ascii	"MDS_TickTimerInit\000"
 6856      5469636B 
 6856      54696D65 
 6856      72496E69 
 6856      7400
 6857 0024 46060000 		.4byte	0x646
 6858 0028 4D44535F 		.ascii	"MDS_SystemVarInit\000"
 6858      53797374 
 6858      656D5661 
 6858      72496E69 
 6858      7400
 6859 003a C4060000 		.4byte	0x6c4
 6860 003e 4D44535F 		.ascii	"MDS_TaskSwitch\000"
 6860      5461736B 
 6860      53776974 
 6860      636800
 6861 004d E0060000 		.4byte	0x6e0
 6862 0051 4D44535F 		.ascii	"MDS_TaskStart\000"
 6862      5461736B 
 6862      53746172 
 6862      7400
 6863 005f 09070000 		.4byte	0x709
 6864 0063 6D61696E 		.ascii	"main\000"
 6864      00
 6865 0068 22070000 		.4byte	0x722
 6866 006c 4D44535F 		.ascii	"MDS_TaskSchedTabInit\000"
 6866      5461736B 
 6866      53636865 
 6866      64546162 
 6866      496E6974 
 6867 0081 60070000 		.4byte	0x760
 6868 0085 4D44535F 		.ascii	"MDS_TaskAddToSchedTab\000"
 6868      5461736B 
 6868      41646454 
 6868      6F536368 
 6868      65645461 
 6869 009b DD070000 		.4byte	0x7dd
ARM GAS  C:\DOCUME~1\ADMINI~1\LOCALS~1\Temp\cc1Hp51A.s 			page 148


 6870 009f 4D44535F 		.ascii	"MDS_TaskAddToDelayTab\000"
 6870      5461736B 
 6870      41646454 
 6870      6F44656C 
 6870      61795461 
 6871 00b5 32090000 		.4byte	0x932
 6872 00b9 4D44535F 		.ascii	"MDS_TaskDelFromSchedTab\000"
 6872      5461736B 
 6872      44656C46 
 6872      726F6D53 
 6872      63686564 
 6873 00d1 B6090000 		.4byte	0x9b6
 6874 00d5 4D44535F 		.ascii	"MDS_TaskAddToSemTab\000"
 6874      5461736B 
 6874      41646454 
 6874      6F53656D 
 6874      54616200 
 6875 00e9 D00A0000 		.4byte	0xad0
 6876 00ed 4D44535F 		.ascii	"MDS_TaskDelFromSemTab\000"
 6876      5461736B 
 6876      44656C46 
 6876      726F6D53 
 6876      656D5461 
 6877 0103 070C0000 		.4byte	0xc07
 6878 0107 4D44535F 		.ascii	"MDS_SemGetActiveTask\000"
 6878      53656D47 
 6878      65744163 
 6878      74697665 
 6878      5461736B 
 6879 011c 970C0000 		.4byte	0xc97
 6880 0120 4D44535F 		.ascii	"MDS_TaskReadySched\000"
 6880      5461736B 
 6880      52656164 
 6880      79536368 
 6880      656400
 6881 0133 3F0D0000 		.4byte	0xd3f
 6882 0137 4D44535F 		.ascii	"MDS_TaskReadyTabSched\000"
 6882      5461736B 
 6882      52656164 
 6882      79546162 
 6882      53636865 
 6883 014d 9A0D0000 		.4byte	0xd9a
 6884 0151 4D44535F 		.ascii	"MDS_TaskPrioFlagSet\000"
 6884      5461736B 
 6884      5072696F 
 6884      466C6167 
 6884      53657400 
 6885 0165 BD0D0000 		.4byte	0xdbd
 6886 0169 4D44535F 		.ascii	"MDS_TaskPrioFlagClr\000"
 6886      5461736B 
 6886      5072696F 
 6886      466C6167 
 6886      436C7200 
 6887 017d E00D0000 		.4byte	0xde0
 6888 0181 4D44535F 		.ascii	"MDS_TaskHighestPrioGet\000"
 6888      5461736B 
 6888      48696768 
ARM GAS  C:\DOCUME~1\ADMINI~1\LOCALS~1\Temp\cc1Hp51A.s 			page 149


 6888      65737450 
 6888      72696F47 
 6889 0198 FE0D0000 		.4byte	0xdfe
 6890 019c 4D44535F 		.ascii	"MDS_SystemTickGet\000"
 6890      53797374 
 6890      656D5469 
 6890      636B4765 
 6890      7400
 6891 01ae 170E0000 		.4byte	0xe17
 6892 01b2 4D44535F 		.ascii	"MDS_CurrentTcbGet\000"
 6892      43757272 
 6892      656E7454 
 6892      63624765 
 6892      7400
 6893 01c4 300E0000 		.4byte	0xe30
 6894 01c8 4D44535F 		.ascii	"MDS_IntLock\000"
 6894      496E744C 
 6894      6F636B00 
 6895 01d4 4A0E0000 		.4byte	0xe4a
 6896 01d8 4D44535F 		.ascii	"MDS_IntUnlock\000"
 6896      496E7455 
 6896      6E6C6F63 
 6896      6B00
 6897 01e6 640E0000 		.4byte	0xe64
 6898 01ea 4D44535F 		.ascii	"MDS_ChainInit\000"
 6898      43686169 
 6898      6E496E69 
 6898      7400
 6899 01f8 800E0000 		.4byte	0xe80
 6900 01fc 4D44535F 		.ascii	"MDS_ChainNodeAdd\000"
 6900      43686169 
 6900      6E4E6F64 
 6900      65416464 
 6900      00
 6901 020d A30E0000 		.4byte	0xea3
 6902 0211 4D44535F 		.ascii	"MDS_ChainNodeDelete\000"
 6902      43686169 
 6902      6E4E6F64 
 6902      6544656C 
 6902      65746500 
 6903 0225 CA0E0000 		.4byte	0xeca
 6904 0229 4D44535F 		.ascii	"MDS_ChainCurNodeInsert\000"
 6904      43686169 
 6904      6E437572 
 6904      4E6F6465 
 6904      496E7365 
 6905 0240 150F0000 		.4byte	0xf15
 6906 0244 4D44535F 		.ascii	"MDS_ChainCurNodeDelete\000"
 6906      43686169 
 6906      6E437572 
 6906      4E6F6465 
 6906      44656C65 
 6907 025b 7E0F0000 		.4byte	0xf7e
 6908 025f 4D44535F 		.ascii	"MDS_TaskDelayTabSched\000"
 6908      5461736B 
 6908      44656C61 
 6908      79546162 
ARM GAS  C:\DOCUME~1\ADMINI~1\LOCALS~1\Temp\cc1Hp51A.s 			page 150


 6908      53636865 
 6909 0275 C7100000 		.4byte	0x10c7
 6910 0279 4D44535F 		.ascii	"MDS_TaskSched\000"
 6910      5461736B 
 6910      53636865 
 6910      6400
 6911 0287 6F110000 		.4byte	0x116f
 6912 028b 4D44535F 		.ascii	"MDS_TaskTick\000"
 6912      5461736B 
 6912      5469636B 
 6912      00
 6913 0298 83110000 		.4byte	0x1183
 6914 029c 4D44535F 		.ascii	"MDS_ChainEmpInq\000"
 6914      43686169 
 6914      6E456D70 
 6914      496E7100 
 6915 02ac A1110000 		.4byte	0x11a1
 6916 02b0 4D44535F 		.ascii	"MDS_ChainNextNodeEmpInq\000"
 6916      43686169 
 6916      6E4E6578 
 6916      744E6F64 
 6916      65456D70 
 6917 02c8 B5120000 		.4byte	0x12b5
 6918 02cc 67737472 		.ascii	"gstrReadyTab\000"
 6918      52656164 
 6918      79546162 
 6918      00
 6919 02d9 C7120000 		.4byte	0x12c7
 6920 02dd 67737472 		.ascii	"gstrDelayTab\000"
 6920      44656C61 
 6920      79546162 
 6920      00
 6921 02ea D9120000 		.4byte	0x12d9
 6922 02ee 67756954 		.ascii	"guiTick\000"
 6922      69636B00 
 6923 02f6 EB120000 		.4byte	0x12eb
 6924 02fa 67707374 		.ascii	"gpstrCurTaskSpAddr\000"
 6924      72437572 
 6924      5461736B 
 6924      53704164 
 6924      647200
 6925 030d FD120000 		.4byte	0x12fd
 6926 0311 67707374 		.ascii	"gpstrNextTaskSpAddr\000"
 6926      724E6578 
 6926      74546173 
 6926      6B537041 
 6926      64647200 
 6927 0325 0F130000 		.4byte	0x130f
 6928 0329 67707374 		.ascii	"gpstrCurTcb\000"
 6928      72437572 
 6928      54636200 
 6929 0335 21130000 		.4byte	0x1321
 6930 0339 67707374 		.ascii	"gpstrRootTaskTcb\000"
 6930      72526F6F 
 6930      74546173 
 6930      6B546362 
 6930      00
ARM GAS  C:\DOCUME~1\ADMINI~1\LOCALS~1\Temp\cc1Hp51A.s 			page 151


 6931 034a 33130000 		.4byte	0x1333
 6932 034e 67707374 		.ascii	"gpstrIdleTaskTcb\000"
 6932      7249646C 
 6932      65546173 
 6932      6B546362 
 6932      00
 6933 035f 45130000 		.4byte	0x1345
 6934 0363 67756949 		.ascii	"guiIntLockCounter\000"
 6934      6E744C6F 
 6934      636B436F 
 6934      756E7465 
 6934      7200
 6935 0375 57130000 		.4byte	0x1357
 6936 0379 63617563 		.ascii	"caucTaskPrioUnmapTab\000"
 6936      5461736B 
 6936      5072696F 
 6936      556E6D61 
 6936      70546162 
 6937 038e 00000000 		.4byte	0x0
 6938              		.section	.debug_pubtypes,"",%progbits
 6939 0000 0E010000 		.4byte	0x10e
 6940 0004 0200     		.2byte	0x2
 6941 0006 00000000 		.4byte	.Ldebug_info0
 6942 000a 7C130000 		.4byte	0x137c
 6943 000e 25000000 		.4byte	0x25
 6944 0012 553800   		.ascii	"U8\000"
 6945 0015 3D000000 		.4byte	0x3d
 6946 0019 55333200 		.ascii	"U32\000"
 6947 001d 5D000000 		.4byte	0x5d
 6948 0021 53333200 		.ascii	"S32\000"
 6949 0025 6F000000 		.4byte	0x6f
 6950 0029 5646554E 		.ascii	"VFUNC\000"
 6950      4300
 6951 002f 82000000 		.4byte	0x82
 6952 0033 73746163 		.ascii	"stackreg\000"
 6952      6B726567 
 6952      00
 6953 003c 7D010000 		.4byte	0x17d
 6954 0040 53544143 		.ascii	"STACKREG\000"
 6954      4B524547 
 6954      00
 6955 0049 88010000 		.4byte	0x188
 6956 004d 6D5F6368 		.ascii	"m_chain\000"
 6956      61696E00 
 6957 0055 B7010000 		.4byte	0x1b7
 6958 0059 4D5F4348 		.ascii	"M_CHAIN\000"
 6958      41494E00 
 6959 0061 C2010000 		.4byte	0x1c2
 6960 0065 6D5F7463 		.ascii	"m_tcbque\000"
 6960      62717565 
 6960      00
 6961 006e 7C020000 		.4byte	0x27c
 6962 0072 4D5F5443 		.ascii	"M_TCBQUE\000"
 6962      42515545 
 6962      00
 6963 007b 87020000 		.4byte	0x287
 6964 007f 6D5F7461 		.ascii	"m_taskopt\000"
ARM GAS  C:\DOCUME~1\ADMINI~1\LOCALS~1\Temp\cc1Hp51A.s 			page 152


 6964      736B6F70 
 6964      7400
 6965 0089 B0020000 		.4byte	0x2b0
 6966 008d 4D5F5441 		.ascii	"M_TASKOPT\000"
 6966      534B4F50 
 6966      5400
 6967 0097 BB020000 		.4byte	0x2bb
 6968 009b 6D5F7072 		.ascii	"m_prioflag\000"
 6968      696F666C 
 6968      616700
 6969 00a6 D6020000 		.4byte	0x2d6
 6970 00aa 4D5F5052 		.ascii	"M_PRIOFLAG\000"
 6970      494F464C 
 6970      414700
 6971 00b5 E1020000 		.4byte	0x2e1
 6972 00b9 6D5F7461 		.ascii	"m_taskschedtab\000"
 6972      736B7363 
 6972      68656474 
 6972      616200
 6973 00c8 1A030000 		.4byte	0x31a
 6974 00cc 4D5F5441 		.ascii	"M_TASKSCHEDTAB\000"
 6974      534B5343 
 6974      48454454 
 6974      414200
 6975 00db 25030000 		.4byte	0x325
 6976 00df 6D5F7365 		.ascii	"m_sem\000"
 6976      6D00
 6977 00e5 5C030000 		.4byte	0x35c
 6978 00e9 4D5F5345 		.ascii	"M_SEM\000"
 6978      4D00
 6979 00ef EB010000 		.4byte	0x1eb
 6980 00f3 6D5F7463 		.ascii	"m_tcb\000"
 6980      6200
 6981 00f9 73030000 		.4byte	0x373
 6982 00fd 4D5F5443 		.ascii	"M_TCB\000"
 6982      4200
 6983 0103 84030000 		.4byte	0x384
 6984 0107 56464853 		.ascii	"VFHSWT\000"
 6984      575400
 6985 010e 00000000 		.4byte	0x0
 6986              		.section	.debug_aranges,"",%progbits
 6987 0000 1C000000 		.4byte	0x1c
 6988 0004 0200     		.2byte	0x2
 6989 0006 00000000 		.4byte	.Ldebug_info0
 6990 000a 04       		.byte	0x4
 6991 000b 00       		.byte	0x0
 6992 000c 0000     		.2byte	0x0
 6993 000e 0000     		.2byte	0x0
 6994 0010 00000000 		.4byte	.Ltext0
 6995 0014 840A0000 		.4byte	.Letext0-.Ltext0
 6996 0018 00000000 		.4byte	0x0
 6997 001c 00000000 		.4byte	0x0
 6998              		.section	.debug_ranges,"",%progbits
 6999              	.Ldebug_ranges0:
 7000 0000 6C000000 		.4byte	.LBB94-.Ltext0
 7001 0004 70000000 		.4byte	.LBE94-.Ltext0
 7002 0008 74000000 		.4byte	.LBB104-.Ltext0
ARM GAS  C:\DOCUME~1\ADMINI~1\LOCALS~1\Temp\cc1Hp51A.s 			page 153


 7003 000c B8000000 		.4byte	.LBE104-.Ltext0
 7004 0010 00000000 		.4byte	0x0
 7005 0014 00000000 		.4byte	0x0
 7006 0018 6C000000 		.4byte	.LBB95-.Ltext0
 7007 001c 70000000 		.4byte	.LBE95-.Ltext0
 7008 0020 74000000 		.4byte	.LBB100-.Ltext0
 7009 0024 B8000000 		.4byte	.LBE100-.Ltext0
 7010 0028 00000000 		.4byte	0x0
 7011 002c 00000000 		.4byte	0x0
 7012 0030 6C000000 		.4byte	.LBB96-.Ltext0
 7013 0034 70000000 		.4byte	.LBE96-.Ltext0
 7014 0038 74000000 		.4byte	.LBB99-.Ltext0
 7015 003c B4000000 		.4byte	.LBE99-.Ltext0
 7016 0040 00000000 		.4byte	0x0
 7017 0044 00000000 		.4byte	0x0
 7018 0048 70000000 		.4byte	.LBB101-.Ltext0
 7019 004c 74000000 		.4byte	.LBE101-.Ltext0
 7020 0050 B8000000 		.4byte	.LBB105-.Ltext0
 7021 0054 C0000000 		.4byte	.LBE105-.Ltext0
 7022 0058 00000000 		.4byte	0x0
 7023 005c 00000000 		.4byte	0x0
 7024 0060 B0020000 		.4byte	.LBB114-.Ltext0
 7025 0064 BC020000 		.4byte	.LBE114-.Ltext0
 7026 0068 E0020000 		.4byte	.LBB117-.Ltext0
 7027 006c EC020000 		.4byte	.LBE117-.Ltext0
 7028 0070 00000000 		.4byte	0x0
 7029 0074 00000000 		.4byte	0x0
 7030 0078 14030000 		.4byte	.LBB122-.Ltext0
 7031 007c 1C030000 		.4byte	.LBE122-.Ltext0
 7032 0080 34030000 		.4byte	.LBB129-.Ltext0
 7033 0084 3C030000 		.4byte	.LBE129-.Ltext0
 7034 0088 2C030000 		.4byte	.LBB128-.Ltext0
 7035 008c 30030000 		.4byte	.LBE128-.Ltext0
 7036 0090 20030000 		.4byte	.LBB127-.Ltext0
 7037 0094 24030000 		.4byte	.LBE127-.Ltext0
 7038 0098 00000000 		.4byte	0x0
 7039 009c 00000000 		.4byte	0x0
 7040 00a0 58030000 		.4byte	.LBB132-.Ltext0
 7041 00a4 60030000 		.4byte	.LBE132-.Ltext0
 7042 00a8 98030000 		.4byte	.LBB139-.Ltext0
 7043 00ac A4030000 		.4byte	.LBE139-.Ltext0
 7044 00b0 84030000 		.4byte	.LBB138-.Ltext0
 7045 00b4 88030000 		.4byte	.LBE138-.Ltext0
 7046 00b8 64030000 		.4byte	.LBB137-.Ltext0
 7047 00bc 80030000 		.4byte	.LBE137-.Ltext0
 7048 00c0 00000000 		.4byte	0x0
 7049 00c4 00000000 		.4byte	0x0
 7050 00c8 58030000 		.4byte	.LBB134-.Ltext0
 7051 00cc 60030000 		.4byte	.LBE134-.Ltext0
 7052 00d0 98030000 		.4byte	.LBB136-.Ltext0
 7053 00d4 A4030000 		.4byte	.LBE136-.Ltext0
 7054 00d8 84030000 		.4byte	.LBB133-.Ltext0
 7055 00dc 88030000 		.4byte	.LBE133-.Ltext0
 7056 00e0 64030000 		.4byte	.LBB135-.Ltext0
 7057 00e4 80030000 		.4byte	.LBE135-.Ltext0
 7058 00e8 00000000 		.4byte	0x0
 7059 00ec 00000000 		.4byte	0x0
ARM GAS  C:\DOCUME~1\ADMINI~1\LOCALS~1\Temp\cc1Hp51A.s 			page 154


 7060 00f0 CC030000 		.4byte	.LBB142-.Ltext0
 7061 00f4 D8030000 		.4byte	.LBE142-.Ltext0
 7062 00f8 E0030000 		.4byte	.LBB145-.Ltext0
 7063 00fc 00040000 		.4byte	.LBE145-.Ltext0
 7064 0100 00000000 		.4byte	0x0
 7065 0104 00000000 		.4byte	0x0
 7066 0108 10040000 		.4byte	.LBB146-.Ltext0
 7067 010c 1C040000 		.4byte	.LBE146-.Ltext0
 7068 0110 20040000 		.4byte	.LBB157-.Ltext0
 7069 0114 54040000 		.4byte	.LBE157-.Ltext0
 7070 0118 00000000 		.4byte	0x0
 7071 011c 00000000 		.4byte	0x0
 7072 0120 10040000 		.4byte	.LBB147-.Ltext0
 7073 0124 1C040000 		.4byte	.LBE147-.Ltext0
 7074 0128 3C040000 		.4byte	.LBB155-.Ltext0
 7075 012c 44040000 		.4byte	.LBE155-.Ltext0
 7076 0130 20040000 		.4byte	.LBB151-.Ltext0
 7077 0134 38040000 		.4byte	.LBE151-.Ltext0
 7078 0138 00000000 		.4byte	0x0
 7079 013c 00000000 		.4byte	0x0
 7080 0140 38040000 		.4byte	.LBB152-.Ltext0
 7081 0144 3C040000 		.4byte	.LBE152-.Ltext0
 7082 0148 44040000 		.4byte	.LBB156-.Ltext0
 7083 014c 54040000 		.4byte	.LBE156-.Ltext0
 7084 0150 00000000 		.4byte	0x0
 7085 0154 00000000 		.4byte	0x0
 7086 0158 6C040000 		.4byte	.LBB158-.Ltext0
 7087 015c 90040000 		.4byte	.LBE158-.Ltext0
 7088 0160 94040000 		.4byte	.LBB161-.Ltext0
 7089 0164 A0040000 		.4byte	.LBE161-.Ltext0
 7090 0168 00000000 		.4byte	0x0
 7091 016c 00000000 		.4byte	0x0
 7092 0170 6C040000 		.4byte	.LBB159-.Ltext0
 7093 0174 90040000 		.4byte	.LBE159-.Ltext0
 7094 0178 94040000 		.4byte	.LBB160-.Ltext0
 7095 017c A0040000 		.4byte	.LBE160-.Ltext0
 7096 0180 00000000 		.4byte	0x0
 7097 0184 00000000 		.4byte	0x0
 7098 0188 AC040000 		.4byte	.LBB164-.Ltext0
 7099 018c D4040000 		.4byte	.LBE164-.Ltext0
 7100 0190 F4040000 		.4byte	.LBB171-.Ltext0
 7101 0194 04050000 		.4byte	.LBE171-.Ltext0
 7102 0198 D8040000 		.4byte	.LBB168-.Ltext0
 7103 019c DC040000 		.4byte	.LBE168-.Ltext0
 7104 01a0 00000000 		.4byte	0x0
 7105 01a4 00000000 		.4byte	0x0
 7106 01a8 AC040000 		.4byte	.LBB166-.Ltext0
 7107 01ac D4040000 		.4byte	.LBE166-.Ltext0
 7108 01b0 F4040000 		.4byte	.LBB167-.Ltext0
 7109 01b4 04050000 		.4byte	.LBE167-.Ltext0
 7110 01b8 D8040000 		.4byte	.LBB165-.Ltext0
 7111 01bc DC040000 		.4byte	.LBE165-.Ltext0
 7112 01c0 00000000 		.4byte	0x0
 7113 01c4 00000000 		.4byte	0x0
 7114 01c8 40050000 		.4byte	.LBB176-.Ltext0
 7115 01cc 44050000 		.4byte	.LBE176-.Ltext0
 7116 01d0 68050000 		.4byte	.LBB191-.Ltext0
ARM GAS  C:\DOCUME~1\ADMINI~1\LOCALS~1\Temp\cc1Hp51A.s 			page 155


 7117 01d4 6C050000 		.4byte	.LBE191-.Ltext0
 7118 01d8 5C050000 		.4byte	.LBB190-.Ltext0
 7119 01dc 64050000 		.4byte	.LBE190-.Ltext0
 7120 01e0 54050000 		.4byte	.LBB189-.Ltext0
 7121 01e4 58050000 		.4byte	.LBE189-.Ltext0
 7122 01e8 48050000 		.4byte	.LBB188-.Ltext0
 7123 01ec 50050000 		.4byte	.LBE188-.Ltext0
 7124 01f0 00000000 		.4byte	0x0
 7125 01f4 00000000 		.4byte	0x0
 7126 01f8 40050000 		.4byte	.LBB179-.Ltext0
 7127 01fc 44050000 		.4byte	.LBE179-.Ltext0
 7128 0200 68050000 		.4byte	.LBB187-.Ltext0
 7129 0204 6C050000 		.4byte	.LBE187-.Ltext0
 7130 0208 5C050000 		.4byte	.LBB177-.Ltext0
 7131 020c 64050000 		.4byte	.LBE177-.Ltext0
 7132 0210 54050000 		.4byte	.LBB186-.Ltext0
 7133 0214 58050000 		.4byte	.LBE186-.Ltext0
 7134 0218 48050000 		.4byte	.LBB178-.Ltext0
 7135 021c 50050000 		.4byte	.LBE178-.Ltext0
 7136 0220 00000000 		.4byte	0x0
 7137 0224 00000000 		.4byte	0x0
 7138 0228 40050000 		.4byte	.LBB183-.Ltext0
 7139 022c 44050000 		.4byte	.LBE183-.Ltext0
 7140 0230 5C050000 		.4byte	.LBB180-.Ltext0
 7141 0234 60050000 		.4byte	.LBE180-.Ltext0
 7142 0238 00000000 		.4byte	0x0
 7143 023c 00000000 		.4byte	0x0
 7144 0240 D4050000 		.4byte	.LBB194-.Ltext0
 7145 0244 D8050000 		.4byte	.LBE194-.Ltext0
 7146 0248 E4050000 		.4byte	.LBB199-.Ltext0
 7147 024c E8050000 		.4byte	.LBE199-.Ltext0
 7148 0250 00000000 		.4byte	0x0
 7149 0254 00000000 		.4byte	0x0
 7150 0258 C4080000 		.4byte	.LBB206-.Ltext0
 7151 025c CC080000 		.4byte	.LBE206-.Ltext0
 7152 0260 08090000 		.4byte	.LBB223-.Ltext0
 7153 0264 14090000 		.4byte	.LBE223-.Ltext0
 7154 0268 E4080000 		.4byte	.LBB222-.Ltext0
 7155 026c 04090000 		.4byte	.LBE222-.Ltext0
 7156 0270 D4080000 		.4byte	.LBB221-.Ltext0
 7157 0274 E0080000 		.4byte	.LBE221-.Ltext0
 7158 0278 00000000 		.4byte	0x0
 7159 027c 00000000 		.4byte	0x0
 7160 0280 C4080000 		.4byte	.LBB211-.Ltext0
 7161 0284 CC080000 		.4byte	.LBE211-.Ltext0
 7162 0288 FC080000 		.4byte	.LBB207-.Ltext0
 7163 028c 04090000 		.4byte	.LBE207-.Ltext0
 7164 0290 EC080000 		.4byte	.LBB209-.Ltext0
 7165 0294 F0080000 		.4byte	.LBE209-.Ltext0
 7166 0298 00000000 		.4byte	0x0
 7167 029c 00000000 		.4byte	0x0
 7168 02a0 D4080000 		.4byte	.LBB215-.Ltext0
 7169 02a4 E0080000 		.4byte	.LBE215-.Ltext0
 7170 02a8 08090000 		.4byte	.LBB220-.Ltext0
 7171 02ac 14090000 		.4byte	.LBE220-.Ltext0
 7172 02b0 F0080000 		.4byte	.LBB208-.Ltext0
 7173 02b4 FC080000 		.4byte	.LBE208-.Ltext0
ARM GAS  C:\DOCUME~1\ADMINI~1\LOCALS~1\Temp\cc1Hp51A.s 			page 156


 7174 02b8 E4080000 		.4byte	.LBB210-.Ltext0
 7175 02bc EC080000 		.4byte	.LBE210-.Ltext0
 7176 02c0 00000000 		.4byte	0x0
 7177 02c4 00000000 		.4byte	0x0
 7178 02c8 B8090000 		.4byte	.LBB224-.Ltext0
 7179 02cc BC090000 		.4byte	.LBE224-.Ltext0
 7180 02d0 E4090000 		.4byte	.LBB239-.Ltext0
 7181 02d4 E8090000 		.4byte	.LBE239-.Ltext0
 7182 02d8 D8090000 		.4byte	.LBB238-.Ltext0
 7183 02dc E0090000 		.4byte	.LBE238-.Ltext0
 7184 02e0 D0090000 		.4byte	.LBB237-.Ltext0
 7185 02e4 D4090000 		.4byte	.LBE237-.Ltext0
 7186 02e8 C4090000 		.4byte	.LBB236-.Ltext0
 7187 02ec CC090000 		.4byte	.LBE236-.Ltext0
 7188 02f0 00000000 		.4byte	0x0
 7189 02f4 00000000 		.4byte	0x0
 7190 02f8 B8090000 		.4byte	.LBB227-.Ltext0
 7191 02fc BC090000 		.4byte	.LBE227-.Ltext0
 7192 0300 E4090000 		.4byte	.LBB235-.Ltext0
 7193 0304 E8090000 		.4byte	.LBE235-.Ltext0
 7194 0308 D8090000 		.4byte	.LBB225-.Ltext0
 7195 030c E0090000 		.4byte	.LBE225-.Ltext0
 7196 0310 D0090000 		.4byte	.LBB234-.Ltext0
 7197 0314 D4090000 		.4byte	.LBE234-.Ltext0
 7198 0318 C4090000 		.4byte	.LBB226-.Ltext0
 7199 031c CC090000 		.4byte	.LBE226-.Ltext0
 7200 0320 00000000 		.4byte	0x0
 7201 0324 00000000 		.4byte	0x0
 7202 0328 B8090000 		.4byte	.LBB231-.Ltext0
 7203 032c BC090000 		.4byte	.LBE231-.Ltext0
 7204 0330 D8090000 		.4byte	.LBB228-.Ltext0
 7205 0334 DC090000 		.4byte	.LBE228-.Ltext0
 7206 0338 00000000 		.4byte	0x0
 7207 033c 00000000 		.4byte	0x0
 7208              		.section	.debug_str,"MS",%progbits,1
 7209              	.LASF72:
 7210 0000 4D44535F 		.ascii	"MDS_ChainNodeDelete\000"
 7210      43686169 
 7210      6E4E6F64 
 7210      6544656C 
 7210      65746500 
 7211              	.LASF26:
 7212 0014 70737472 		.ascii	"pstrHead\000"
 7212      48656164 
 7212      00
 7213              	.LASF45:
 7214 001d 75694465 		.ascii	"uiDelayTick\000"
 7214      6C617954 
 7214      69636B00 
 7215              	.LASF39:
 7216 0029 75635461 		.ascii	"ucTaskPrio\000"
 7216      736B5072 
 7216      696F00
 7217              	.LASF43:
 7218 0034 6D5F7461 		.ascii	"m_taskopt\000"
 7218      736B6F70 
 7218      7400
ARM GAS  C:\DOCUME~1\ADMINI~1\LOCALS~1\Temp\cc1Hp51A.s 			page 157


 7219              	.LASF103:
 7220 003e 70737472 		.ascii	"pstrDelayNode\000"
 7220      44656C61 
 7220      794E6F64 
 7220      6500
 7221              	.LASF117:
 7222 004c 63617563 		.ascii	"caucTaskPrioUnmapTab\000"
 7222      5461736B 
 7222      5072696F 
 7222      556E6D61 
 7222      70546162 
 7223              	.LASF29:
 7224 0061 6D5F7463 		.ascii	"m_tcbque\000"
 7224      62717565 
 7224      00
 7225              	.LASF28:
 7226 006a 4D5F4348 		.ascii	"M_CHAIN\000"
 7226      41494E00 
 7227              	.LASF82:
 7228 0072 70737472 		.ascii	"pstrNewNode\000"
 7228      4E65774E 
 7228      6F646500 
 7229              	.LASF56:
 7230 007e 7569436F 		.ascii	"uiCounter\000"
 7230      756E7465 
 7230      7200
 7231              	.LASF74:
 7232 0088 4D44535F 		.ascii	"MDS_ChainEmpInq\000"
 7232      43686169 
 7232      6E456D70 
 7232      496E7100 
 7233              	.LASF59:
 7234 0098 4D5F5443 		.ascii	"M_TCB\000"
 7234      4200
 7235              	.LASF4:
 7236 009e 73686F72 		.ascii	"short int\000"
 7236      7420696E 
 7236      7400
 7237              	.LASF24:
 7238 00a8 73746163 		.ascii	"stackreg\000"
 7238      6B726567 
 7238      00
 7239              	.LASF114:
 7240 00b1 67707374 		.ascii	"gpstrRootTaskTcb\000"
 7240      72526F6F 
 7240      74546173 
 7240      6B546362 
 7240      00
 7241              	.LASF88:
 7242 00c2 70737472 		.ascii	"pstrNextNode\000"
 7242      4E657874 
 7242      4E6F6465 
 7242      00
 7243              	.LASF102:
 7244 00cf 4D44535F 		.ascii	"MDS_TaskDelayTabSched\000"
 7244      5461736B 
 7244      44656C61 
ARM GAS  C:\DOCUME~1\ADMINI~1\LOCALS~1\Temp\cc1Hp51A.s 			page 158


 7244      79546162 
 7244      53636865 
 7245              	.LASF110:
 7246 00e5 67756954 		.ascii	"guiTick\000"
 7246      69636B00 
 7247              	.LASF63:
 7248 00ed 4D44535F 		.ascii	"MDS_TaskSchedTabInit\000"
 7248      5461736B 
 7248      53636865 
 7248      64546162 
 7248      496E6974 
 7249              	.LASF93:
 7250 0102 4D44535F 		.ascii	"MDS_TaskDelFromSemTab\000"
 7250      5461736B 
 7250      44656C46 
 7250      726F6D53 
 7250      656D5461 
 7251              	.LASF38:
 7252 0118 75695461 		.ascii	"uiTaskFlag\000"
 7252      736B466C 
 7252      616700
 7253              	.LASF79:
 7254 0123 4D44535F 		.ascii	"MDS_TaskDelFromSchedTab\000"
 7254      5461736B 
 7254      44656C46 
 7254      726F6D53 
 7254      63686564 
 7255              	.LASF120:
 7256 013b 2E2E2F6D 		.ascii	"../mindows/mds_core_c.c\000"
 7256      696E646F 
 7256      77732F6D 
 7256      64735F63 
 7256      6F72655F 
 7257              	.LASF78:
 7258 0153 4D44535F 		.ascii	"MDS_TaskPrioFlagClr\000"
 7258      5461736B 
 7258      5072696F 
 7258      466C6167 
 7258      436C7200 
 7259              	.LASF94:
 7260 0167 4D44535F 		.ascii	"MDS_SemGetActiveTask\000"
 7260      53656D47 
 7260      65744163 
 7260      74697665 
 7260      5461736B 
 7261              	.LASF47:
 7262 017c 6D5F7072 		.ascii	"m_prioflag\000"
 7262      696F666C 
 7262      616700
 7263              	.LASF111:
 7264 0187 67707374 		.ascii	"gpstrCurTaskSpAddr\000"
 7264      72437572 
 7264      5461736B 
 7264      53704164 
 7264      647200
 7265              	.LASF75:
 7266 019a 4D44535F 		.ascii	"MDS_TaskReadyTabSched\000"
ARM GAS  C:\DOCUME~1\ADMINI~1\LOCALS~1\Temp\cc1Hp51A.s 			page 159


 7266      5461736B 
 7266      52656164 
 7266      79546162 
 7266      53636865 
 7267              	.LASF77:
 7268 01b0 4D44535F 		.ascii	"MDS_TaskSwitch\000"
 7268      5461736B 
 7268      53776974 
 7268      636800
 7269              	.LASF49:
 7270 01bf 4D5F5052 		.ascii	"M_PRIOFLAG\000"
 7270      494F464C 
 7270      414700
 7271              	.LASF86:
 7272 01ca 76664675 		.ascii	"vfFuncPointer\000"
 7272      6E63506F 
 7272      696E7465 
 7272      7200
 7273              	.LASF48:
 7274 01d8 75635072 		.ascii	"ucPrioFlagGrp1\000"
 7274      696F466C 
 7274      61674772 
 7274      703100
 7275              	.LASF32:
 7276 01e7 6D5F7463 		.ascii	"m_tcb\000"
 7276      6200
 7277              	.LASF66:
 7278 01ed 4D44535F 		.ascii	"MDS_ChainNodeAdd\000"
 7278      43686169 
 7278      6E4E6F64 
 7278      65416464 
 7278      00
 7279              	.LASF31:
 7280 01fe 70737472 		.ascii	"pstrTcb\000"
 7280      54636200 
 7281              	.LASF84:
 7282 0206 4D44535F 		.ascii	"MDS_SystemVarInit\000"
 7282      53797374 
 7282      656D5661 
 7282      72496E69 
 7282      7400
 7283              	.LASF97:
 7284 0218 4D44535F 		.ascii	"MDS_SystemTickGet\000"
 7284      53797374 
 7284      656D5469 
 7284      636B4765 
 7284      7400
 7285              	.LASF118:
 7286 022a 67766654 		.ascii	"gvfTaskSwitchHook\000"
 7286      61736B53 
 7286      77697463 
 7286      68486F6F 
 7286      6B00
 7287              	.LASF71:
 7288 023c 70737472 		.ascii	"pstrTempNode\000"
 7288      54656D70 
 7288      4E6F6465 
ARM GAS  C:\DOCUME~1\ADMINI~1\LOCALS~1\Temp\cc1Hp51A.s 			page 160


 7288      00
 7289              	.LASF87:
 7290 0249 4D44535F 		.ascii	"MDS_TaskAddToDelayTab\000"
 7290      5461736B 
 7290      41646454 
 7290      6F44656C 
 7290      61795461 
 7291              	.LASF73:
 7292 025f 4D44535F 		.ascii	"MDS_TaskHighestPrioGet\000"
 7292      5461736B 
 7292      48696768 
 7292      65737450 
 7292      72696F47 
 7293              	.LASF61:
 7294 0276 6C6F6E67 		.ascii	"long unsigned int\000"
 7294      20756E73 
 7294      69676E65 
 7294      6420696E 
 7294      7400
 7295              	.LASF62:
 7296 0288 4D44535F 		.ascii	"MDS_ChainInit\000"
 7296      43686169 
 7296      6E496E69 
 7296      7400
 7297              	.LASF99:
 7298 0296 4D44535F 		.ascii	"MDS_IntLock\000"
 7298      496E744C 
 7298      6F636B00 
 7299              	.LASF6:
 7300 02a2 75694370 		.ascii	"uiCpsr\000"
 7300      737200
 7301              	.LASF25:
 7302 02a9 6D5F6368 		.ascii	"m_chain\000"
 7302      61696E00 
 7303              	.LASF80:
 7304 02b1 70737472 		.ascii	"pstrDelNode\000"
 7304      44656C4E 
 7304      6F646500 
 7305              	.LASF7:
 7306 02bd 75695230 		.ascii	"uiR0\000"
 7306      00
 7307              	.LASF8:
 7308 02c2 75695231 		.ascii	"uiR1\000"
 7308      00
 7309              	.LASF9:
 7310 02c7 75695232 		.ascii	"uiR2\000"
 7310      00
 7311              	.LASF10:
 7312 02cc 75695233 		.ascii	"uiR3\000"
 7312      00
 7313              	.LASF11:
 7314 02d1 75695234 		.ascii	"uiR4\000"
 7314      00
 7315              	.LASF12:
 7316 02d6 75695235 		.ascii	"uiR5\000"
 7316      00
 7317              	.LASF13:
ARM GAS  C:\DOCUME~1\ADMINI~1\LOCALS~1\Temp\cc1Hp51A.s 			page 161


 7318 02db 75695236 		.ascii	"uiR6\000"
 7318      00
 7319              	.LASF14:
 7320 02e0 75695237 		.ascii	"uiR7\000"
 7320      00
 7321              	.LASF15:
 7322 02e5 75695238 		.ascii	"uiR8\000"
 7322      00
 7323              	.LASF16:
 7324 02ea 75695239 		.ascii	"uiR9\000"
 7324      00
 7325              	.LASF91:
 7326 02ef 4D44535F 		.ascii	"MDS_TaskAddToSemTab\000"
 7326      5461736B 
 7326      41646454 
 7326      6F53656D 
 7326      54616200 
 7327              	.LASF51:
 7328 0303 61737472 		.ascii	"astrChain\000"
 7328      43686169 
 7328      6E00
 7329              	.LASF106:
 7330 030d 67617563 		.ascii	"gaucRootTaskStack\000"
 7330      526F6F74 
 7330      5461736B 
 7330      53746163 
 7330      6B00
 7331              	.LASF23:
 7332 031f 53544143 		.ascii	"STACKREG\000"
 7332      4B524547 
 7332      00
 7333              	.LASF0:
 7334 0328 756E7369 		.ascii	"unsigned char\000"
 7334      676E6564 
 7334      20636861 
 7334      7200
 7335              	.LASF68:
 7336 0336 4D44535F 		.ascii	"MDS_TaskPrioFlagSet\000"
 7336      5461736B 
 7336      5072696F 
 7336      466C6167 
 7336      53657400 
 7337              	.LASF83:
 7338 034a 4D44535F 		.ascii	"MDS_ChainNextNodeEmpInq\000"
 7338      43686169 
 7338      6E4E6578 
 7338      744E6F64 
 7338      65456D70 
 7339              	.LASF85:
 7340 0362 4D44535F 		.ascii	"MDS_TaskStart\000"
 7340      5461736B 
 7340      53746172 
 7340      7400
 7341              	.LASF100:
 7342 0370 4D44535F 		.ascii	"MDS_IntUnlock\000"
 7342      496E7455 
 7342      6E6C6F63 
ARM GAS  C:\DOCUME~1\ADMINI~1\LOCALS~1\Temp\cc1Hp51A.s 			page 162


 7342      6B00
 7343              	.LASF107:
 7344 037e 67617563 		.ascii	"gaucIdleTaskStack\000"
 7344      49646C65 
 7344      5461736B 
 7344      53746163 
 7344      6B00
 7345              	.LASF52:
 7346 0390 73747246 		.ascii	"strFlag\000"
 7346      6C616700 
 7347              	.LASF2:
 7348 0398 756E7369 		.ascii	"unsigned int\000"
 7348      676E6564 
 7348      20696E74 
 7348      00
 7349              	.LASF44:
 7350 03a5 75635461 		.ascii	"ucTaskSta\000"
 7350      736B5374 
 7350      6100
 7351              	.LASF112:
 7352 03af 67707374 		.ascii	"gpstrNextTaskSpAddr\000"
 7352      724E6578 
 7352      74546173 
 7352      6B537041 
 7352      64647200 
 7353              	.LASF17:
 7354 03c3 75695231 		.ascii	"uiR10\000"
 7354      3000
 7355              	.LASF18:
 7356 03c9 75695231 		.ascii	"uiR11\000"
 7356      3100
 7357              	.LASF19:
 7358 03cf 75695231 		.ascii	"uiR12\000"
 7358      3200
 7359              	.LASF20:
 7360 03d5 75695231 		.ascii	"uiR13\000"
 7360      3300
 7361              	.LASF21:
 7362 03db 75695231 		.ascii	"uiR14\000"
 7362      3400
 7363              	.LASF22:
 7364 03e1 75695231 		.ascii	"uiR15\000"
 7364      3500
 7365              	.LASF70:
 7366 03e7 4D44535F 		.ascii	"MDS_TaskAddToSchedTab\000"
 7366      5461736B 
 7366      41646454 
 7366      6F536368 
 7366      65645461 
 7367              	.LASF5:
 7368 03fd 5646554E 		.ascii	"VFUNC\000"
 7368      4300
 7369              	.LASF92:
 7370 0403 4D44535F 		.ascii	"MDS_TickTimerInit\000"
 7370      5469636B 
 7370      54696D65 
 7370      72496E69 
ARM GAS  C:\DOCUME~1\ADMINI~1\LOCALS~1\Temp\cc1Hp51A.s 			page 163


 7370      7400
 7371              	.LASF30:
 7372 0415 73747251 		.ascii	"strQueHead\000"
 7372      75654865 
 7372      616400
 7373              	.LASF1:
 7374 0420 73686F72 		.ascii	"short unsigned int\000"
 7374      7420756E 
 7374      7369676E 
 7374      65642069 
 7374      6E7400
 7375              	.LASF55:
 7376 0433 73747253 		.ascii	"strSemTab\000"
 7376      656D5461 
 7376      6200
 7377              	.LASF3:
 7378 043d 63686172 		.ascii	"char\000"
 7378      00
 7379              	.LASF64:
 7380 0442 70737472 		.ascii	"pstrChain\000"
 7380      43686169 
 7380      6E00
 7381              	.LASF115:
 7382 044c 67707374 		.ascii	"gpstrIdleTaskTcb\000"
 7382      7249646C 
 7382      65546173 
 7382      6B546362 
 7382      00
 7383              	.LASF96:
 7384 045d 6D61696E 		.ascii	"main\000"
 7384      00
 7385              	.LASF57:
 7386 0462 75695365 		.ascii	"uiSemOpt\000"
 7386      6D4F7074 
 7386      00
 7387              	.LASF37:
 7388 046b 70756354 		.ascii	"pucTaskName\000"
 7388      61736B4E 
 7388      616D6500 
 7389              	.LASF121:
 7390 0477 463A5C77 		.ascii	"F:\\workdir\\RTOS_Mindows\\project\000"
 7390      6F726B64 
 7390      69725C52 
 7390      544F535F 
 7390      4D696E64 
 7391              	.LASF116:
 7392 0497 67756949 		.ascii	"guiIntLockCounter\000"
 7392      6E744C6F 
 7392      636B436F 
 7392      756E7465 
 7392      7200
 7393              	.LASF41:
 7394 04a9 75695374 		.ascii	"uiStillTick\000"
 7394      696C6C54 
 7394      69636B00 
 7395              	.LASF113:
 7396 04b5 67707374 		.ascii	"gpstrCurTcb\000"
ARM GAS  C:\DOCUME~1\ADMINI~1\LOCALS~1\Temp\cc1Hp51A.s 			page 164


 7396      72437572 
 7396      54636200 
 7397              	.LASF98:
 7398 04c1 4D44535F 		.ascii	"MDS_CurrentTcbGet\000"
 7398      43757272 
 7398      656E7454 
 7398      63624765 
 7398      7400
 7399              	.LASF76:
 7400 04d3 70737472 		.ascii	"pstrTaskQue\000"
 7400      5461736B 
 7400      51756500 
 7401              	.LASF27:
 7402 04df 70737472 		.ascii	"pstrTail\000"
 7402      5461696C 
 7402      00
 7403              	.LASF46:
 7404 04e8 4D5F5441 		.ascii	"M_TASKOPT\000"
 7404      534B4F50 
 7404      5400
 7405              	.LASF89:
 7406 04f2 70737472 		.ascii	"pstrDelayQue\000"
 7406      44656C61 
 7406      79517565 
 7406      00
 7407              	.LASF34:
 7408 04ff 73747254 		.ascii	"strTcbQue\000"
 7408      63625175 
 7408      6500
 7409              	.LASF105:
 7410 0509 4D44535F 		.ascii	"MDS_TaskSched\000"
 7410      5461736B 
 7410      53636865 
 7410      6400
 7411              	.LASF35:
 7412 0517 73747244 		.ascii	"strDelayQue\000"
 7412      656C6179 
 7412      51756500 
 7413              	.LASF58:
 7414 0523 4D5F5345 		.ascii	"M_SEM\000"
 7414      4D00
 7415              	.LASF95:
 7416 0529 4D44535F 		.ascii	"MDS_TaskReadySched\000"
 7416      5461736B 
 7416      52656164 
 7416      79536368 
 7416      656400
 7417              	.LASF119:
 7418 053c 474E5520 		.ascii	"GNU C 4.5.2\000"
 7418      4320342E 
 7418      352E3200 
 7419              	.LASF42:
 7420 0548 4D5F5443 		.ascii	"M_TCBQUE\000"
 7420      42515545 
 7420      00
 7421              	.LASF65:
 7422 0551 70737472 		.ascii	"pstrSchedTab\000"
ARM GAS  C:\DOCUME~1\ADMINI~1\LOCALS~1\Temp\cc1Hp51A.s 			page 165


 7422      53636865 
 7422      64546162 
 7422      00
 7423              	.LASF109:
 7424 055e 67737472 		.ascii	"gstrDelayTab\000"
 7424      44656C61 
 7424      79546162 
 7424      00
 7425              	.LASF33:
 7426 056b 73747253 		.ascii	"strStackReg\000"
 7426      7461636B 
 7426      52656700 
 7427              	.LASF104:
 7428 0577 75695469 		.ascii	"uiTick\000"
 7428      636B00
 7429              	.LASF81:
 7430 057e 4D44535F 		.ascii	"MDS_ChainCurNodeInsert\000"
 7430      43686169 
 7430      6E437572 
 7430      4E6F6465 
 7430      496E7365 
 7431              	.LASF108:
 7432 0595 67737472 		.ascii	"gstrReadyTab\000"
 7432      52656164 
 7432      79546162 
 7432      00
 7433              	.LASF101:
 7434 05a2 4D44535F 		.ascii	"MDS_ChainCurNodeDelete\000"
 7434      43686169 
 7434      6E437572 
 7434      4E6F6465 
 7434      44656C65 
 7435              	.LASF60:
 7436 05b9 56464853 		.ascii	"VFHSWT\000"
 7436      575400
 7437              	.LASF122:
 7438 05c0 4D44535F 		.ascii	"MDS_TaskTick\000"
 7438      5461736B 
 7438      5469636B 
 7438      00
 7439              	.LASF90:
 7440 05cd 75695465 		.ascii	"uiTempStillTick\000"
 7440      6D705374 
 7440      696C6C54 
 7440      69636B00 
 7441              	.LASF50:
 7442 05dd 6D5F7461 		.ascii	"m_taskschedtab\000"
 7442      736B7363 
 7442      68656474 
 7442      616200
 7443              	.LASF67:
 7444 05ec 70737472 		.ascii	"pstrNode\000"
 7444      4E6F6465 
 7444      00
 7445              	.LASF40:
 7446 05f5 73747254 		.ascii	"strTaskOpt\000"
 7446      61736B4F 
ARM GAS  C:\DOCUME~1\ADMINI~1\LOCALS~1\Temp\cc1Hp51A.s 			page 166


 7446      707400
 7447              	.LASF69:
 7448 0600 70737472 		.ascii	"pstrPrioFlag\000"
 7448      5072696F 
 7448      466C6167 
 7448      00
 7449              	.LASF53:
 7450 060d 4D5F5441 		.ascii	"M_TASKSCHEDTAB\000"
 7450      534B5343 
 7450      48454454 
 7450      414200
 7451              	.LASF54:
 7452 061c 6D5F7365 		.ascii	"m_sem\000"
 7452      6D00
 7453              	.LASF36:
 7454 0622 70737472 		.ascii	"pstrSem\000"
 7454      53656D00 
 7455              		.ident	"GCC: (Sourcery G++ Lite 2011.03-41) 4.5.2"
 7456              		.section	.note.GNU-stack,"",%progbits
ARM GAS  C:\DOCUME~1\ADMINI~1\LOCALS~1\Temp\cc1Hp51A.s 			page 167


DEFINED SYMBOLS
                            *ABS*:00000000 mds_core_c.c
C:\DOCUME~1\ADMINI~1\LOCALS~1\Temp\cc1Hp51A.s:21     .text:00000000 $a
C:\DOCUME~1\ADMINI~1\LOCALS~1\Temp\cc1Hp51A.s:24     .text:00000000 MDS_TickTimerInit
                       .ARM.extab:00000000 $d
                       .ARM.exidx:00000000 $d
C:\DOCUME~1\ADMINI~1\LOCALS~1\Temp\cc1Hp51A.s:74     .text:00000030 MDS_SystemVarInit
C:\DOCUME~1\ADMINI~1\LOCALS~1\Temp\cc1Hp51A.s:204    .text:000000cc $d
                            *COM*:00000004 gpstrCurTcb
                            *COM*:00000004 gpstrRootTaskTcb
                            *COM*:00000004 guiTick
                            *COM*:00000004 guiIntLockCounter
                            *COM*:00000004 gpstrIdleTaskTcb
                            *COM*:00000044 gstrReadyTab
                            *COM*:00000008 gstrDelayTab
C:\DOCUME~1\ADMINI~1\LOCALS~1\Temp\cc1Hp51A.s:215    .text:000000e8 $a
C:\DOCUME~1\ADMINI~1\LOCALS~1\Temp\cc1Hp51A.s:218    .text:000000e8 MDS_TaskSwitch
C:\DOCUME~1\ADMINI~1\LOCALS~1\Temp\cc1Hp51A.s:245    .text:00000108 $d
                            *COM*:00000004 gpstrCurTaskSpAddr
                            *COM*:00000004 gpstrNextTaskSpAddr
C:\DOCUME~1\ADMINI~1\LOCALS~1\Temp\cc1Hp51A.s:252    .text:00000114 $a
C:\DOCUME~1\ADMINI~1\LOCALS~1\Temp\cc1Hp51A.s:255    .text:00000114 MDS_TaskStart
C:\DOCUME~1\ADMINI~1\LOCALS~1\Temp\cc1Hp51A.s:297    .text:00000140 $d
C:\DOCUME~1\ADMINI~1\LOCALS~1\Temp\cc1Hp51A.s:303    .text:00000148 $a
C:\DOCUME~1\ADMINI~1\LOCALS~1\Temp\cc1Hp51A.s:306    .text:00000148 main
C:\DOCUME~1\ADMINI~1\LOCALS~1\Temp\cc1Hp51A.s:369    .text:000001c4 $d
C:\DOCUME~1\ADMINI~1\LOCALS~1\Temp\cc1Hp51A.s:381    .text:000001e4 $a
C:\DOCUME~1\ADMINI~1\LOCALS~1\Temp\cc1Hp51A.s:384    .text:000001e4 MDS_TaskSchedTabInit
C:\DOCUME~1\ADMINI~1\LOCALS~1\Temp\cc1Hp51A.s:450    .text:00000230 MDS_TaskAddToSchedTab
C:\DOCUME~1\ADMINI~1\LOCALS~1\Temp\cc1Hp51A.s:509    .text:00000274 MDS_TaskAddToDelayTab
C:\DOCUME~1\ADMINI~1\LOCALS~1\Temp\cc1Hp51A.s:680    .text:00000350 $d
C:\DOCUME~1\ADMINI~1\LOCALS~1\Temp\cc1Hp51A.s:688    .text:00000358 $a
C:\DOCUME~1\ADMINI~1\LOCALS~1\Temp\cc1Hp51A.s:691    .text:00000358 MDS_TaskDelFromSchedTab
C:\DOCUME~1\ADMINI~1\LOCALS~1\Temp\cc1Hp51A.s:780    .text:000003b8 MDS_TaskAddToSemTab
C:\DOCUME~1\ADMINI~1\LOCALS~1\Temp\cc1Hp51A.s:915    .text:00000454 MDS_TaskDelFromSemTab
C:\DOCUME~1\ADMINI~1\LOCALS~1\Temp\cc1Hp51A.s:1051   .text:00000504 MDS_SemGetActiveTask
C:\DOCUME~1\ADMINI~1\LOCALS~1\Temp\cc1Hp51A.s:1097   .text:00000534 $d
C:\DOCUME~1\ADMINI~1\LOCALS~1\Temp\cc1Hp51A.s:1102   .text:00000538 $a
C:\DOCUME~1\ADMINI~1\LOCALS~1\Temp\cc1Hp51A.s:1105   .text:00000538 MDS_TaskReadySched
C:\DOCUME~1\ADMINI~1\LOCALS~1\Temp\cc1Hp51A.s:1227   .text:000005bc $d
C:\DOCUME~1\ADMINI~1\LOCALS~1\Temp\cc1Hp51A.s:1237   .text:000005d4 $a
C:\DOCUME~1\ADMINI~1\LOCALS~1\Temp\cc1Hp51A.s:1240   .text:000005d4 MDS_TaskReadyTabSched
C:\DOCUME~1\ADMINI~1\LOCALS~1\Temp\cc1Hp51A.s:1280   .text:000005f4 $d
C:\DOCUME~1\ADMINI~1\LOCALS~1\Temp\cc1Hp51A.s:1286   .text:000005fc $a
C:\DOCUME~1\ADMINI~1\LOCALS~1\Temp\cc1Hp51A.s:1289   .text:000005fc MDS_TaskPrioFlagSet
C:\DOCUME~1\ADMINI~1\LOCALS~1\Temp\cc1Hp51A.s:1313   .text:00000610 MDS_TaskPrioFlagClr
C:\DOCUME~1\ADMINI~1\LOCALS~1\Temp\cc1Hp51A.s:1337   .text:00000624 MDS_TaskHighestPrioGet
C:\DOCUME~1\ADMINI~1\LOCALS~1\Temp\cc1Hp51A.s:1357   .text:00000634 $d
C:\DOCUME~1\ADMINI~1\LOCALS~1\Temp\cc1Hp51A.s:1362   .text:00000638 $a
C:\DOCUME~1\ADMINI~1\LOCALS~1\Temp\cc1Hp51A.s:1365   .text:00000638 MDS_SystemTickGet
C:\DOCUME~1\ADMINI~1\LOCALS~1\Temp\cc1Hp51A.s:1382   .text:00000644 $d
C:\DOCUME~1\ADMINI~1\LOCALS~1\Temp\cc1Hp51A.s:1387   .text:00000648 $a
C:\DOCUME~1\ADMINI~1\LOCALS~1\Temp\cc1Hp51A.s:1390   .text:00000648 MDS_CurrentTcbGet
C:\DOCUME~1\ADMINI~1\LOCALS~1\Temp\cc1Hp51A.s:1407   .text:00000654 $d
C:\DOCUME~1\ADMINI~1\LOCALS~1\Temp\cc1Hp51A.s:1412   .text:00000658 $a
C:\DOCUME~1\ADMINI~1\LOCALS~1\Temp\cc1Hp51A.s:1415   .text:00000658 MDS_IntLock
C:\DOCUME~1\ADMINI~1\LOCALS~1\Temp\cc1Hp51A.s:1485   .text:000006cc $d
ARM GAS  C:\DOCUME~1\ADMINI~1\LOCALS~1\Temp\cc1Hp51A.s 			page 168


C:\DOCUME~1\ADMINI~1\LOCALS~1\Temp\cc1Hp51A.s:1492   .text:000006d8 $a
C:\DOCUME~1\ADMINI~1\LOCALS~1\Temp\cc1Hp51A.s:1495   .text:000006d8 MDS_IntUnlock
C:\DOCUME~1\ADMINI~1\LOCALS~1\Temp\cc1Hp51A.s:1565   .text:00000748 $d
C:\DOCUME~1\ADMINI~1\LOCALS~1\Temp\cc1Hp51A.s:1572   .text:00000754 $a
C:\DOCUME~1\ADMINI~1\LOCALS~1\Temp\cc1Hp51A.s:1575   .text:00000754 MDS_ChainInit
C:\DOCUME~1\ADMINI~1\LOCALS~1\Temp\cc1Hp51A.s:1599   .text:00000764 MDS_ChainNodeAdd
C:\DOCUME~1\ADMINI~1\LOCALS~1\Temp\cc1Hp51A.s:1639   .text:00000798 MDS_ChainNodeDelete
C:\DOCUME~1\ADMINI~1\LOCALS~1\Temp\cc1Hp51A.s:1685   .text:000007d0 MDS_ChainCurNodeInsert
C:\DOCUME~1\ADMINI~1\LOCALS~1\Temp\cc1Hp51A.s:1745   .text:00000824 MDS_ChainCurNodeDelete
C:\DOCUME~1\ADMINI~1\LOCALS~1\Temp\cc1Hp51A.s:1822   .text:00000898 MDS_TaskDelayTabSched
C:\DOCUME~1\ADMINI~1\LOCALS~1\Temp\cc1Hp51A.s:2022   .text:000009a0 $d
C:\DOCUME~1\ADMINI~1\LOCALS~1\Temp\cc1Hp51A.s:2030   .text:000009b0 $a
C:\DOCUME~1\ADMINI~1\LOCALS~1\Temp\cc1Hp51A.s:2033   .text:000009b0 MDS_TaskSched
C:\DOCUME~1\ADMINI~1\LOCALS~1\Temp\cc1Hp51A.s:2157   .text:00000a38 $d
C:\DOCUME~1\ADMINI~1\LOCALS~1\Temp\cc1Hp51A.s:2167   .text:00000a50 $a
C:\DOCUME~1\ADMINI~1\LOCALS~1\Temp\cc1Hp51A.s:2170   .text:00000a50 MDS_TaskTick
C:\DOCUME~1\ADMINI~1\LOCALS~1\Temp\cc1Hp51A.s:2190   .text:00000a64 $d
C:\DOCUME~1\ADMINI~1\LOCALS~1\Temp\cc1Hp51A.s:2195   .text:00000a68 $a
C:\DOCUME~1\ADMINI~1\LOCALS~1\Temp\cc1Hp51A.s:2198   .text:00000a68 MDS_ChainEmpInq
C:\DOCUME~1\ADMINI~1\LOCALS~1\Temp\cc1Hp51A.s:2219   .text:00000a70 MDS_ChainNextNodeEmpInq
C:\DOCUME~1\ADMINI~1\LOCALS~1\Temp\cc1Hp51A.s:2256   .rodata:00000000 caucTaskPrioUnmapTab
C:\DOCUME~1\ADMINI~1\LOCALS~1\Temp\cc1Hp51A.s:2252   .rodata:00000000 $d
C:\DOCUME~1\ADMINI~1\LOCALS~1\Temp\cc1Hp51A.s:2514   .rodata.str1.4:00000000 $d
                     .debug_frame:00000010 $d

UNDEFINED SYMBOLS
__aeabi_unwind_cpp_pr1
MDS_TaskHookInit
__aeabi_unwind_cpp_pr0
MDS_SwitchToTask
MDS_TaskCreate
MDS_RootTask
gaucRootTaskStack
MDS_IdleTask
gaucIdleTaskStack
gvfTaskSwitchHook
MDS_RunInInt
MDS_TaskOccurSwi
