ARM GAS  C:\DOCUME~1\ADMINI~1\LOCALS~1\Temp\cc1iD5YV.s 			page 1


   1              		.cpu arm7tdmi
   2              		.fpu softvfp
   3              		.eabi_attribute 20, 1
   4              		.eabi_attribute 21, 1
   5              		.eabi_attribute 23, 3
   6              		.eabi_attribute 24, 1
   7              		.eabi_attribute 25, 1
   8              		.eabi_attribute 26, 2
   9              		.eabi_attribute 30, 2
  10              		.eabi_attribute 18, 4
  11              		.file	"mds_queue.c"
  18 0000 8B000000 		.text
  18      02004C00 
  18      00000201 
  18      FB0E0D00 
  18      01010101 
  19              	.Ltext0:
  20              		.cfi_sections	.debug_frame
  21              		.align	2
  22              		.global	MDS_QueCreate
  23              		.type	MDS_QueCreate, %function
  24              	MDS_QueCreate:
  25              		.fnstart
  26              	.LFB0:
  27              		.file 1 "../mindows/mds_queue.c"
   1:../mindows/mds_queue.c **** 
   2:../mindows/mds_queue.c **** #include "mindows_inner.h"
   3:../mindows/mds_queue.c **** #include "mds_queue_inner.h"
   4:../mindows/mds_queue.c **** 
   5:../mindows/mds_queue.c **** 
   6:../mindows/mds_queue.c **** /***********************************************************************************
   7:../mindows/mds_queue.c **** 函数功能: 创建队列.
   8:../mindows/mds_queue.c **** 入口参数: pstrQue: 队列指针.
   9:../mindows/mds_queue.c **** 返 回 值: RTN_SUCD: 创建队列成功.
  10:../mindows/mds_queue.c ****           RTN_FAIL: 创建队列失败.
  11:../mindows/mds_queue.c **** ***********************************************************************************/
  12:../mindows/mds_queue.c **** U32 MDS_QueCreate(M_QUE* pstrQue)
  13:../mindows/mds_queue.c **** {
  28              		.loc 1 13 0
  29              		.cfi_startproc
  30              		@ Function supports interworking.
  31              		@ args = 0, pretend = 0, frame = 0
  32              		@ frame_needed = 1, uses_anonymous_args = 0
  33              	.LVL0:
  34              		.movsp ip
  35 0000 0DC0A0E1 		mov	ip, sp
  36              	.LCFI0:
  37              		.cfi_def_cfa_register 12
  14:../mindows/mds_queue.c ****     /* 入口参数检查 */
  15:../mindows/mds_queue.c ****     if(NULL == pstrQue)
  38              		.loc 1 15 0
ARM GAS  C:\DOCUME~1\ADMINI~1\LOCALS~1\Temp\cc1iD5YV.s 			page 2


  39 0004 000050E3 		cmp	r0, #0
  13:../mindows/mds_queue.c **** {
  40              		.loc 1 13 0
  41 0008 00D82DE9 		stmfd	sp!, {fp, ip, lr, pc}
  42              		.pad #4
  43              		.save {fp, ip, lr}
  16:../mindows/mds_queue.c ****     {
  17:../mindows/mds_queue.c ****         return RTN_FAIL;
  44              		.loc 1 17 0
  45 000c 0100A003 		moveq	r0, #1
  46              	.LVL1:
  13:../mindows/mds_queue.c **** {
  47              		.loc 1 13 0
  48              		.setfp fp, ip, #-4
  49 0010 04B04CE2 		sub	fp, ip, #4
  50              		.cfi_offset 14, -8
  51              		.cfi_offset 13, -12
  52              		.cfi_offset 11, -16
  53              	.LCFI1:
  54              		.cfi_def_cfa 11, 4
  15:../mindows/mds_queue.c ****     if(NULL == pstrQue)
  55              		.loc 1 15 0
  56 0014 0100000A 		beq	.L2
  18:../mindows/mds_queue.c ****     }
  19:../mindows/mds_queue.c **** 
  20:../mindows/mds_queue.c ****     MDS_ChainInit(&pstrQue->strChain);
  57              		.loc 1 20 0
  58 0018 FEFFFFEB 		bl	MDS_ChainInit
  21:../mindows/mds_queue.c **** 
  22:../mindows/mds_queue.c ****     return RTN_SUCD;
  59              		.loc 1 22 0
  60 001c 0000A0E3 		mov	r0, #0
  61              	.L2:
  23:../mindows/mds_queue.c **** }
  62              		.loc 1 23 0
  63 0020 0CD04BE2 		sub	sp, fp, #12
  64 0024 00689DE8 		ldmfd	sp, {fp, sp, lr}
  65 0028 1EFF2FE1 		bx	lr
  66              		.cfi_endproc
  67              	.LFE0:
  68              		.fnend
  69              		.size	MDS_QueCreate, .-MDS_QueCreate
  70              		.align	2
  71              		.global	MDS_QuePut
  72              		.type	MDS_QuePut, %function
  73              	MDS_QuePut:
  74              		.fnstart
  75              	.LFB1:
  24:../mindows/mds_queue.c **** 
  25:../mindows/mds_queue.c **** /***********************************************************************************
  26:../mindows/mds_queue.c **** 函数功能: 将一个节点加入队列.
  27:../mindows/mds_queue.c **** 入口参数: pstrQue: 队列指针.
  28:../mindows/mds_queue.c ****           pstrQueNode: 要加入的队列节点指针.
  29:../mindows/mds_queue.c **** 返 回 值: RTN_SUCD: 将节点加入队列成功.
  30:../mindows/mds_queue.c ****           RTN_FAIL: 将节点加入队列失败.
  31:../mindows/mds_queue.c **** ***********************************************************************************/
  32:../mindows/mds_queue.c **** U32 MDS_QuePut(M_QUE* pstrQue, M_CHAIN* pstrQueNode)
ARM GAS  C:\DOCUME~1\ADMINI~1\LOCALS~1\Temp\cc1iD5YV.s 			page 3


  33:../mindows/mds_queue.c **** {
  76              		.loc 1 33 0
  77              		.cfi_startproc
  78              		@ Function supports interworking.
  79              		@ args = 0, pretend = 0, frame = 0
  80              		@ frame_needed = 1, uses_anonymous_args = 0
  81              	.LVL2:
  82              		.movsp ip
  83 002c 0DC0A0E1 		mov	ip, sp
  84              	.LCFI2:
  85              		.cfi_def_cfa_register 12
  34:../mindows/mds_queue.c ****     /* 入口参数检查 */
  35:../mindows/mds_queue.c ****     if((NULL == pstrQue) || (NULL == pstrQueNode))
  86              		.loc 1 35 0
  87 0030 000050E3 		cmp	r0, #0
  88 0034 00005113 		cmpne	r1, #0
  33:../mindows/mds_queue.c **** {
  89              		.loc 1 33 0
  90 0038 78D82DE9 		stmfd	sp!, {r3, r4, r5, r6, fp, ip, lr, pc}
  91              		.pad #4
  92              		.save {r3, r4, r5, r6, fp, ip, lr}
  93              		.loc 1 35 0
  94 003c 0060A0E1 		mov	r6, r0
  95              		.cfi_offset 14, -8
  96              		.cfi_offset 13, -12
  97              		.cfi_offset 11, -16
  98              		.cfi_offset 6, -20
  99              		.cfi_offset 5, -24
 100              		.cfi_offset 4, -28
 101              		.cfi_offset 3, -32
  33:../mindows/mds_queue.c **** {
 102              		.loc 1 33 0
 103              		.setfp fp, ip, #-4
 104 0040 04B04CE2 		sub	fp, ip, #4
 105              	.LCFI3:
 106              		.cfi_def_cfa 11, 4
 107              		.loc 1 35 0
 108 0044 0150A0E1 		mov	r5, r1
 109 0048 0040A013 		movne	r4, #0
 110 004c 0140A003 		moveq	r4, #1
  36:../mindows/mds_queue.c ****     {
  37:../mindows/mds_queue.c ****         return RTN_FAIL;
 111              		.loc 1 37 0
 112 0050 0100A003 		moveq	r0, #1
 113              	.LVL3:
  35:../mindows/mds_queue.c ****     if((NULL == pstrQue) || (NULL == pstrQueNode))
 114              		.loc 1 35 0
 115 0054 0500000A 		beq	.L6
  38:../mindows/mds_queue.c ****     }
  39:../mindows/mds_queue.c **** 
  40:../mindows/mds_queue.c ****     (void)MDS_IntLock();
 116              		.loc 1 40 0
 117 0058 FEFFFFEB 		bl	MDS_IntLock
 118              	.LVL4:
  41:../mindows/mds_queue.c **** 
  42:../mindows/mds_queue.c ****     /* 将节点加入队列 */
  43:../mindows/mds_queue.c ****     MDS_ChainNodeAdd(&pstrQue->strChain, pstrQueNode);
ARM GAS  C:\DOCUME~1\ADMINI~1\LOCALS~1\Temp\cc1iD5YV.s 			page 4


 119              		.loc 1 43 0
 120 005c 0600A0E1 		mov	r0, r6
 121 0060 0510A0E1 		mov	r1, r5
 122 0064 FEFFFFEB 		bl	MDS_ChainNodeAdd
  44:../mindows/mds_queue.c **** 
  45:../mindows/mds_queue.c ****     (void)MDS_IntUnlock();
 123              		.loc 1 45 0
 124 0068 FEFFFFEB 		bl	MDS_IntUnlock
  46:../mindows/mds_queue.c **** 
  47:../mindows/mds_queue.c ****     return RTN_SUCD;
 125              		.loc 1 47 0
 126 006c 0400A0E1 		mov	r0, r4
 127              	.L6:
  48:../mindows/mds_queue.c **** }
 128              		.loc 1 48 0
 129 0070 1CD04BE2 		sub	sp, fp, #28
 130 0074 78689DE8 		ldmfd	sp, {r3, r4, r5, r6, fp, sp, lr}
 131 0078 1EFF2FE1 		bx	lr
 132              		.cfi_endproc
 133              	.LFE1:
 134              		.fnend
 135              		.size	MDS_QuePut, .-MDS_QuePut
 136              		.align	2
 137              		.global	MDS_QueGet
 138              		.type	MDS_QueGet, %function
 139              	MDS_QueGet:
 140              		.fnstart
 141              	.LFB2:
  49:../mindows/mds_queue.c **** 
  50:../mindows/mds_queue.c **** /***********************************************************************************
  51:../mindows/mds_queue.c **** 函数功能: 从队列中取出一个队列节点.
  52:../mindows/mds_queue.c **** 入口参数: pstrQue: 队列根节点指针.
  53:../mindows/mds_queue.c ****           ppstrQueNode: 存放队列节点指针的指针.
  54:../mindows/mds_queue.c **** 返 回 值: RTN_SUCD: 从队列取出节点成功.
  55:../mindows/mds_queue.c ****           RTN_FAIL: 从队列取出节点失败.
  56:../mindows/mds_queue.c **** ***********************************************************************************/
  57:../mindows/mds_queue.c **** U32 MDS_QueGet(M_QUE* pstrQue, M_CHAIN** ppstrQueNode)
  58:../mindows/mds_queue.c **** {
 142              		.loc 1 58 0
 143              		.cfi_startproc
 144              		@ Function supports interworking.
 145              		@ args = 0, pretend = 0, frame = 0
 146              		@ frame_needed = 1, uses_anonymous_args = 0
 147              	.LVL5:
 148              		.movsp ip
 149 007c 0DC0A0E1 		mov	ip, sp
 150              	.LCFI4:
 151              		.cfi_def_cfa_register 12
  59:../mindows/mds_queue.c ****     M_CHAIN* pstrQueNode;
  60:../mindows/mds_queue.c **** 
  61:../mindows/mds_queue.c ****     /* 入口参数检查 */
  62:../mindows/mds_queue.c ****     if((NULL == pstrQue) || (NULL == ppstrQueNode))
 152              		.loc 1 62 0
 153 0080 000050E3 		cmp	r0, #0
 154 0084 00005113 		cmpne	r1, #0
  58:../mindows/mds_queue.c **** {
 155              		.loc 1 58 0
ARM GAS  C:\DOCUME~1\ADMINI~1\LOCALS~1\Temp\cc1iD5YV.s 			page 5


 156 0088 78D82DE9 		stmfd	sp!, {r3, r4, r5, r6, fp, ip, lr, pc}
 157              		.pad #4
 158              		.save {r3, r4, r5, r6, fp, ip, lr}
 159              		.setfp fp, ip, #-4
 160 008c 04B04CE2 		sub	fp, ip, #4
 161              		.cfi_offset 14, -8
 162              		.cfi_offset 13, -12
 163              		.cfi_offset 11, -16
 164              		.cfi_offset 6, -20
 165              		.cfi_offset 5, -24
 166              		.cfi_offset 4, -28
 167              		.cfi_offset 3, -32
 168              	.LCFI5:
 169              		.cfi_def_cfa 11, 4
 170              		.loc 1 62 0
 171 0090 0150A0E1 		mov	r5, r1
 172 0094 0040A0E1 		mov	r4, r0
 173 0098 0060A013 		movne	r6, #0
 174 009c 0160A003 		moveq	r6, #1
 175 00a0 0300001A 		bne	.L12
 176              	.LVL6:
 177              	.L11:
  63:../mindows/mds_queue.c ****     {
  64:../mindows/mds_queue.c ****         return RTN_FAIL;
  65:../mindows/mds_queue.c ****     }
  66:../mindows/mds_queue.c **** 
  67:../mindows/mds_queue.c ****     (void)MDS_IntLock();
  68:../mindows/mds_queue.c **** 
  69:../mindows/mds_queue.c ****     /* 从队列取出节点 */
  70:../mindows/mds_queue.c ****     pstrQueNode = MDS_ChainNodeDelete(&pstrQue->strChain);
  71:../mindows/mds_queue.c **** 
  72:../mindows/mds_queue.c ****     (void)MDS_IntUnlock();
  73:../mindows/mds_queue.c **** 
  74:../mindows/mds_queue.c ****     /* 队列不为空, 可以取出节点 */
  75:../mindows/mds_queue.c ****     if(NULL != pstrQueNode)
  76:../mindows/mds_queue.c ****     {
  77:../mindows/mds_queue.c ****         *ppstrQueNode = pstrQueNode;
  78:../mindows/mds_queue.c **** 
  79:../mindows/mds_queue.c ****         return RTN_SUCD;
  80:../mindows/mds_queue.c ****     }
  81:../mindows/mds_queue.c ****     else /* 队列为空, 无法取出节点 */
  82:../mindows/mds_queue.c ****     {
  83:../mindows/mds_queue.c ****         return RTN_FAIL;
 178              		.loc 1 83 0
 179 00a4 0100A0E3 		mov	r0, #1
 180              	.L9:
  84:../mindows/mds_queue.c ****     }
  85:../mindows/mds_queue.c **** }
 181              		.loc 1 85 0
 182 00a8 1CD04BE2 		sub	sp, fp, #28
 183 00ac 78689DE8 		ldmfd	sp, {r3, r4, r5, r6, fp, sp, lr}
 184 00b0 1EFF2FE1 		bx	lr
 185              	.LVL7:
 186              	.L12:
  67:../mindows/mds_queue.c ****     (void)MDS_IntLock();
 187              		.loc 1 67 0
 188 00b4 FEFFFFEB 		bl	MDS_IntLock
ARM GAS  C:\DOCUME~1\ADMINI~1\LOCALS~1\Temp\cc1iD5YV.s 			page 6


 189              	.LVL8:
  70:../mindows/mds_queue.c ****     pstrQueNode = MDS_ChainNodeDelete(&pstrQue->strChain);
 190              		.loc 1 70 0
 191 00b8 0400A0E1 		mov	r0, r4
 192 00bc FEFFFFEB 		bl	MDS_ChainNodeDelete
 193 00c0 0040A0E1 		mov	r4, r0
 194              	.LVL9:
  72:../mindows/mds_queue.c ****     (void)MDS_IntUnlock();
 195              		.loc 1 72 0
 196 00c4 FEFFFFEB 		bl	MDS_IntUnlock
 197              	.LVL10:
  75:../mindows/mds_queue.c ****     if(NULL != pstrQueNode)
 198              		.loc 1 75 0
 199 00c8 000054E3 		cmp	r4, #0
  77:../mindows/mds_queue.c ****         *ppstrQueNode = pstrQueNode;
 200              		.loc 1 77 0
 201 00cc 00408515 		strne	r4, [r5, #0]
  79:../mindows/mds_queue.c ****         return RTN_SUCD;
 202              		.loc 1 79 0
 203 00d0 0600A011 		movne	r0, r6
  75:../mindows/mds_queue.c ****     if(NULL != pstrQueNode)
 204              		.loc 1 75 0
 205 00d4 F3FFFF1A 		bne	.L9
 206 00d8 F1FFFFEA 		b	.L11
 207              		.cfi_endproc
 208              	.LFE2:
 209              		.fnend
 210              		.size	MDS_QueGet, .-MDS_QueGet
 211              	.Letext0:
 764              		.section	.note.GNU-stack,"",%progbits
ARM GAS  C:\DOCUME~1\ADMINI~1\LOCALS~1\Temp\cc1iD5YV.s 			page 18

