ARM GAS  C:\DOCUME~1\ADMINI~1\LOCALS~1\Temp\ccgPTXUI.s 			page 1


   1              		.cpu arm7tdmi
   2              		.fpu softvfp
   3              		.eabi_attribute 20, 1
   4              		.eabi_attribute 21, 1
   5              		.eabi_attribute 23, 3
   6              		.eabi_attribute 24, 1
   7              		.eabi_attribute 25, 1
   8              		.eabi_attribute 26, 2
   9              		.eabi_attribute 30, 2
  10              		.eabi_attribute 18, 4
  11              		.file	"mds_chip.c"
  18 0000 C2000000 		.text
  18      02005200 
  18      00000201 
  18      FB0E0D00 
  18      01010101 
  19              	.Ltext0:
  20              		.cfi_sections	.debug_frame
  21              		.align	2
  22              		.global	MDS_TaskStackInit
  23              		.type	MDS_TaskStackInit, %function
  24              	MDS_TaskStackInit:
  25              		.fnstart
  26              	.LFB0:
  27              		.file 1 "../mindows/mds_chip.c"
   1:../mindows/mds_chip.c **** 
   2:../mindows/mds_chip.c **** #include "mindows_inner.h"
   3:../mindows/mds_chip.c **** 
   4:../mindows/mds_chip.c **** 
   5:../mindows/mds_chip.c **** /***********************************************************************************
   6:../mindows/mds_chip.c **** 函数功能: 初始化任务堆栈函数, 用来创建任务运行前的堆栈状态.
   7:../mindows/mds_chip.c **** 入口参数: pstrTcb: 任务的TCB指针.
   8:../mindows/mds_chip.c ****           vfFuncPointer: 任务运行的函数.
   9:../mindows/mds_chip.c **** 返 回 值: none.
  10:../mindows/mds_chip.c **** ***********************************************************************************/
  11:../mindows/mds_chip.c **** void MDS_TaskStackInit(M_TCB* pstrTcb, VFUNC vfFuncPointer)
  12:../mindows/mds_chip.c **** {
  28              		.loc 1 12 0
  29              		.cfi_startproc
  30              		@ Function supports interworking.
  31              		@ args = 0, pretend = 0, frame = 0
  32              		@ frame_needed = 0, uses_anonymous_args = 0
  33              		@ link register save eliminated.
  34              	.LVL0:
  13:../mindows/mds_chip.c ****     STACKREG* pstrRegSp;
  14:../mindows/mds_chip.c **** 
  15:../mindows/mds_chip.c ****     pstrRegSp = &pstrTcb->strStackReg;          /* 寄存器组地址 */
  16:../mindows/mds_chip.c **** 
  17:../mindows/mds_chip.c ****     /* 对TCB中的寄存器组初始化 */
  18:../mindows/mds_chip.c ****     pstrRegSp->uiCpsr = MODE_USR;               /* CPSR */
  19:../mindows/mds_chip.c ****     pstrRegSp->uiR0 = 0;                        /* R0 */
ARM GAS  C:\DOCUME~1\ADMINI~1\LOCALS~1\Temp\ccgPTXUI.s 			page 2


  20:../mindows/mds_chip.c ****     pstrRegSp->uiR1 = 0;                        /* R1 */
  21:../mindows/mds_chip.c ****     pstrRegSp->uiR2 = 0;                        /* R2 */
  22:../mindows/mds_chip.c ****     pstrRegSp->uiR3 = 0;                        /* R3 */
  23:../mindows/mds_chip.c ****     pstrRegSp->uiR4 = 0;                        /* R4 */
  24:../mindows/mds_chip.c ****     pstrRegSp->uiR5 = 0;                        /* R5 */
  25:../mindows/mds_chip.c ****     pstrRegSp->uiR6 = 0;                        /* R6 */
  26:../mindows/mds_chip.c ****     pstrRegSp->uiR7 = 0;                        /* R7 */
  27:../mindows/mds_chip.c ****     pstrRegSp->uiR8 = 0;                        /* R8 */
  28:../mindows/mds_chip.c ****     pstrRegSp->uiR9 = 0;                        /* R9 */
  29:../mindows/mds_chip.c ****     pstrRegSp->uiR10 = 0;                       /* R10 */
  30:../mindows/mds_chip.c ****     pstrRegSp->uiR11 = 0;                       /* R11 */
  31:../mindows/mds_chip.c ****     pstrRegSp->uiR12 = 0;                       /* R12 */
  32:../mindows/mds_chip.c ****     pstrRegSp->uiR13 = (U32)pstrTcb;            /* R13 */
  33:../mindows/mds_chip.c ****     pstrRegSp->uiR14 = (U32)MDS_TaskSelfDelete; /* R14 */
  34:../mindows/mds_chip.c **** 
  35:../mindows/mds_chip.c ****     /* 非root任务首次运行可能会在IRQ中断里跳转执行, 函数入口地址需要多加4字节 */
  36:../mindows/mds_chip.c ****     if(MDS_RootTask != vfFuncPointer)
  35              		.loc 1 36 0
  36 0000 54309FE5 		ldr	r3, .L4
  37 0004 030051E1 		cmp	r1, r3
  33:../mindows/mds_chip.c ****     pstrRegSp->uiR14 = (U32)MDS_TaskSelfDelete; /* R14 */
  38              		.loc 1 33 0
  39 0008 50309FE5 		ldr	r3, .L4+4
  19:../mindows/mds_chip.c ****     pstrRegSp->uiR0 = 0;                        /* R0 */
  40              		.loc 1 19 0
  41 000c 00C0A0E3 		mov	ip, #0
  18:../mindows/mds_chip.c ****     pstrRegSp->uiCpsr = MODE_USR;               /* CPSR */
  42              		.loc 1 18 0
  43 0010 1020A0E3 		mov	r2, #16
  37:../mindows/mds_chip.c ****     {
  38:../mindows/mds_chip.c ****         pstrRegSp->uiR15 = (U32)vfFuncPointer + 4;  /* R15 */
  44              		.loc 1 38 0
  45 0014 04108112 		addne	r1, r1, #4
  46              	.LVL1:
  18:../mindows/mds_chip.c ****     pstrRegSp->uiCpsr = MODE_USR;               /* CPSR */
  47              		.loc 1 18 0
  48 0018 041080E8 		stmia	r0, {r2, ip}	@ phole stm
  20:../mindows/mds_chip.c ****     pstrRegSp->uiR1 = 0;                        /* R1 */
  49              		.loc 1 20 0
  50 001c 08C080E5 		str	ip, [r0, #8]
  21:../mindows/mds_chip.c ****     pstrRegSp->uiR2 = 0;                        /* R2 */
  51              		.loc 1 21 0
  52 0020 0CC080E5 		str	ip, [r0, #12]
  22:../mindows/mds_chip.c ****     pstrRegSp->uiR3 = 0;                        /* R3 */
  53              		.loc 1 22 0
  54 0024 10C080E5 		str	ip, [r0, #16]
  23:../mindows/mds_chip.c ****     pstrRegSp->uiR4 = 0;                        /* R4 */
  55              		.loc 1 23 0
  56 0028 14C080E5 		str	ip, [r0, #20]
  24:../mindows/mds_chip.c ****     pstrRegSp->uiR5 = 0;                        /* R5 */
  57              		.loc 1 24 0
  58 002c 18C080E5 		str	ip, [r0, #24]
  25:../mindows/mds_chip.c ****     pstrRegSp->uiR6 = 0;                        /* R6 */
  59              		.loc 1 25 0
  60 0030 1CC080E5 		str	ip, [r0, #28]
  26:../mindows/mds_chip.c ****     pstrRegSp->uiR7 = 0;                        /* R7 */
  61              		.loc 1 26 0
ARM GAS  C:\DOCUME~1\ADMINI~1\LOCALS~1\Temp\ccgPTXUI.s 			page 3


  62 0034 20C080E5 		str	ip, [r0, #32]
  27:../mindows/mds_chip.c ****     pstrRegSp->uiR8 = 0;                        /* R8 */
  63              		.loc 1 27 0
  64 0038 24C080E5 		str	ip, [r0, #36]
  28:../mindows/mds_chip.c ****     pstrRegSp->uiR9 = 0;                        /* R9 */
  65              		.loc 1 28 0
  66 003c 28C080E5 		str	ip, [r0, #40]
  29:../mindows/mds_chip.c ****     pstrRegSp->uiR10 = 0;                       /* R10 */
  67              		.loc 1 29 0
  68 0040 2CC080E5 		str	ip, [r0, #44]
  30:../mindows/mds_chip.c ****     pstrRegSp->uiR11 = 0;                       /* R11 */
  69              		.loc 1 30 0
  70 0044 30C080E5 		str	ip, [r0, #48]
  31:../mindows/mds_chip.c ****     pstrRegSp->uiR12 = 0;                       /* R12 */
  71              		.loc 1 31 0
  72 0048 34C080E5 		str	ip, [r0, #52]
  32:../mindows/mds_chip.c ****     pstrRegSp->uiR13 = (U32)pstrTcb;            /* R13 */
  73              		.loc 1 32 0
  74 004c 380080E5 		str	r0, [r0, #56]
  33:../mindows/mds_chip.c ****     pstrRegSp->uiR14 = (U32)MDS_TaskSelfDelete; /* R14 */
  75              		.loc 1 33 0
  76 0050 3C3080E5 		str	r3, [r0, #60]
  39:../mindows/mds_chip.c ****     }
  40:../mindows/mds_chip.c ****     else    /* root任务在USE模式下直接执行, 可以直接跳转到函数地址 */
  41:../mindows/mds_chip.c ****     {
  42:../mindows/mds_chip.c ****         pstrRegSp->uiR15 = (U32)vfFuncPointer;      /* R15 */
  77              		.loc 1 42 0
  78 0054 401080E5 		str	r1, [r0, #64]
  79 0058 1EFF2FE1 		bx	lr
  80              	.L5:
  81              		.align	2
  82              	.L4:
  83 005c 00000000 		.word	MDS_RootTask
  84 0060 00000000 		.word	MDS_TaskSelfDelete
  85              		.cfi_endproc
  86              	.LFE0:
  87              		.fnend
  88              		.size	MDS_TaskStackInit, .-MDS_TaskStackInit
  89              		.align	2
  90              		.global	MDS_TickIsr
  91              		.type	MDS_TickIsr, %function
  92              	MDS_TickIsr:
  93              		.fnstart
  94              	.LFB1:
  43:../mindows/mds_chip.c ****     }
  44:../mindows/mds_chip.c **** }
  45:../mindows/mds_chip.c **** 
  46:../mindows/mds_chip.c **** /***********************************************************************************
  47:../mindows/mds_chip.c **** 函数功能: tick中断服务函数.
  48:../mindows/mds_chip.c **** 入口参数: none.
  49:../mindows/mds_chip.c **** 返 回 值: none.
  50:../mindows/mds_chip.c **** ***********************************************************************************/
  51:../mindows/mds_chip.c **** void MDS_TickIsr(void)
  52:../mindows/mds_chip.c **** {
  95              		.loc 1 52 0
  96              		.cfi_startproc
  97              		@ Function supports interworking.
ARM GAS  C:\DOCUME~1\ADMINI~1\LOCALS~1\Temp\ccgPTXUI.s 			page 4


  98              		@ args = 0, pretend = 0, frame = 0
  99              		@ frame_needed = 1, uses_anonymous_args = 0
 100              		.movsp ip
 101 0064 0DC0A0E1 		mov	ip, sp
 102              	.LCFI0:
 103              		.cfi_def_cfa_register 12
 104 0068 78D82DE9 		stmfd	sp!, {r3, r4, r5, r6, fp, ip, lr, pc}
 105              		.pad #4
 106              		.save {r3, r4, r5, r6, fp, ip, lr}
  53:../mindows/mds_chip.c ****     U32 uiIrqStatus;
  54:../mindows/mds_chip.c **** 
  55:../mindows/mds_chip.c ****     /* 读取产生中断的IRQ中断源 */
  56:../mindows/mds_chip.c ****     uiIrqStatus = IRQSTA;
 107              		.loc 1 56 0
 108 006c 0F5AE0E3 		mvn	r5, #61440
 109              		.cfi_offset 14, -8
 110              		.cfi_offset 13, -12
 111              		.cfi_offset 11, -16
 112              		.cfi_offset 6, -20
 113              		.cfi_offset 5, -24
 114              		.cfi_offset 4, -28
 115              		.cfi_offset 3, -32
 116 0070 FF4F15E5 		ldr	r4, [r5, #-4095]
 117              	.LVL2:
  57:../mindows/mds_chip.c **** 
  58:../mindows/mds_chip.c ****     /* tick产生中断 */
  59:../mindows/mds_chip.c ****     if(TIME1INTMASK == (TIME1INTMASK & uiIrqStatus))
 118              		.loc 1 59 0
 119 0074 086014E2 		ands	r6, r4, #8
  52:../mindows/mds_chip.c **** {
 120              		.loc 1 52 0
 121              		.setfp fp, ip, #-4
 122 0078 04B04CE2 		sub	fp, ip, #4
 123              	.LCFI1:
 124              		.cfi_def_cfa 11, 4
 125              		.loc 1 59 0
 126 007c 0A00001A 		bne	.L10
 127              	.L7:
  60:../mindows/mds_chip.c ****     {
  61:../mindows/mds_chip.c ****         /* 调度任务 */
  62:../mindows/mds_chip.c ****         MDS_TaskTick();
  63:../mindows/mds_chip.c **** 
  64:../mindows/mds_chip.c ****         /******************* 用户可以在下面区域添加tick中断代码 *******************/
  65:../mindows/mds_chip.c **** 
  66:../mindows/mds_chip.c ****         /* 清除tick定时器中断标志 */
  67:../mindows/mds_chip.c ****         T1CLRI = 0;
  68:../mindows/mds_chip.c **** 
  69:../mindows/mds_chip.c ****         /******************* 用户可以在上面区域添加tick中断代码 *******************/
  70:../mindows/mds_chip.c ****     }
  71:../mindows/mds_chip.c **** 
  72:../mindows/mds_chip.c ****     /* 中断源有非tick中断 */
  73:../mindows/mds_chip.c ****     if(TIME1INTMASK != uiIrqStatus)
 128              		.loc 1 73 0
 129 0080 080054E3 		cmp	r4, #8
 130 0084 0100000A 		beq	.L6
  74:../mindows/mds_chip.c ****     {
  75:../mindows/mds_chip.c ****         /* 中断源没有tick中断则需要更新一次任务调度变量 */
ARM GAS  C:\DOCUME~1\ADMINI~1\LOCALS~1\Temp\ccgPTXUI.s 			page 5


  76:../mindows/mds_chip.c ****         if(TIME1INTMASK != (TIME1INTMASK & uiIrqStatus))
 131              		.loc 1 76 0
 132 0088 000056E3 		cmp	r6, #0
 133 008c 0200000A 		beq	.L11
 134              	.L6:
  77:../mindows/mds_chip.c ****         {
  78:../mindows/mds_chip.c ****             MDS_TaskSwitch(gpstrCurTcb);
  79:../mindows/mds_chip.c ****         }
  80:../mindows/mds_chip.c **** 
  81:../mindows/mds_chip.c ****         /****************** 用户可以在下面区域添加自定义中断代码 ******************/
  82:../mindows/mds_chip.c **** 
  83:../mindows/mds_chip.c **** 
  84:../mindows/mds_chip.c **** 
  85:../mindows/mds_chip.c ****         /****************** 用户可以在上面区域添加自定义中断代码 ******************/
  86:../mindows/mds_chip.c ****     }
  87:../mindows/mds_chip.c **** }
 135              		.loc 1 87 0
 136 0090 1CD04BE2 		sub	sp, fp, #28
 137 0094 78689DE8 		ldmfd	sp, {r3, r4, r5, r6, fp, sp, lr}
 138 0098 1EFF2FE1 		bx	lr
 139              	.L11:
  78:../mindows/mds_chip.c ****             MDS_TaskSwitch(gpstrCurTcb);
 140              		.loc 1 78 0
 141 009c 18009FE5 		ldr	r0, .L12
 142 00a0 000090E5 		ldr	r0, [r0, #0]
 143 00a4 FEFFFFEB 		bl	MDS_TaskSwitch
 144 00a8 F8FFFFEA 		b	.L6
 145              	.L10:
  62:../mindows/mds_chip.c ****         MDS_TaskTick();
 146              		.loc 1 62 0
 147 00ac FEFFFFEB 		bl	MDS_TaskTick
  67:../mindows/mds_chip.c ****         T1CLRI = 0;
 148              		.loc 1 67 0
 149 00b0 0030A0E3 		mov	r3, #0
 150 00b4 D33C05E5 		str	r3, [r5, #-3283]
 151 00b8 F0FFFFEA 		b	.L7
 152              	.L13:
 153              		.align	2
 154              	.L12:
 155 00bc 00000000 		.word	gpstrCurTcb
 156              		.cfi_endproc
 157              	.LFE1:
 158              		.fnend
 159              		.size	MDS_TickIsr, .-MDS_TickIsr
 160              		.align	2
 161              		.global	MDS_SwiIsr
 162              		.type	MDS_SwiIsr, %function
 163              	MDS_SwiIsr:
 164              		.fnstart
 165              	.LFB2:
  88:../mindows/mds_chip.c **** 
  89:../mindows/mds_chip.c **** /***********************************************************************************
  90:../mindows/mds_chip.c **** 函数功能: 软中断服务函数.
  91:../mindows/mds_chip.c **** 入口参数: uiSwiNo: 软中断号.
  92:../mindows/mds_chip.c **** 返 回 值: none.
  93:../mindows/mds_chip.c **** ***********************************************************************************/
  94:../mindows/mds_chip.c **** void MDS_SwiIsr(U32 uiSwiNo)
ARM GAS  C:\DOCUME~1\ADMINI~1\LOCALS~1\Temp\ccgPTXUI.s 			page 6


  95:../mindows/mds_chip.c **** {
 166              		.loc 1 95 0
 167              		.cfi_startproc
 168              		@ Function supports interworking.
 169              		@ args = 0, pretend = 0, frame = 0
 170              		@ frame_needed = 1, uses_anonymous_args = 0
 171              	.LVL3:
  96:../mindows/mds_chip.c ****     /* 软中断产生的任务调度 */
  97:../mindows/mds_chip.c ****     if(SWI_TASKSCHED == (SWI_TASKSCHED & uiSwiNo))
 172              		.loc 1 97 0
 173 00c0 64109FE5 		ldr	r1, .L21
  95:../mindows/mds_chip.c **** {
 174              		.loc 1 95 0
 175              		.movsp ip
 176 00c4 0DC0A0E1 		mov	ip, sp
 177              	.LCFI2:
 178              		.cfi_def_cfa_register 12
 179              		.loc 1 97 0
 180 00c8 5C209FE5 		ldr	r2, .L21
  95:../mindows/mds_chip.c **** {
 181              		.loc 1 95 0
 182 00cc 18D82DE9 		stmfd	sp!, {r3, r4, fp, ip, lr, pc}
 183              		.pad #4
 184              		.save {r3, r4, fp, ip, lr}
 185              		.loc 1 97 0
 186 00d0 013000E0 		and	r3, r0, r1
 187              		.cfi_offset 14, -8
 188              		.cfi_offset 13, -12
 189              		.cfi_offset 11, -16
 190              		.cfi_offset 4, -20
 191              		.cfi_offset 3, -24
 192 00d4 020053E1 		cmp	r3, r2
  95:../mindows/mds_chip.c **** {
 193              		.loc 1 95 0
 194              		.setfp fp, ip, #-4
 195 00d8 04B04CE2 		sub	fp, ip, #4
 196              	.LCFI3:
 197              		.cfi_def_cfa 11, 4
  95:../mindows/mds_chip.c **** {
 198              		.loc 1 95 0
 199 00dc 0040A0E1 		mov	r4, r0
 200              		.loc 1 97 0
 201 00e0 0F00000A 		beq	.L19
  98:../mindows/mds_chip.c ****     {
  99:../mindows/mds_chip.c ****         /* 调度任务 */
 100:../mindows/mds_chip.c ****         MDS_TaskReadySched();
 101:../mindows/mds_chip.c ****     }
 102:../mindows/mds_chip.c ****     else /* 中断源是非任务调度中断 */
 103:../mindows/mds_chip.c ****     {
 104:../mindows/mds_chip.c ****         /* 非任务调度中断引发的中断里需要更新一次任务调度变量 */
 105:../mindows/mds_chip.c ****         MDS_TaskSwitch(gpstrCurTcb);
 202              		.loc 1 105 0
 203 00e4 44009FE5 		ldr	r0, .L21+4
 204              	.LVL4:
 205 00e8 000090E5 		ldr	r0, [r0, #0]
 206 00ec FEFFFFEB 		bl	MDS_TaskSwitch
 106:../mindows/mds_chip.c **** 
ARM GAS  C:\DOCUME~1\ADMINI~1\LOCALS~1\Temp\ccgPTXUI.s 			page 7


 107:../mindows/mds_chip.c ****         switch(uiSwiNo)
 207              		.loc 1 107 0
 208 00f0 3C309FE5 		ldr	r3, .L21+8
 209 00f4 030054E1 		cmp	r4, r3
 210 00f8 0700000A 		beq	.L17
 211 00fc 01C083E2 		add	ip, r3, #1
 212 0100 0C0054E1 		cmp	r4, ip
 213 0104 0200000A 		beq	.L20
 214              	.L14:
 108:../mindows/mds_chip.c ****         {
 109:../mindows/mds_chip.c ****             case SWI_INTENABLE:     /* 中断使能 */
 110:../mindows/mds_chip.c **** 
 111:../mindows/mds_chip.c ****                 MDS_IntEnable();
 112:../mindows/mds_chip.c **** 
 113:../mindows/mds_chip.c ****                 break;
 114:../mindows/mds_chip.c **** 
 115:../mindows/mds_chip.c ****             case SWI_INTDISABLE:    /* 中断禁止 */
 116:../mindows/mds_chip.c **** 
 117:../mindows/mds_chip.c ****                 MDS_IntDisable();
 118:../mindows/mds_chip.c **** 
 119:../mindows/mds_chip.c ****                 break;
 120:../mindows/mds_chip.c **** 
 121:../mindows/mds_chip.c ****             /*************** 用户可以在下面区域添加自定义软中断代码 ***************/
 122:../mindows/mds_chip.c **** 
 123:../mindows/mds_chip.c ****             default:
 124:../mindows/mds_chip.c **** 
 125:../mindows/mds_chip.c ****                 break;
 126:../mindows/mds_chip.c **** 
 127:../mindows/mds_chip.c ****             /*************** 用户可以在上面区域添加自定义软中断代码 ***************/
 128:../mindows/mds_chip.c ****         }
 129:../mindows/mds_chip.c ****     }
 130:../mindows/mds_chip.c **** }
 215              		.loc 1 130 0
 216 0108 14D04BE2 		sub	sp, fp, #20
 217 010c 18689DE8 		ldmfd	sp, {r3, r4, fp, sp, lr}
 218 0110 1EFF2FE1 		bx	lr
 219              	.L20:
 117:../mindows/mds_chip.c ****                 MDS_IntDisable();
 220              		.loc 1 117 0
 221 0114 FEFFFFEB 		bl	MDS_IntDisable
 222 0118 FAFFFFEA 		b	.L14
 223              	.L17:
 111:../mindows/mds_chip.c ****                 MDS_IntEnable();
 224              		.loc 1 111 0
 225 011c FEFFFFEB 		bl	MDS_IntEnable
 113:../mindows/mds_chip.c ****                 break;
 226              		.loc 1 113 0
 227 0120 F8FFFFEA 		b	.L14
 228              	.L19:
 100:../mindows/mds_chip.c ****         MDS_TaskReadySched();
 229              		.loc 1 100 0
 230 0124 FEFFFFEB 		bl	MDS_TaskReadySched
 231 0128 F6FFFFEA 		b	.L14
 232              	.L22:
 233              		.align	2
 234              	.L21:
 235 012c 01100010 		.word	268439553
ARM GAS  C:\DOCUME~1\ADMINI~1\LOCALS~1\Temp\ccgPTXUI.s 			page 8


 236 0130 00000000 		.word	gpstrCurTcb
 237 0134 01200010 		.word	268443649
 238              		.cfi_endproc
 239              	.LFE2:
 240              		.fnend
 241              		.size	MDS_SwiIsr, .-MDS_SwiIsr
 242              		.align	2
 243              		.global	MDS_RunInInt
 244              		.type	MDS_RunInInt, %function
 245              	MDS_RunInInt:
 246              		.fnstart
 247              	.LFB4:
 131:../mindows/mds_chip.c **** 
 132:../mindows/mds_chip.c **** /***********************************************************************************
 133:../mindows/mds_chip.c **** 函数功能: 软中断任务调度函数, 非user模式下调用该函数不做任何操作.
 134:../mindows/mds_chip.c **** 入口参数: none.
 135:../mindows/mds_chip.c **** 返 回 值: none.
 136:../mindows/mds_chip.c **** ***********************************************************************************/
 137:../mindows/mds_chip.c **** void MDS_TaskSwiSched(void)
 138:../mindows/mds_chip.c **** {
 139:../mindows/mds_chip.c ****     /* 如果在中断中运行该函数则直接返回 */
 140:../mindows/mds_chip.c ****     if(RTN_SUCD == MDS_RunInInt())
 141:../mindows/mds_chip.c ****     {
 142:../mindows/mds_chip.c ****         return;
 143:../mindows/mds_chip.c ****     }
 144:../mindows/mds_chip.c **** 
 145:../mindows/mds_chip.c ****     /* 调用软中断, 在软中断服务程序中调度任务 */
 146:../mindows/mds_chip.c ****     MDS_TaskOccurSwi(SWI_TASKSCHED);
 147:../mindows/mds_chip.c **** }
 148:../mindows/mds_chip.c **** 
 149:../mindows/mds_chip.c **** /***********************************************************************************
 150:../mindows/mds_chip.c **** 函数功能: 判断当前程序是否是在中断中运行.
 151:../mindows/mds_chip.c **** 入口参数: none.
 152:../mindows/mds_chip.c **** 返 回 值: RTN_SUCD: 在中断中运行.
 153:../mindows/mds_chip.c ****           RTN_FAIL: 不在中断中运行.
 154:../mindows/mds_chip.c **** ***********************************************************************************/
 155:../mindows/mds_chip.c **** U32 MDS_RunInInt(void)
 156:../mindows/mds_chip.c **** {
 248              		.loc 1 156 0
 249              		.cfi_startproc
 250              		@ Function supports interworking.
 251              		@ args = 0, pretend = 0, frame = 0
 252              		@ frame_needed = 1, uses_anonymous_args = 0
 253              		.movsp ip
 254 0138 0DC0A0E1 		mov	ip, sp
 255              	.LCFI4:
 256              		.cfi_def_cfa_register 12
 257 013c 00D82DE9 		stmfd	sp!, {fp, ip, lr, pc}
 258              		.pad #4
 259              		.save {fp, ip, lr}
 260              		.setfp fp, ip, #-4
 261 0140 04B04CE2 		sub	fp, ip, #4
 262              		.cfi_offset 14, -8
 263              		.cfi_offset 13, -12
 264              		.cfi_offset 11, -16
 265              	.LCFI5:
 266              		.cfi_def_cfa 11, 4
ARM GAS  C:\DOCUME~1\ADMINI~1\LOCALS~1\Temp\ccgPTXUI.s 			page 9


 157:../mindows/mds_chip.c ****     /* 当前程序在中断中运行 */
 158:../mindows/mds_chip.c ****     if(MODE_USR != MDS_GetChipMode())
 267              		.loc 1 158 0
 268 0144 FEFFFFEB 		bl	MDS_GetChipMode
 159:../mindows/mds_chip.c ****     {
 160:../mindows/mds_chip.c ****         return RTN_SUCD;
 161:../mindows/mds_chip.c ****     }
 162:../mindows/mds_chip.c ****     else
 163:../mindows/mds_chip.c ****     {
 164:../mindows/mds_chip.c ****         return RTN_FAIL;
 165:../mindows/mds_chip.c ****     }
 166:../mindows/mds_chip.c **** }
 269              		.loc 1 166 0
 270 0148 103040E2 		sub	r3, r0, #16
 271 014c 000073E2 		rsbs	r0, r3, #0
 272 0150 0300A0E0 		adc	r0, r0, r3
 273 0154 0CD04BE2 		sub	sp, fp, #12
 274 0158 00689DE8 		ldmfd	sp, {fp, sp, lr}
 275 015c 1EFF2FE1 		bx	lr
 276              		.cfi_endproc
 277              	.LFE4:
 278              		.fnend
 279              		.size	MDS_RunInInt, .-MDS_RunInInt
 280              		.align	2
 281              		.global	MDS_TaskSwiSched
 282              		.type	MDS_TaskSwiSched, %function
 283              	MDS_TaskSwiSched:
 284              		.fnstart
 285              	.LFB3:
 138:../mindows/mds_chip.c **** {
 286              		.loc 1 138 0
 287              		.cfi_startproc
 288              		@ Function supports interworking.
 289              		@ args = 0, pretend = 0, frame = 0
 290              		@ frame_needed = 1, uses_anonymous_args = 0
 291              		.movsp ip
 292 0160 0DC0A0E1 		mov	ip, sp
 293              	.LCFI6:
 294              		.cfi_def_cfa_register 12
 295 0164 00D82DE9 		stmfd	sp!, {fp, ip, lr, pc}
 296              		.pad #4
 297              		.save {fp, ip, lr}
 298              		.setfp fp, ip, #-4
 299 0168 04B04CE2 		sub	fp, ip, #4
 300              		.cfi_offset 14, -8
 301              		.cfi_offset 13, -12
 302              		.cfi_offset 11, -16
 303              	.LCFI7:
 304              		.cfi_def_cfa 11, 4
 140:../mindows/mds_chip.c ****     if(RTN_SUCD == MDS_RunInInt())
 305              		.loc 1 140 0
 306 016c FEFFFFEB 		bl	MDS_RunInInt
 307 0170 000050E3 		cmp	r0, #0
 146:../mindows/mds_chip.c ****     MDS_TaskOccurSwi(SWI_TASKSCHED);
 308              		.loc 1 146 0
 309 0174 0C009F15 		ldrne	r0, .L26
 310 0178 FEFFFF1B 		blne	MDS_TaskOccurSwi
ARM GAS  C:\DOCUME~1\ADMINI~1\LOCALS~1\Temp\ccgPTXUI.s 			page 10


 311              	.L24:
 147:../mindows/mds_chip.c **** }
 312              		.loc 1 147 0
 313 017c 0CD04BE2 		sub	sp, fp, #12
 314 0180 00689DE8 		ldmfd	sp, {fp, sp, lr}
 315 0184 1EFF2FE1 		bx	lr
 316              	.L27:
 317              		.align	2
 318              	.L26:
 319 0188 01100010 		.word	268439553
 320              		.cfi_endproc
 321              	.LFE3:
 322              		.fnend
 323              		.size	MDS_TaskSwiSched, .-MDS_TaskSwiSched
 324              	.Letext0:
 1514              		.section	.note.GNU-stack,"",%progbits
ARM GAS  C:\DOCUME~1\ADMINI~1\LOCALS~1\Temp\ccgPTXUI.s 			page 35

