ARM GAS  C:\DOCUME~1\ADMINI~1\LOCALS~1\Temp\ccusa1c5.s 			page 1


   1              		.cpu arm7tdmi
   2              		.fpu softvfp
   3              		.eabi_attribute 20, 1
   4              		.eabi_attribute 21, 1
   5              		.eabi_attribute 23, 3
   6              		.eabi_attribute 24, 1
   7              		.eabi_attribute 25, 1
   8              		.eabi_attribute 26, 2
   9              		.eabi_attribute 30, 2
  10              		.eabi_attribute 18, 4
  11              		.file	"mds_task.c"
  18 0000 CA010000 		.text
  18      02007400 
  18      00000201 
  18      FB0E0D00 
  18      01010101 
  19              	.Ltext0:
  20              		.cfi_sections	.debug_frame
  21              		.align	2
  22              		.global	MDS_TaskDelete
  23              		.type	MDS_TaskDelete, %function
  24              	MDS_TaskDelete:
  25              		.fnstart
  26              	.LFB1:
  27              		.file 1 "../mindows/mds_task.c"
   1:../mindows/mds_task.c **** 
   2:../mindows/mds_task.c **** #include "mindows_inner.h"
   3:../mindows/mds_task.c **** 
   4:../mindows/mds_task.c **** 
   5:../mindows/mds_task.c **** #ifdef MDS_INCLUDETASKHOOK
   6:../mindows/mds_task.c **** VFHCRT gvfTaskCreateHook;               /* 任务创建钩子变量 */
   7:../mindows/mds_task.c **** VFHSWT gvfTaskSwitchHook;               /* 任务切换钩子变量 */
   8:../mindows/mds_task.c **** VFHDLT gvfTaskDeleteHook;               /* 任务删除钩子变量 */
   9:../mindows/mds_task.c **** #endif
  10:../mindows/mds_task.c **** 
  11:../mindows/mds_task.c **** 
  12:../mindows/mds_task.c **** /***********************************************************************************
  13:../mindows/mds_task.c **** 函数功能: 创建一个任务.
  14:../mindows/mds_task.c **** 入口参数: pucTaskName: 指向任务名称的指针.
  15:../mindows/mds_task.c ****           vfFuncPointer: 创建任务所使用函数的指针.
  16:../mindows/mds_task.c ****           pucTaskStack: 任务所使用堆栈的最低起始地址. 若为空, 则由任务自行申请.
  17:../mindows/mds_task.c ****           uiStackSize: 堆栈大小, 单位: 字节.
  18:../mindows/mds_task.c ****           ucTaskPrio: 任务优先级.
  19:../mindows/mds_task.c ****           pstrTaskOpt: 任务参数指针.
  20:../mindows/mds_task.c **** 返 回 值: NULL: 创建任务失败.
  21:../mindows/mds_task.c ****           其它: 任务的TCB指针.
  22:../mindows/mds_task.c **** ***********************************************************************************/
  23:../mindows/mds_task.c **** M_TCB* MDS_TaskCreate(U8* pucTaskName, VFUNC vfFuncPointer, U8* pucTaskStack,
  24:../mindows/mds_task.c ****                       U32 uiStackSize, U8 ucTaskPrio, M_TASKOPT* pstrTaskOpt)
  25:../mindows/mds_task.c **** {
  26:../mindows/mds_task.c ****     M_TCB* pstrTcb;
ARM GAS  C:\DOCUME~1\ADMINI~1\LOCALS~1\Temp\ccusa1c5.s 			page 2


  27:../mindows/mds_task.c **** 
  28:../mindows/mds_task.c ****     /* pucTaskName和pstrTaskOpt参数并非必须, 不做检查 */
  29:../mindows/mds_task.c **** 
  30:../mindows/mds_task.c ****     /* 对创建任务所使用函数的指针合法性进行检查 */
  31:../mindows/mds_task.c ****     if(NULL == vfFuncPointer)
  32:../mindows/mds_task.c ****     {
  33:../mindows/mds_task.c ****         /* 指针为空, 返回失败 */
  34:../mindows/mds_task.c ****         return (M_TCB*)NULL;
  35:../mindows/mds_task.c ****     }
  36:../mindows/mds_task.c **** 
  37:../mindows/mds_task.c ****     /* 对任务堆栈合法性进行检查 */
  38:../mindows/mds_task.c ****     if((NULL == pucTaskStack) || (0 == uiStackSize))
  39:../mindows/mds_task.c ****     {
  40:../mindows/mds_task.c ****         /* 堆栈不合法, 返回失败 */
  41:../mindows/mds_task.c ****         return (M_TCB*)NULL;
  42:../mindows/mds_task.c ****     }
  43:../mindows/mds_task.c **** 
  44:../mindows/mds_task.c ****     /* 配置任务参数时对任务状态合法性进行检查 */
  45:../mindows/mds_task.c ****     if(NULL != pstrTaskOpt)
  46:../mindows/mds_task.c ****     {
  47:../mindows/mds_task.c ****         /* 不存在的任务状态返回失败 */
  48:../mindows/mds_task.c ****         if(!((TASKREADY == pstrTaskOpt->ucTaskSta)
  49:../mindows/mds_task.c ****              || (TASKDELAY == pstrTaskOpt->ucTaskSta)))
  50:../mindows/mds_task.c ****         {
  51:../mindows/mds_task.c ****             return (M_TCB*)NULL;
  52:../mindows/mds_task.c ****         }
  53:../mindows/mds_task.c ****     }
  54:../mindows/mds_task.c **** 
  55:../mindows/mds_task.c ****     /* 对非系统任务优先级检查 */
  56:../mindows/mds_task.c ****     if((MDS_RootTask != vfFuncPointer) && (MDS_IdleTask != vfFuncPointer))
  57:../mindows/mds_task.c ****     {
  58:../mindows/mds_task.c ****         /* 非系统任务优先级不能是最高优先级, 也不能低于最低优先级 */
  59:../mindows/mds_task.c ****         if((HIGHESTPRIO == ucTaskPrio) || (ucTaskPrio >= LOWESTPRIO))
  60:../mindows/mds_task.c ****         {
  61:../mindows/mds_task.c ****             return (M_TCB*)NULL;
  62:../mindows/mds_task.c ****         }
  63:../mindows/mds_task.c ****     }
  64:../mindows/mds_task.c **** 
  65:../mindows/mds_task.c ****     /* 对是否重复创建root任务进行检查 */
  66:../mindows/mds_task.c ****     if(MDS_RootTask == vfFuncPointer)
  67:../mindows/mds_task.c ****     {
  68:../mindows/mds_task.c ****         /* root任务已经创建过, 返回失败 */
  69:../mindows/mds_task.c ****         if(NULL != gpstrRootTaskTcb)
  70:../mindows/mds_task.c ****         {
  71:../mindows/mds_task.c ****             return (M_TCB*)NULL;
  72:../mindows/mds_task.c ****         }
  73:../mindows/mds_task.c ****     }
  74:../mindows/mds_task.c **** 
  75:../mindows/mds_task.c ****     /* 对是否重复创建idle任务进行检查 */
  76:../mindows/mds_task.c ****     if(MDS_IdleTask == vfFuncPointer)
  77:../mindows/mds_task.c ****     {
  78:../mindows/mds_task.c ****         /* idle任务已经创建过, 返回失败 */
  79:../mindows/mds_task.c ****         if(NULL != gpstrIdleTaskTcb)
  80:../mindows/mds_task.c ****         {
  81:../mindows/mds_task.c ****             return (M_TCB*)NULL;
  82:../mindows/mds_task.c ****         }
  83:../mindows/mds_task.c ****     }
ARM GAS  C:\DOCUME~1\ADMINI~1\LOCALS~1\Temp\ccusa1c5.s 			page 3


  84:../mindows/mds_task.c **** 
  85:../mindows/mds_task.c ****     /* 初始化TCB */
  86:../mindows/mds_task.c ****     pstrTcb = MDS_TaskTcbInit(pucTaskName, vfFuncPointer, pucTaskStack, uiStackSize,
  87:../mindows/mds_task.c ****                               ucTaskPrio, pstrTaskOpt);
  88:../mindows/mds_task.c **** 
  89:../mindows/mds_task.c ****     /* 创建非系统任务后的操作 */
  90:../mindows/mds_task.c ****     if((MDS_RootTask != vfFuncPointer) && (MDS_IdleTask != vfFuncPointer))
  91:../mindows/mds_task.c ****     {
  92:../mindows/mds_task.c **** #ifdef MDS_INCLUDETASKHOOK
  93:../mindows/mds_task.c **** 
  94:../mindows/mds_task.c ****         /* 如果任务创建钩子已经挂接函数则执行该函数 */
  95:../mindows/mds_task.c ****         if((VFHCRT)NULL != gvfTaskCreateHook)
  96:../mindows/mds_task.c ****         {
  97:../mindows/mds_task.c ****             gvfTaskCreateHook(pstrTcb);
  98:../mindows/mds_task.c ****         }
  99:../mindows/mds_task.c **** 
 100:../mindows/mds_task.c **** #endif
 101:../mindows/mds_task.c **** 
 102:../mindows/mds_task.c ****         /* 使用软中断调度任务 */
 103:../mindows/mds_task.c ****         MDS_TaskSwiSched();
 104:../mindows/mds_task.c ****     }
 105:../mindows/mds_task.c **** 
 106:../mindows/mds_task.c ****     return pstrTcb;
 107:../mindows/mds_task.c **** }
 108:../mindows/mds_task.c **** 
 109:../mindows/mds_task.c **** /***********************************************************************************
 110:../mindows/mds_task.c **** 函数功能: 删除一个任务.
 111:../mindows/mds_task.c **** 入口参数: pstrTcb: 要删除的任务的TCB指针.
 112:../mindows/mds_task.c **** 返 回 值: RTN_SUCD: 任务删除成功.
 113:../mindows/mds_task.c ****           RTN_FAIL: 任务删除失败.
 114:../mindows/mds_task.c **** ***********************************************************************************/
 115:../mindows/mds_task.c **** U32 MDS_TaskDelete(M_TCB* pstrTcb)
 116:../mindows/mds_task.c **** {
  28              		.loc 1 116 0
  29              		.cfi_startproc
  30              		@ Function supports interworking.
  31              		@ args = 0, pretend = 0, frame = 0
  32              		@ frame_needed = 1, uses_anonymous_args = 0
  33              	.LVL0:
  34              		.movsp ip
  35 0000 0DC0A0E1 		mov	ip, sp
  36              	.LCFI0:
  37              		.cfi_def_cfa_register 12
  38 0004 30D82DE9 		stmfd	sp!, {r4, r5, fp, ip, lr, pc}
  39              		.pad #4
  40              		.save {r4, r5, fp, ip, lr}
 117:../mindows/mds_task.c ****     M_CHAIN* pstrChain;
 118:../mindows/mds_task.c ****     M_CHAIN* pstrNode;
 119:../mindows/mds_task.c ****     M_PRIOFLAG* pstrPrioFlag;
 120:../mindows/mds_task.c ****     U8 ucTaskPrio;
 121:../mindows/mds_task.c ****     U8 ucTaskSta;
 122:../mindows/mds_task.c **** 
 123:../mindows/mds_task.c ****     /* 入口参数检查 */
 124:../mindows/mds_task.c ****     if(NULL == pstrTcb)
  41              		.loc 1 124 0
  42 0008 004050E2 		subs	r4, r0, #0
  43              		.cfi_offset 14, -8
ARM GAS  C:\DOCUME~1\ADMINI~1\LOCALS~1\Temp\ccusa1c5.s 			page 4


  44              		.cfi_offset 13, -12
  45              		.cfi_offset 11, -16
  46              		.cfi_offset 5, -20
  47              		.cfi_offset 4, -24
 116:../mindows/mds_task.c **** {
  48              		.loc 1 116 0
  49              		.setfp fp, ip, #-4
  50 000c 04B04CE2 		sub	fp, ip, #4
  51              	.LCFI1:
  52              		.cfi_def_cfa 11, 4
  53              		.loc 1 124 0
  54 0010 3100000A 		beq	.L8
 125:../mindows/mds_task.c ****     {
 126:../mindows/mds_task.c ****         return RTN_FAIL;
 127:../mindows/mds_task.c ****     }
 128:../mindows/mds_task.c **** 
 129:../mindows/mds_task.c ****     /* idle任务不能被删除 */
 130:../mindows/mds_task.c ****     if(pstrTcb == gpstrIdleTaskTcb)
  55              		.loc 1 130 0
  56 0014 C8009FE5 		ldr	r0, .L14
  57              	.LVL1:
  58 0018 003090E5 		ldr	r3, [r0, #0]
  59 001c 030054E1 		cmp	r4, r3
  60 0020 2D00000A 		beq	.L8
 131:../mindows/mds_task.c ****     {
 132:../mindows/mds_task.c ****         return RTN_FAIL;
 133:../mindows/mds_task.c ****     }
 134:../mindows/mds_task.c **** 
 135:../mindows/mds_task.c ****     (void)MDS_IntLock();
  61              		.loc 1 135 0
  62 0024 FEFFFFEB 		bl	MDS_IntLock
 136:../mindows/mds_task.c **** 
 137:../mindows/mds_task.c ****     /* 获取要删除任务的任务状态 */
 138:../mindows/mds_task.c ****     ucTaskSta = pstrTcb->strTaskOpt.ucTaskSta;
  63              		.loc 1 138 0
  64 0028 6C50D4E5 		ldrb	r5, [r4, #108]	@ zero_extendqisi2
  65              	.LVL2:
 139:../mindows/mds_task.c **** 
 140:../mindows/mds_task.c ****     /* 该任务在ready表中, 从ready表删除 */
 141:../mindows/mds_task.c ****     if(TASKREADY == (TASKREADY & ucTaskSta))
  66              		.loc 1 141 0
  67 002c 020015E3 		tst	r5, #2
  68 0030 1F00001A 		bne	.L10
 142:../mindows/mds_task.c ****     {
 143:../mindows/mds_task.c ****         /* 获取该任务的相关调度参数 */
 144:../mindows/mds_task.c ****         ucTaskPrio = pstrTcb->ucTaskPrio;
 145:../mindows/mds_task.c ****         pstrChain = &gstrReadyTab.astrChain[ucTaskPrio];
 146:../mindows/mds_task.c ****         pstrPrioFlag = &gstrReadyTab.strFlag;
 147:../mindows/mds_task.c **** 
 148:../mindows/mds_task.c ****         /* 将该任务从ready表拆除 */
 149:../mindows/mds_task.c ****         (void)MDS_TaskDelFromSchedTab(pstrChain, pstrPrioFlag, ucTaskPrio);
 150:../mindows/mds_task.c ****     }
 151:../mindows/mds_task.c **** 
 152:../mindows/mds_task.c ****     /* 任务在delay表则从delay表拆除 */
 153:../mindows/mds_task.c ****     if(DELAYQUEFLAG == (pstrTcb->uiTaskFlag & DELAYQUEFLAG))
  69              		.loc 1 153 0
  70 0034 642094E5 		ldr	r2, [r4, #100]
ARM GAS  C:\DOCUME~1\ADMINI~1\LOCALS~1\Temp\ccusa1c5.s 			page 5


  71 0038 010012E3 		tst	r2, #1
  72 003c 1600001A 		bne	.L11
  73              	.L4:
 154:../mindows/mds_task.c ****     {
 155:../mindows/mds_task.c ****         /* 获取该任务TCB中挂接在delay调度表上的节点 */
 156:../mindows/mds_task.c ****         pstrNode = &pstrTcb->strDelayQue.strQueHead;
 157:../mindows/mds_task.c **** 
 158:../mindows/mds_task.c ****         /* 从delay表拆除该任务 */
 159:../mindows/mds_task.c ****         (void)MDS_ChainCurNodeDelete(&gstrDelayTab, pstrNode);
 160:../mindows/mds_task.c ****     }
 161:../mindows/mds_task.c **** 
 162:../mindows/mds_task.c ****     /* 任务拥有pend状态 */
 163:../mindows/mds_task.c ****     if(TASKPEND == (TASKPEND & ucTaskSta))
  74              		.loc 1 163 0
  75 0040 080015E3 		tst	r5, #8
  76 0044 0C00001A 		bne	.L12
  77              	.L5:
 164:../mindows/mds_task.c ****     {
 165:../mindows/mds_task.c ****         /* 从信号量调度表拆除任务 */
 166:../mindows/mds_task.c ****         (void)MDS_TaskDelFromSemTab(pstrTcb);
 167:../mindows/mds_task.c ****     }
 168:../mindows/mds_task.c **** 
 169:../mindows/mds_task.c ****     (void)MDS_IntUnlock();
  78              		.loc 1 169 0
  79 0048 FEFFFFEB 		bl	MDS_IntUnlock
 170:../mindows/mds_task.c **** 
 171:../mindows/mds_task.c ****     /* 如果任务删除钩子已经挂接函数则执行该函数 */
 172:../mindows/mds_task.c ****     if((VFHDLT)NULL != gvfTaskDeleteHook)
  80              		.loc 1 172 0
  81 004c 94309FE5 		ldr	r3, .L14+4
  82 0050 003093E5 		ldr	r3, [r3, #0]
  83 0054 000053E3 		cmp	r3, #0
  84 0058 0200000A 		beq	.L6
  85              	.L13:
 173:../mindows/mds_task.c ****     {
 174:../mindows/mds_task.c ****         gvfTaskDeleteHook(pstrTcb);
  86              		.loc 1 174 0
  87 005c 0400A0E1 		mov	r0, r4
  88 0060 0FE0A0E1 		mov	lr, pc
  89 0064 13FF2FE1 		bx	r3
  90              	.L6:
 175:../mindows/mds_task.c ****     }
 176:../mindows/mds_task.c **** 
 177:../mindows/mds_task.c ****     /* 使用软中断调度任务 */
 178:../mindows/mds_task.c ****     MDS_TaskSwiSched();
  91              		.loc 1 178 0
  92 0068 FEFFFFEB 		bl	MDS_TaskSwiSched
 179:../mindows/mds_task.c **** 
 180:../mindows/mds_task.c ****     return RTN_SUCD;
  93              		.loc 1 180 0
  94 006c 0000A0E3 		mov	r0, #0
  95              	.LVL3:
  96              	.L2:
 181:../mindows/mds_task.c **** }
  97              		.loc 1 181 0
  98 0070 14D04BE2 		sub	sp, fp, #20
  99 0074 30689DE8 		ldmfd	sp, {r4, r5, fp, sp, lr}
ARM GAS  C:\DOCUME~1\ADMINI~1\LOCALS~1\Temp\ccusa1c5.s 			page 6


 100 0078 1EFF2FE1 		bx	lr
 101              	.LVL4:
 102              	.L12:
 166:../mindows/mds_task.c ****         (void)MDS_TaskDelFromSemTab(pstrTcb);
 103              		.loc 1 166 0
 104 007c 0400A0E1 		mov	r0, r4
 105 0080 FEFFFFEB 		bl	MDS_TaskDelFromSemTab
 169:../mindows/mds_task.c ****     (void)MDS_IntUnlock();
 106              		.loc 1 169 0
 107 0084 FEFFFFEB 		bl	MDS_IntUnlock
 172:../mindows/mds_task.c ****     if((VFHDLT)NULL != gvfTaskDeleteHook)
 108              		.loc 1 172 0
 109 0088 58309FE5 		ldr	r3, .L14+4
 110 008c 003093E5 		ldr	r3, [r3, #0]
 111 0090 000053E3 		cmp	r3, #0
 112 0094 F0FFFF1A 		bne	.L13
 113 0098 F2FFFFEA 		b	.L6
 114              	.L11:
 115              	.LVL5:
 159:../mindows/mds_task.c ****         (void)MDS_ChainCurNodeDelete(&gstrDelayTab, pstrNode);
 116              		.loc 1 159 0
 117 009c 48009FE5 		ldr	r0, .L14+8
 118 00a0 501084E2 		add	r1, r4, #80
 119 00a4 FEFFFFEB 		bl	MDS_ChainCurNodeDelete
 163:../mindows/mds_task.c ****     if(TASKPEND == (TASKPEND & ucTaskSta))
 120              		.loc 1 163 0
 121 00a8 080015E3 		tst	r5, #8
 122 00ac E5FFFF0A 		beq	.L5
 123 00b0 F1FFFFEA 		b	.L12
 124              	.LVL6:
 125              	.L10:
 144:../mindows/mds_task.c ****         ucTaskPrio = pstrTcb->ucTaskPrio;
 126              		.loc 1 144 0
 127 00b4 68C0D4E5 		ldrb	ip, [r4, #104]	@ zero_extendqisi2
 128              	.LVL7:
 145:../mindows/mds_task.c ****         pstrChain = &gstrReadyTab.astrChain[ucTaskPrio];
 129              		.loc 1 145 0
 130 00b8 30109FE5 		ldr	r1, .L14+12
 149:../mindows/mds_task.c ****         (void)MDS_TaskDelFromSchedTab(pstrChain, pstrPrioFlag, ucTaskPrio);
 131              		.loc 1 149 0
 132 00bc 0C20A0E1 		mov	r2, ip
 133 00c0 8C0181E0 		add	r0, r1, ip, asl #3
 134 00c4 401081E2 		add	r1, r1, #64
 135 00c8 FEFFFFEB 		bl	MDS_TaskDelFromSchedTab
 136              	.LVL8:
 153:../mindows/mds_task.c ****     if(DELAYQUEFLAG == (pstrTcb->uiTaskFlag & DELAYQUEFLAG))
 137              		.loc 1 153 0
 138 00cc 642094E5 		ldr	r2, [r4, #100]
 139 00d0 010012E3 		tst	r2, #1
 140 00d4 D9FFFF0A 		beq	.L4
 141 00d8 EFFFFFEA 		b	.L11
 142              	.LVL9:
 143              	.L8:
 132:../mindows/mds_task.c ****         return RTN_FAIL;
 144              		.loc 1 132 0
 145 00dc 0100A0E3 		mov	r0, #1
 146 00e0 E2FFFFEA 		b	.L2
ARM GAS  C:\DOCUME~1\ADMINI~1\LOCALS~1\Temp\ccusa1c5.s 			page 7


 147              	.L15:
 148              		.align	2
 149              	.L14:
 150 00e4 00000000 		.word	gpstrIdleTaskTcb
 151 00e8 00000000 		.word	gvfTaskDeleteHook
 152 00ec 00000000 		.word	gstrDelayTab
 153 00f0 00000000 		.word	gstrReadyTab
 154              		.cfi_endproc
 155              	.LFE1:
 156              		.fnend
 157              		.size	MDS_TaskDelete, .-MDS_TaskDelete
 158              		.align	2
 159              		.global	MDS_TaskSelfDelete
 160              		.type	MDS_TaskSelfDelete, %function
 161              	MDS_TaskSelfDelete:
 162              		.fnstart
 163              	.LFB2:
 182:../mindows/mds_task.c **** 
 183:../mindows/mds_task.c **** /***********************************************************************************
 184:../mindows/mds_task.c **** 函数功能: 删除当前运行的任务.
 185:../mindows/mds_task.c **** 入口参数: none.
 186:../mindows/mds_task.c **** 返 回 值: none.
 187:../mindows/mds_task.c **** ***********************************************************************************/
 188:../mindows/mds_task.c **** void MDS_TaskSelfDelete(void)
 189:../mindows/mds_task.c **** {
 164              		.loc 1 189 0
 165              		.cfi_startproc
 166              		@ Function supports interworking.
 167              		@ args = 0, pretend = 0, frame = 0
 168              		@ frame_needed = 0, uses_anonymous_args = 0
 169              		@ link register save eliminated.
 190:../mindows/mds_task.c ****     (void)MDS_TaskDelete(gpstrCurTcb);
 170              		.loc 1 190 0
 171 00f4 04309FE5 		ldr	r3, .L17
 172 00f8 000093E5 		ldr	r0, [r3, #0]
 191:../mindows/mds_task.c **** }
 173              		.loc 1 191 0
 190:../mindows/mds_task.c ****     (void)MDS_TaskDelete(gpstrCurTcb);
 174              		.loc 1 190 0
 175 00fc FEFFFFEA 		b	MDS_TaskDelete
 176              	.L18:
 177              		.align	2
 178              	.L17:
 179 0100 00000000 		.word	gpstrCurTcb
 180              		.cfi_endproc
 181              	.LFE2:
 182              		.fnend
 183              		.size	MDS_TaskSelfDelete, .-MDS_TaskSelfDelete
 184              		.align	2
 185              		.global	MDS_TaskTcbInit
 186              		.type	MDS_TaskTcbInit, %function
 187              	MDS_TaskTcbInit:
 188              		.fnstart
 189              	.LFB3:
 192:../mindows/mds_task.c **** 
 193:../mindows/mds_task.c **** /***********************************************************************************
 194:../mindows/mds_task.c **** 函数功能: 初始化任务TCB, 用来创建任务运行前TCB的状态.
ARM GAS  C:\DOCUME~1\ADMINI~1\LOCALS~1\Temp\ccusa1c5.s 			page 8


 195:../mindows/mds_task.c **** 入口参数: pucTaskName: 指向任务名称的指针.
 196:../mindows/mds_task.c ****           vfFuncPionter: 创建任务所使用的函数指针.
 197:../mindows/mds_task.c ****           pucTaskStack: 任务所使用的堆栈地址.
 198:../mindows/mds_task.c ****           uiStackSize: 堆栈大小, 单位: 字节.
 199:../mindows/mds_task.c ****           ucTaskPrio: 任务优先级.
 200:../mindows/mds_task.c ****           pstrTaskOpt: 任务参数指针.
 201:../mindows/mds_task.c **** 返 回 值: NULL: 创建任务失败.
 202:../mindows/mds_task.c ****           其它: 任务的TCB指针.
 203:../mindows/mds_task.c **** ***********************************************************************************/
 204:../mindows/mds_task.c **** M_TCB* MDS_TaskTcbInit(U8* pucTaskName, VFUNC vfFuncPointer, U8* pucTaskStack,
 205:../mindows/mds_task.c ****                        U32 uiStackSize, U8 ucTaskPrio, M_TASKOPT* pstrTaskOpt)
 206:../mindows/mds_task.c **** {
 190              		.loc 1 206 0
 191              		.cfi_startproc
 192              		@ Function supports interworking.
 193              		@ args = 8, pretend = 0, frame = 0
 194              		@ frame_needed = 1, uses_anonymous_args = 0
 195              	.LVL10:
 196              		.movsp ip
 197 0104 0DC0A0E1 		mov	ip, sp
 198              	.LCFI2:
 199              		.cfi_def_cfa_register 12
 200 0108 F0D82DE9 		stmfd	sp!, {r4, r5, r6, r7, fp, ip, lr, pc}
 201              		.pad #4
 202              		.save {r4, r5, r6, r7, fp, ip, lr}
 207:../mindows/mds_task.c ****     M_TCB* pstrTcb;
 208:../mindows/mds_task.c ****     M_CHAIN* pstrChain;
 209:../mindows/mds_task.c ****     M_CHAIN* pstrNode;
 210:../mindows/mds_task.c ****     M_PRIOFLAG* pstrPrioFlag;
 211:../mindows/mds_task.c ****     U8* pucStackBy4;
 212:../mindows/mds_task.c **** 
 213:../mindows/mds_task.c ****     /* 堆栈满地址, 需要4字节对齐 */
 214:../mindows/mds_task.c ****     pucStackBy4 = (U8*)(((U32)pucTaskStack + uiStackSize) & 0xFFFFFFFC);
 203              		.loc 1 214 0
 204 010c 035082E0 		add	r5, r2, r3
 205              		.cfi_offset 14, -8
 206              		.cfi_offset 13, -12
 207              		.cfi_offset 11, -16
 208              		.cfi_offset 7, -20
 209              		.cfi_offset 6, -24
 210              		.cfi_offset 5, -28
 211              		.cfi_offset 4, -32
 212 0110 0340C5E3 		bic	r4, r5, #3
 215:../mindows/mds_task.c **** 
 216:../mindows/mds_task.c ****     /* TCB结构存放的地址, 需要4字节对齐 */
 217:../mindows/mds_task.c ****     pstrTcb = (M_TCB*)(((U32)pucStackBy4 - sizeof(M_TCB)) & 0xFFFFFFFC);
 213              		.loc 1 217 0
 214 0114 784044E2 		sub	r4, r4, #120
 215              	.LVL11:
 206:../mindows/mds_task.c **** {
 216              		.loc 1 206 0
 217              		.setfp fp, ip, #-4
 218 0118 04B04CE2 		sub	fp, ip, #4
 219              	.LCFI3:
 220              		.cfi_def_cfa 11, 4
 206:../mindows/mds_task.c **** {
 221              		.loc 1 206 0
ARM GAS  C:\DOCUME~1\ADMINI~1\LOCALS~1\Temp\ccusa1c5.s 			page 9


 222 011c 0070A0E1 		mov	r7, r0
 218:../mindows/mds_task.c **** 
 219:../mindows/mds_task.c ****     /* 初始化任务堆栈 */
 220:../mindows/mds_task.c ****     MDS_TaskStackInit(pstrTcb, vfFuncPointer);
 223              		.loc 1 220 0
 224 0120 0400A0E1 		mov	r0, r4
 225              	.LVL12:
 206:../mindows/mds_task.c **** {
 226              		.loc 1 206 0
 227 0124 08509BE5 		ldr	r5, [fp, #8]
 228 0128 0460DBE5 		ldrb	r6, [fp, #4]	@ zero_extendqisi2
 229              		.loc 1 220 0
 230 012c FEFFFFEB 		bl	MDS_TaskStackInit
 231              	.LVL13:
 221:../mindows/mds_task.c **** 
 222:../mindows/mds_task.c ****     /* 先将任务标志初始化为全空, 后面再为其增加具体的功能标志 */
 223:../mindows/mds_task.c ****     pstrTcb->uiTaskFlag = 0;
 232              		.loc 1 223 0
 233 0130 0030A0E3 		mov	r3, #0
 234 0134 643084E5 		str	r3, [r4, #100]
 224:../mindows/mds_task.c **** 
 225:../mindows/mds_task.c ****     /* 初始化指向TCB的指针 */
 226:../mindows/mds_task.c ****     pstrTcb->strTcbQue.pstrTcb = pstrTcb;
 227:../mindows/mds_task.c ****     pstrTcb->strDelayQue.pstrTcb = pstrTcb;
 228:../mindows/mds_task.c **** 
 229:../mindows/mds_task.c ****     /* 初始化指向任务名称的指针 */
 230:../mindows/mds_task.c ****     pstrTcb->pucTaskName = pucTaskName;
 231:../mindows/mds_task.c **** 
 232:../mindows/mds_task.c ****     /* 初始化任务优先级 */
 233:../mindows/mds_task.c ****     pstrTcb->ucTaskPrio = ucTaskPrio;
 235              		.loc 1 233 0
 236 0138 6860C4E5 		strb	r6, [r4, #104]
 226:../mindows/mds_task.c ****     pstrTcb->strTcbQue.pstrTcb = pstrTcb;
 237              		.loc 1 226 0
 238 013c 4C4084E5 		str	r4, [r4, #76]
 227:../mindows/mds_task.c ****     pstrTcb->strDelayQue.pstrTcb = pstrTcb;
 239              		.loc 1 227 0
 240 0140 584084E5 		str	r4, [r4, #88]
 230:../mindows/mds_task.c ****     pstrTcb->pucTaskName = pucTaskName;
 241              		.loc 1 230 0
 242 0144 607084E5 		str	r7, [r4, #96]
 234:../mindows/mds_task.c **** 
 235:../mindows/mds_task.c ****     /* 没有任务参数则将任务状态设置为ready态 */
 236:../mindows/mds_task.c ****     if(NULL == pstrTaskOpt)
 243              		.loc 1 236 0
 244 0148 000055E3 		cmp	r5, #0
 237:../mindows/mds_task.c ****     {
 238:../mindows/mds_task.c ****         pstrTcb->strTaskOpt.ucTaskSta = TASKREADY;
 239:../mindows/mds_task.c ****     }
 240:../mindows/mds_task.c ****     else /* 有任务参数则将参数复制到TCB中 */
 241:../mindows/mds_task.c ****     {
 242:../mindows/mds_task.c ****         pstrTcb->strTaskOpt.ucTaskSta = pstrTaskOpt->ucTaskSta;
 243:../mindows/mds_task.c ****         pstrTcb->strTaskOpt.uiDelayTick = pstrTaskOpt->uiDelayTick;
 245              		.loc 1 243 0
 246 014c 04309515 		ldrne	r3, [r5, #4]
 242:../mindows/mds_task.c ****         pstrTcb->strTaskOpt.ucTaskSta = pstrTaskOpt->ucTaskSta;
 247              		.loc 1 242 0
ARM GAS  C:\DOCUME~1\ADMINI~1\LOCALS~1\Temp\ccusa1c5.s 			page 10


 248 0150 0020D515 		ldrneb	r2, [r5, #0]	@ zero_extendqisi2
 238:../mindows/mds_task.c ****         pstrTcb->strTaskOpt.ucTaskSta = TASKREADY;
 249              		.loc 1 238 0
 250 0154 0230A003 		moveq	r3, #2
 251 0158 6C30C405 		streqb	r3, [r4, #108]
 252              		.loc 1 243 0
 253 015c 70308415 		strne	r3, [r4, #112]
 242:../mindows/mds_task.c ****         pstrTcb->strTaskOpt.ucTaskSta = pstrTaskOpt->ucTaskSta;
 254              		.loc 1 242 0
 255 0160 6C20C415 		strneb	r2, [r4, #108]
 244:../mindows/mds_task.c ****     }
 245:../mindows/mds_task.c **** 
 246:../mindows/mds_task.c ****     /* 锁中断, 防止其它任务影响 */
 247:../mindows/mds_task.c ****     (void)MDS_IntLock();
 256              		.loc 1 247 0
 257 0164 FEFFFFEB 		bl	MDS_IntLock
 248:../mindows/mds_task.c **** 
 249:../mindows/mds_task.c ****     /* 建立的任务包含ready态, 将任务加入ready表 */
 250:../mindows/mds_task.c ****     if(TASKREADY == (TASKREADY & pstrTcb->strTaskOpt.ucTaskSta))
 258              		.loc 1 250 0
 259 0168 6C30D4E5 		ldrb	r3, [r4, #108]	@ zero_extendqisi2
 260 016c 020013E3 		tst	r3, #2
 261 0170 1200001A 		bne	.L24
 262              	.L22:
 251:../mindows/mds_task.c ****     {
 252:../mindows/mds_task.c ****         pstrChain = &gstrReadyTab.astrChain[ucTaskPrio];
 253:../mindows/mds_task.c ****         pstrNode = &pstrTcb->strTcbQue.strQueHead;
 254:../mindows/mds_task.c ****         pstrPrioFlag = &gstrReadyTab.strFlag;
 255:../mindows/mds_task.c **** 
 256:../mindows/mds_task.c ****         /* 将该任务添加到ready表中 */
 257:../mindows/mds_task.c ****         MDS_TaskAddToSchedTab(pstrChain, pstrNode, pstrPrioFlag, ucTaskPrio);
 258:../mindows/mds_task.c ****     }
 259:../mindows/mds_task.c **** 
 260:../mindows/mds_task.c ****     /* 建立的任务包含delay态, 将任务加入delay表 */
 261:../mindows/mds_task.c ****     if(TASKDELAY == (TASKDELAY & pstrTcb->strTaskOpt.ucTaskSta))
 263              		.loc 1 261 0
 264 0174 040013E3 		tst	r3, #4
 265 0178 0B00000A 		beq	.L23
 262:../mindows/mds_task.c ****     {
 263:../mindows/mds_task.c ****         /* 非永久等待任务才挂入delay表 */
 264:../mindows/mds_task.c ****         if(DELAYWAITFEV != pstrTaskOpt->uiDelayTick)
 266              		.loc 1 264 0
 267 017c 043095E5 		ldr	r3, [r5, #4]
 268 0180 010073E3 		cmn	r3, #1
 269 0184 0800000A 		beq	.L23
 265:../mindows/mds_task.c ****         {
 266:../mindows/mds_task.c ****             /* 更新新建任务的延迟时间 */
 267:../mindows/mds_task.c ****             pstrTcb->uiStillTick = guiTick + pstrTaskOpt->uiDelayTick;
 270              		.loc 1 267 0
 271 0188 50C09FE5 		ldr	ip, .L25
 272 018c 00209CE5 		ldr	r2, [ip, #0]
 273 0190 03E082E0 		add	lr, r2, r3
 268:../mindows/mds_task.c **** 
 269:../mindows/mds_task.c ****             /* 从任务参数里获取delay表节点并加入到delay表 */
 270:../mindows/mds_task.c ****             pstrNode = &pstrTcb->strDelayQue.strQueHead;
 271:../mindows/mds_task.c ****             MDS_TaskAddToDelayTab(pstrNode);
 274              		.loc 1 271 0
ARM GAS  C:\DOCUME~1\ADMINI~1\LOCALS~1\Temp\ccusa1c5.s 			page 11


 275 0194 500084E2 		add	r0, r4, #80
 267:../mindows/mds_task.c ****             pstrTcb->uiStillTick = guiTick + pstrTaskOpt->uiDelayTick;
 276              		.loc 1 267 0
 277 0198 74E084E5 		str	lr, [r4, #116]
 278              	.LVL14:
 279              		.loc 1 271 0
 280 019c FEFFFFEB 		bl	MDS_TaskAddToDelayTab
 281              	.LVL15:
 272:../mindows/mds_task.c **** 
 273:../mindows/mds_task.c ****             /* 置任务在delay表标志 */
 274:../mindows/mds_task.c ****             pstrTcb->uiTaskFlag |= DELAYQUEFLAG;
 282              		.loc 1 274 0
 283 01a0 641094E5 		ldr	r1, [r4, #100]
 284 01a4 010081E3 		orr	r0, r1, #1
 285 01a8 640084E5 		str	r0, [r4, #100]
 286              	.L23:
 275:../mindows/mds_task.c ****         }
 276:../mindows/mds_task.c ****     }
 277:../mindows/mds_task.c **** 
 278:../mindows/mds_task.c ****     /* 挂入链表后解锁中断, 允许任务调度 */
 279:../mindows/mds_task.c ****     (void)MDS_IntUnlock();
 287              		.loc 1 279 0
 288 01ac FEFFFFEB 		bl	MDS_IntUnlock
 280:../mindows/mds_task.c **** 
 281:../mindows/mds_task.c ****     return pstrTcb;
 282:../mindows/mds_task.c **** }
 289              		.loc 1 282 0
 290 01b0 0400A0E1 		mov	r0, r4
 291 01b4 1CD04BE2 		sub	sp, fp, #28
 292 01b8 F0689DE8 		ldmfd	sp, {r4, r5, r6, r7, fp, sp, lr}
 293 01bc 1EFF2FE1 		bx	lr
 294              	.L24:
 295              	.LVL16:
 252:../mindows/mds_task.c ****         pstrChain = &gstrReadyTab.astrChain[ucTaskPrio];
 296              		.loc 1 252 0
 297 01c0 1CC09FE5 		ldr	ip, .L25+4
 257:../mindows/mds_task.c ****         MDS_TaskAddToSchedTab(pstrChain, pstrNode, pstrPrioFlag, ucTaskPrio);
 298              		.loc 1 257 0
 299 01c4 0630A0E1 		mov	r3, r6
 300 01c8 441084E2 		add	r1, r4, #68
 301 01cc 86018CE0 		add	r0, ip, r6, asl #3
 302 01d0 40208CE2 		add	r2, ip, #64
 303 01d4 FEFFFFEB 		bl	MDS_TaskAddToSchedTab
 304 01d8 6C30D4E5 		ldrb	r3, [r4, #108]	@ zero_extendqisi2
 305 01dc E4FFFFEA 		b	.L22
 306              	.L26:
 307              		.align	2
 308              	.L25:
 309 01e0 00000000 		.word	guiTick
 310 01e4 00000000 		.word	gstrReadyTab
 311              		.cfi_endproc
 312              	.LFE3:
 313              		.fnend
 314              		.size	MDS_TaskTcbInit, .-MDS_TaskTcbInit
 315              		.align	2
 316              		.global	MDS_TaskCreate
 317              		.type	MDS_TaskCreate, %function
ARM GAS  C:\DOCUME~1\ADMINI~1\LOCALS~1\Temp\ccusa1c5.s 			page 12


 318              	MDS_TaskCreate:
 319              		.fnstart
 320              	.LFB0:
  25:../mindows/mds_task.c **** {
 321              		.loc 1 25 0
 322              		.cfi_startproc
 323              		@ Function supports interworking.
 324              		@ args = 8, pretend = 0, frame = 0
 325              		@ frame_needed = 1, uses_anonymous_args = 0
 326              	.LVL17:
 327              		.movsp ip
 328 01e8 0DC0A0E1 		mov	ip, sp
 329              	.LCFI4:
 330              		.cfi_def_cfa_register 12
 331 01ec F0D82DE9 		stmfd	sp!, {r4, r5, r6, r7, fp, ip, lr, pc}
 332              		.pad #4
 333              		.save {r4, r5, r6, r7, fp, ip, lr}
 334              		.setfp fp, ip, #-4
 335 01f0 04B04CE2 		sub	fp, ip, #4
 336              		.cfi_offset 14, -8
 337              		.cfi_offset 13, -12
 338              		.cfi_offset 11, -16
 339              		.cfi_offset 7, -20
 340              		.cfi_offset 6, -24
 341              		.cfi_offset 5, -28
 342              		.cfi_offset 4, -32
 343              	.LCFI5:
 344              		.cfi_def_cfa 11, 4
 345              		.pad #8
 346 01f4 08D04DE2 		sub	sp, sp, #8
  31:../mindows/mds_task.c ****     if(NULL == vfFuncPointer)
 347              		.loc 1 31 0
 348 01f8 004051E2 		subs	r4, r1, #0
  25:../mindows/mds_task.c **** {
 349              		.loc 1 25 0
 350 01fc 08709BE5 		ldr	r7, [fp, #8]
 351 0200 04C0DBE5 		ldrb	ip, [fp, #4]	@ zero_extendqisi2
  34:../mindows/mds_task.c ****         return (M_TCB*)NULL;
 352              		.loc 1 34 0
 353 0204 0470A001 		moveq	r7, r4
  31:../mindows/mds_task.c ****     if(NULL == vfFuncPointer)
 354              		.loc 1 31 0
 355 0208 0300001A 		bne	.L40
 356              	.LVL18:
 357              	.L28:
 107:../mindows/mds_task.c **** }
 358              		.loc 1 107 0
 359 020c 0700A0E1 		mov	r0, r7
 360 0210 1CD04BE2 		sub	sp, fp, #28
 361 0214 F0689DE8 		ldmfd	sp, {r4, r5, r6, r7, fp, sp, lr}
 362 0218 1EFF2FE1 		bx	lr
 363              	.LVL19:
 364              	.L40:
  38:../mindows/mds_task.c ****     if((NULL == pucTaskStack) || (0 == uiStackSize))
 365              		.loc 1 38 0
 366 021c 000052E3 		cmp	r2, #0
 367 0220 00005313 		cmpne	r3, #0
ARM GAS  C:\DOCUME~1\ADMINI~1\LOCALS~1\Temp\ccusa1c5.s 			page 13


 368 0224 0010A013 		movne	r1, #0
 369 0228 0110A003 		moveq	r1, #1
 370 022c 0B00000A 		beq	.L39
  45:../mindows/mds_task.c ****     if(NULL != pstrTaskOpt)
 371              		.loc 1 45 0
 372 0230 000057E3 		cmp	r7, #0
 373 0234 0B00001A 		bne	.L41
 374              	.L29:
  56:../mindows/mds_task.c ****     if((MDS_RootTask != vfFuncPointer) && (MDS_IdleTask != vfFuncPointer))
 375              		.loc 1 56 0
 376 0238 B0509FE5 		ldr	r5, .L43
 377 023c 050054E1 		cmp	r4, r5
 378 0240 0E00000A 		beq	.L30
  56:../mindows/mds_task.c ****     if((MDS_RootTask != vfFuncPointer) && (MDS_IdleTask != vfFuncPointer))
 379              		.loc 1 56 0 is_stmt 0 discriminator 1
 380 0244 A8609FE5 		ldr	r6, .L43+4
 381 0248 060054E1 		cmp	r4, r6
 382 024c 2200001A 		bne	.L42
 383              	.L31:
  79:../mindows/mds_task.c ****         if(NULL != gpstrIdleTaskTcb)
 384              		.loc 1 79 0 is_stmt 1
 385 0250 A0109FE5 		ldr	r1, .L43+8
 386 0254 001091E5 		ldr	r1, [r1, #0]
 387 0258 000051E3 		cmp	r1, #0
 388 025c 0E00000A 		beq	.L32
 389              	.L39:
  81:../mindows/mds_task.c ****             return (M_TCB*)NULL;
 390              		.loc 1 81 0
 391 0260 0070A0E3 		mov	r7, #0
 392 0264 E8FFFFEA 		b	.L28
 393              	.L41:
  48:../mindows/mds_task.c ****         if(!((TASKREADY == pstrTaskOpt->ucTaskSta)
 394              		.loc 1 48 0
 395 0268 0050D7E5 		ldrb	r5, [r7, #0]	@ zero_extendqisi2
 396 026c 040055E3 		cmp	r5, #4
 397 0270 02005513 		cmpne	r5, #2
  51:../mindows/mds_task.c ****             return (M_TCB*)NULL;
 398              		.loc 1 51 0
 399 0274 0170A011 		movne	r7, r1
  48:../mindows/mds_task.c ****         if(!((TASKREADY == pstrTaskOpt->ucTaskSta)
 400              		.loc 1 48 0
 401 0278 EEFFFF0A 		beq	.L29
 402 027c E2FFFFEA 		b	.L28
 403              	.L30:
  69:../mindows/mds_task.c ****         if(NULL != gpstrRootTaskTcb)
 404              		.loc 1 69 0
 405 0280 74109FE5 		ldr	r1, .L43+12
 406 0284 001091E5 		ldr	r1, [r1, #0]
 407 0288 000051E3 		cmp	r1, #0
 408 028c F3FFFF1A 		bne	.L39
  76:../mindows/mds_task.c ****     if(MDS_IdleTask == vfFuncPointer)
 409              		.loc 1 76 0
 410 0290 5C609FE5 		ldr	r6, .L43+4
 411 0294 060054E1 		cmp	r4, r6
 412 0298 ECFFFF0A 		beq	.L31
 413              	.L32:
  86:../mindows/mds_task.c ****     pstrTcb = MDS_TaskTcbInit(pucTaskName, vfFuncPointer, pucTaskStack, uiStackSize,
ARM GAS  C:\DOCUME~1\ADMINI~1\LOCALS~1\Temp\ccusa1c5.s 			page 14


 414              		.loc 1 86 0
 415 029c 0410A0E1 		mov	r1, r4
 416 02a0 04708DE5 		str	r7, [sp, #4]
 417 02a4 00C08DE5 		str	ip, [sp, #0]
 418 02a8 FEFFFFEB 		bl	MDS_TaskTcbInit
 419              	.LVL20:
  90:../mindows/mds_task.c ****     if((MDS_RootTask != vfFuncPointer) && (MDS_IdleTask != vfFuncPointer))
 420              		.loc 1 90 0
 421 02ac 050054E1 		cmp	r4, r5
  86:../mindows/mds_task.c ****     pstrTcb = MDS_TaskTcbInit(pucTaskName, vfFuncPointer, pucTaskStack, uiStackSize,
 422              		.loc 1 86 0
 423 02b0 0070A0E1 		mov	r7, r0
 424              	.LVL21:
  90:../mindows/mds_task.c ****     if((MDS_RootTask != vfFuncPointer) && (MDS_IdleTask != vfFuncPointer))
 425              		.loc 1 90 0
 426 02b4 D4FFFF0A 		beq	.L28
  90:../mindows/mds_task.c ****     if((MDS_RootTask != vfFuncPointer) && (MDS_IdleTask != vfFuncPointer))
 427              		.loc 1 90 0 is_stmt 0 discriminator 1
 428 02b8 060054E1 		cmp	r4, r6
 429 02bc D2FFFF0A 		beq	.L28
  95:../mindows/mds_task.c ****         if((VFHCRT)NULL != gvfTaskCreateHook)
 430              		.loc 1 95 0 is_stmt 1
 431 02c0 38309FE5 		ldr	r3, .L43+16
 432 02c4 003093E5 		ldr	r3, [r3, #0]
 433 02c8 000053E3 		cmp	r3, #0
  97:../mindows/mds_task.c ****             gvfTaskCreateHook(pstrTcb);
 434              		.loc 1 97 0
 435 02cc 0FE0A011 		movne	lr, pc
 436 02d0 13FF2F11 		bxne	r3
 437              	.LVL22:
 438              	.L33:
 103:../mindows/mds_task.c ****         MDS_TaskSwiSched();
 439              		.loc 1 103 0
 440 02d4 FEFFFFEB 		bl	MDS_TaskSwiSched
 441 02d8 CBFFFFEA 		b	.L28
 442              	.LVL23:
 443              	.L42:
  59:../mindows/mds_task.c ****         if((HIGHESTPRIO == ucTaskPrio) || (ucTaskPrio >= LOWESTPRIO))
 444              		.loc 1 59 0
 445 02dc 01104CE2 		sub	r1, ip, #1
 446 02e0 050051E3 		cmp	r1, #5
 447 02e4 ECFFFF9A 		bls	.L32
  81:../mindows/mds_task.c ****             return (M_TCB*)NULL;
 448              		.loc 1 81 0
 449 02e8 0070A0E3 		mov	r7, #0
 450 02ec C6FFFFEA 		b	.L28
 451              	.L44:
 452              		.align	2
 453              	.L43:
 454 02f0 00000000 		.word	MDS_RootTask
 455 02f4 00000000 		.word	MDS_IdleTask
 456 02f8 00000000 		.word	gpstrIdleTaskTcb
 457 02fc 00000000 		.word	gpstrRootTaskTcb
 458 0300 00000000 		.word	gvfTaskCreateHook
 459              		.cfi_endproc
 460              	.LFE0:
 461              		.fnend
ARM GAS  C:\DOCUME~1\ADMINI~1\LOCALS~1\Temp\ccusa1c5.s 			page 15


 462              		.size	MDS_TaskCreate, .-MDS_TaskCreate
 463              		.align	2
 464              		.global	MDS_TaskDelay
 465              		.type	MDS_TaskDelay, %function
 466              	MDS_TaskDelay:
 467              		.fnstart
 468              	.LFB4:
 283:../mindows/mds_task.c **** 
 284:../mindows/mds_task.c **** /***********************************************************************************
 285:../mindows/mds_task.c **** 函数功能: 任务进入delay态, 延迟指定的时间. 调用此函数后发生任务切换.
 286:../mindows/mds_task.c **** 入口参数: uiDelaytick: 任务需要延迟的时间, 单位: tick.
 287:../mindows/mds_task.c ****                        DELAYNOWAIT: 不等待, 仅发生任务切换.
 288:../mindows/mds_task.c ****                        DELAYWAITFEV: 任务一直等待.
 289:../mindows/mds_task.c ****                        其它: 任务需要延迟的tick数目.
 290:../mindows/mds_task.c **** 返 回 值: RTN_SUCD: 任务延迟成功.
 291:../mindows/mds_task.c ****           RTN_FAIL: 任务延迟失败.
 292:../mindows/mds_task.c ****           RTN_TKDLTO: 任务延迟时间耗尽, 超时返回.
 293:../mindows/mds_task.c ****           RTN_TKDLBK: 任务延迟状态被中断, 任务返回.
 294:../mindows/mds_task.c **** ***********************************************************************************/
 295:../mindows/mds_task.c **** U32 MDS_TaskDelay(U32 uiDelayTick)
 296:../mindows/mds_task.c **** {
 469              		.loc 1 296 0
 470              		.cfi_startproc
 471              		@ Function supports interworking.
 472              		@ args = 0, pretend = 0, frame = 0
 473              		@ frame_needed = 1, uses_anonymous_args = 0
 474              	.LVL24:
 475              		.movsp ip
 476 0304 0DC0A0E1 		mov	ip, sp
 477              	.LCFI6:
 478              		.cfi_def_cfa_register 12
 479 0308 78D82DE9 		stmfd	sp!, {r3, r4, r5, r6, fp, ip, lr, pc}
 480              		.pad #4
 481              		.save {r3, r4, r5, r6, fp, ip, lr}
 297:../mindows/mds_task.c ****     M_CHAIN* pstrChain;
 298:../mindows/mds_task.c ****     M_CHAIN* pstrNode;
 299:../mindows/mds_task.c ****     M_CHAIN* pstrDelayNode;
 300:../mindows/mds_task.c ****     M_TCBQUE* pstrTaskQue;
 301:../mindows/mds_task.c ****     M_PRIOFLAG* pstrPrioFlag;
 302:../mindows/mds_task.c ****     U8 ucTaskPrio;
 303:../mindows/mds_task.c **** 
 304:../mindows/mds_task.c ****     /* idle任务不能处于delay状态 */
 305:../mindows/mds_task.c ****     if(gpstrCurTcb == gpstrIdleTaskTcb)
 482              		.loc 1 305 0
 483 030c B8109FE5 		ldr	r1, .L52
 484 0310 B8409FE5 		ldr	r4, .L52+4
 485              		.cfi_offset 14, -8
 486              		.cfi_offset 13, -12
 487              		.cfi_offset 11, -16
 488              		.cfi_offset 6, -20
 489              		.cfi_offset 5, -24
 490              		.cfi_offset 4, -28
 491              		.cfi_offset 3, -32
 492 0314 002091E5 		ldr	r2, [r1, #0]
 493 0318 003094E5 		ldr	r3, [r4, #0]
 494 031c 020053E1 		cmp	r3, r2
 296:../mindows/mds_task.c **** {
ARM GAS  C:\DOCUME~1\ADMINI~1\LOCALS~1\Temp\ccusa1c5.s 			page 16


 495              		.loc 1 296 0
 496 0320 0050A0E1 		mov	r5, r0
 497              		.setfp fp, ip, #-4
 498 0324 04B04CE2 		sub	fp, ip, #4
 499              	.LCFI7:
 500              		.cfi_def_cfa 11, 4
 306:../mindows/mds_task.c ****     {
 307:../mindows/mds_task.c ****         return RTN_FAIL;
 501              		.loc 1 307 0
 502 0328 0100A003 		moveq	r0, #1
 503              	.LVL25:
 305:../mindows/mds_task.c ****     if(gpstrCurTcb == gpstrIdleTaskTcb)
 504              		.loc 1 305 0
 505 032c 0500000A 		beq	.L46
 308:../mindows/mds_task.c ****     }
 309:../mindows/mds_task.c **** 
 310:../mindows/mds_task.c ****     /* 延迟时间不为0 tick则调度任务, 否则不延迟直接切换任务 */
 311:../mindows/mds_task.c ****     if(DELAYNOWAIT != uiDelayTick)
 506              		.loc 1 311 0
 507 0330 000050E3 		cmp	r0, #0
 312:../mindows/mds_task.c ****     {
 313:../mindows/mds_task.c ****         /* 获取当前任务的相关调度参数 */
 314:../mindows/mds_task.c ****         ucTaskPrio = gpstrCurTcb->ucTaskPrio;
 315:../mindows/mds_task.c ****         pstrChain = &gstrReadyTab.astrChain[ucTaskPrio];
 316:../mindows/mds_task.c ****         pstrPrioFlag = &gstrReadyTab.strFlag;
 317:../mindows/mds_task.c **** 
 318:../mindows/mds_task.c ****         (void)MDS_IntLock();
 319:../mindows/mds_task.c **** 
 320:../mindows/mds_task.c ****         /* 将当前任务从ready表拆除 */
 321:../mindows/mds_task.c ****         pstrNode = MDS_TaskDelFromSchedTab(pstrChain, pstrPrioFlag, ucTaskPrio);
 322:../mindows/mds_task.c **** 
 323:../mindows/mds_task.c ****         /* 清除任务的ready状态 */
 324:../mindows/mds_task.c ****         gpstrCurTcb->strTaskOpt.ucTaskSta &= ~((U8)TASKREADY);
 325:../mindows/mds_task.c **** 
 326:../mindows/mds_task.c ****         /* 更新当前任务的延迟时间 */
 327:../mindows/mds_task.c ****         gpstrCurTcb->strTaskOpt.uiDelayTick = uiDelayTick;
 328:../mindows/mds_task.c **** 
 329:../mindows/mds_task.c ****         /* 非永久等待任务才挂入delay表 */
 330:../mindows/mds_task.c ****         if(DELAYWAITFEV != uiDelayTick)
 331:../mindows/mds_task.c ****         {
 332:../mindows/mds_task.c ****             gpstrCurTcb->uiStillTick = guiTick + uiDelayTick;
 333:../mindows/mds_task.c **** 
 334:../mindows/mds_task.c ****             /* 获取当前任务delay表的任务节点 */
 335:../mindows/mds_task.c ****             pstrTaskQue = (M_TCBQUE*)pstrNode;
 336:../mindows/mds_task.c ****             pstrDelayNode = &pstrTaskQue->pstrTcb->strDelayQue.strQueHead;
 337:../mindows/mds_task.c **** 
 338:../mindows/mds_task.c ****             /* 将当前任务加入到delay表 */
 339:../mindows/mds_task.c ****             MDS_TaskAddToDelayTab(pstrDelayNode);
 340:../mindows/mds_task.c **** 
 341:../mindows/mds_task.c ****             /* 置任务在delay表标志 */
 342:../mindows/mds_task.c ****             gpstrCurTcb->uiTaskFlag |= DELAYQUEFLAG;
 343:../mindows/mds_task.c ****         }
 344:../mindows/mds_task.c **** 
 345:../mindows/mds_task.c ****         /* 增加任务的delay状态 */
 346:../mindows/mds_task.c ****         gpstrCurTcb->strTaskOpt.ucTaskSta |= TASKDELAY;
 347:../mindows/mds_task.c **** 
 348:../mindows/mds_task.c ****         (void)MDS_IntUnlock();
ARM GAS  C:\DOCUME~1\ADMINI~1\LOCALS~1\Temp\ccusa1c5.s 			page 17


 349:../mindows/mds_task.c ****     }
 350:../mindows/mds_task.c ****     else /* 任务不延迟, 仅发生任务切换 */
 351:../mindows/mds_task.c ****     {
 352:../mindows/mds_task.c ****         /* 借用uiDelayTick变量保存延迟任务的返回值 */
 353:../mindows/mds_task.c ****         gpstrCurTcb->strTaskOpt.uiDelayTick = RTN_SUCD;
 508              		.loc 1 353 0
 509 0334 70008305 		streq	r0, [r3, #112]
 311:../mindows/mds_task.c ****     if(DELAYNOWAIT != uiDelayTick)
 510              		.loc 1 311 0
 511 0338 0500001A 		bne	.L51
 512              	.LVL26:
 513              	.L49:
 354:../mindows/mds_task.c ****     }
 355:../mindows/mds_task.c **** 
 356:../mindows/mds_task.c ****     /* 使用软中断调度任务 */
 357:../mindows/mds_task.c ****     MDS_TaskSwiSched();
 514              		.loc 1 357 0
 515 033c FEFFFFEB 		bl	MDS_TaskSwiSched
 358:../mindows/mds_task.c **** 
 359:../mindows/mds_task.c ****     /* 返回延迟任务的返回值, 任务从delay状态返回时返回值被保存在uiDelayTick中 */
 360:../mindows/mds_task.c ****     return gpstrCurTcb->strTaskOpt.uiDelayTick;
 516              		.loc 1 360 0
 517 0340 003094E5 		ldr	r3, [r4, #0]
 518 0344 700093E5 		ldr	r0, [r3, #112]
 519              	.L46:
 361:../mindows/mds_task.c **** }
 520              		.loc 1 361 0
 521 0348 1CD04BE2 		sub	sp, fp, #28
 522 034c 78689DE8 		ldmfd	sp, {r3, r4, r5, r6, fp, sp, lr}
 523 0350 1EFF2FE1 		bx	lr
 524              	.LVL27:
 525              	.L51:
 314:../mindows/mds_task.c ****         ucTaskPrio = gpstrCurTcb->ucTaskPrio;
 526              		.loc 1 314 0
 527 0354 6860D3E5 		ldrb	r6, [r3, #104]	@ zero_extendqisi2
 528              	.LVL28:
 318:../mindows/mds_task.c ****         (void)MDS_IntLock();
 529              		.loc 1 318 0
 530 0358 FEFFFFEB 		bl	MDS_IntLock
 315:../mindows/mds_task.c ****         pstrChain = &gstrReadyTab.astrChain[ucTaskPrio];
 531              		.loc 1 315 0
 532 035c 70309FE5 		ldr	r3, .L52+8
 321:../mindows/mds_task.c ****         pstrNode = MDS_TaskDelFromSchedTab(pstrChain, pstrPrioFlag, ucTaskPrio);
 533              		.loc 1 321 0
 534 0360 0620A0E1 		mov	r2, r6
 535 0364 860183E0 		add	r0, r3, r6, asl #3
 536 0368 401083E2 		add	r1, r3, #64
 537 036c FEFFFFEB 		bl	MDS_TaskDelFromSchedTab
 538              	.LVL29:
 324:../mindows/mds_task.c ****         gpstrCurTcb->strTaskOpt.ucTaskSta &= ~((U8)TASKREADY);
 539              		.loc 1 324 0
 540 0370 003094E5 		ldr	r3, [r4, #0]
 541 0374 6CC0D3E5 		ldrb	ip, [r3, #108]	@ zero_extendqisi2
 330:../mindows/mds_task.c ****         if(DELAYWAITFEV != uiDelayTick)
 542              		.loc 1 330 0
 543 0378 010075E3 		cmn	r5, #1
 324:../mindows/mds_task.c ****         gpstrCurTcb->strTaskOpt.ucTaskSta &= ~((U8)TASKREADY);
ARM GAS  C:\DOCUME~1\ADMINI~1\LOCALS~1\Temp\ccusa1c5.s 			page 18


 544              		.loc 1 324 0
 545 037c FD200CE2 		and	r2, ip, #253
 546 0380 6C20C3E5 		strb	r2, [r3, #108]
 327:../mindows/mds_task.c ****         gpstrCurTcb->strTaskOpt.uiDelayTick = uiDelayTick;
 547              		.loc 1 327 0
 548 0384 705083E5 		str	r5, [r3, #112]
 330:../mindows/mds_task.c ****         if(DELAYWAITFEV != uiDelayTick)
 549              		.loc 1 330 0
 550 0388 0B00000A 		beq	.L48
 332:../mindows/mds_task.c ****             gpstrCurTcb->uiStillTick = guiTick + uiDelayTick;
 551              		.loc 1 332 0
 552 038c 44C09FE5 		ldr	ip, .L52+12
 553 0390 00109CE5 		ldr	r1, [ip, #0]
 336:../mindows/mds_task.c ****             pstrDelayNode = &pstrTaskQue->pstrTcb->strDelayQue.strQueHead;
 554              		.loc 1 336 0
 555 0394 08E090E5 		ldr	lr, [r0, #8]
 332:../mindows/mds_task.c ****             gpstrCurTcb->uiStillTick = guiTick + uiDelayTick;
 556              		.loc 1 332 0
 557 0398 015085E0 		add	r5, r5, r1
 558              	.LVL30:
 559 039c 745083E5 		str	r5, [r3, #116]
 339:../mindows/mds_task.c ****             MDS_TaskAddToDelayTab(pstrDelayNode);
 560              		.loc 1 339 0
 561 03a0 50008EE2 		add	r0, lr, #80
 562              	.LVL31:
 563 03a4 FEFFFFEB 		bl	MDS_TaskAddToDelayTab
 564              	.LVL32:
 342:../mindows/mds_task.c ****             gpstrCurTcb->uiTaskFlag |= DELAYQUEFLAG;
 565              		.loc 1 342 0
 566 03a8 003094E5 		ldr	r3, [r4, #0]
 567 03ac 642093E5 		ldr	r2, [r3, #100]
 568 03b0 010082E3 		orr	r0, r2, #1
 569 03b4 640083E5 		str	r0, [r3, #100]
 570 03b8 6C20D3E5 		ldrb	r2, [r3, #108]	@ zero_extendqisi2
 571              	.L48:
 346:../mindows/mds_task.c ****         gpstrCurTcb->strTaskOpt.ucTaskSta |= TASKDELAY;
 572              		.loc 1 346 0
 573 03bc 040082E3 		orr	r0, r2, #4
 574 03c0 6C00C3E5 		strb	r0, [r3, #108]
 348:../mindows/mds_task.c ****         (void)MDS_IntUnlock();
 575              		.loc 1 348 0
 576 03c4 FEFFFFEB 		bl	MDS_IntUnlock
 577 03c8 DBFFFFEA 		b	.L49
 578              	.L53:
 579              		.align	2
 580              	.L52:
 581 03cc 00000000 		.word	gpstrIdleTaskTcb
 582 03d0 00000000 		.word	gpstrCurTcb
 583 03d4 00000000 		.word	gstrReadyTab
 584 03d8 00000000 		.word	guiTick
 585              		.cfi_endproc
 586              	.LFE4:
 587              		.fnend
 588              		.size	MDS_TaskDelay, .-MDS_TaskDelay
 589              		.align	2
 590              		.global	MDS_TaskWake
 591              		.type	MDS_TaskWake, %function
ARM GAS  C:\DOCUME~1\ADMINI~1\LOCALS~1\Temp\ccusa1c5.s 			page 19


 592              	MDS_TaskWake:
 593              		.fnstart
 594              	.LFB5:
 362:../mindows/mds_task.c **** 
 363:../mindows/mds_task.c **** /***********************************************************************************
 364:../mindows/mds_task.c **** 函数功能: 唤醒且只能唤醒任务的delay状态.
 365:../mindows/mds_task.c **** 入口参数: pstrTcb: 被唤醒任务的TCB指针.
 366:../mindows/mds_task.c **** 返 回 值: RTN_SUCD: 任务唤醒操作成功.
 367:../mindows/mds_task.c ****           RTN_FAIL: 任务唤醒操作失败.
 368:../mindows/mds_task.c **** ***********************************************************************************/
 369:../mindows/mds_task.c **** U32 MDS_TaskWake(M_TCB* pstrTcb)
 370:../mindows/mds_task.c **** {
 595              		.loc 1 370 0
 596              		.cfi_startproc
 597              		@ Function supports interworking.
 598              		@ args = 0, pretend = 0, frame = 0
 599              		@ frame_needed = 1, uses_anonymous_args = 0
 600              	.LVL33:
 601              		.movsp ip
 602 03dc 0DC0A0E1 		mov	ip, sp
 603              	.LCFI8:
 604              		.cfi_def_cfa_register 12
 605 03e0 30D82DE9 		stmfd	sp!, {r4, r5, fp, ip, lr, pc}
 606              		.pad #4
 607              		.save {r4, r5, fp, ip, lr}
 371:../mindows/mds_task.c ****     M_CHAIN* pstrChain;
 372:../mindows/mds_task.c ****     M_CHAIN* pstrNode;
 373:../mindows/mds_task.c ****     M_PRIOFLAG* pstrPrioFlag;
 374:../mindows/mds_task.c ****     U8 ucTaskPrio;
 375:../mindows/mds_task.c **** 
 376:../mindows/mds_task.c ****     /* 入口参数检查 */
 377:../mindows/mds_task.c ****     if(NULL == pstrTcb)
 608              		.loc 1 377 0
 609 03e4 004050E2 		subs	r4, r0, #0
 610              		.cfi_offset 14, -8
 611              		.cfi_offset 13, -12
 612              		.cfi_offset 11, -16
 613              		.cfi_offset 5, -20
 614              		.cfi_offset 4, -24
 370:../mindows/mds_task.c **** {
 615              		.loc 1 370 0
 616              		.setfp fp, ip, #-4
 617 03e8 04B04CE2 		sub	fp, ip, #4
 618              	.LCFI9:
 619              		.cfi_def_cfa 11, 4
 378:../mindows/mds_task.c ****     {
 379:../mindows/mds_task.c ****         return RTN_FAIL;
 620              		.loc 1 379 0
 621 03ec 0100A003 		moveq	r0, #1
 622              	.LVL34:
 377:../mindows/mds_task.c ****     if(NULL == pstrTcb)
 623              		.loc 1 377 0
 624 03f0 1F00000A 		beq	.L55
 380:../mindows/mds_task.c ****     }
 381:../mindows/mds_task.c **** 
 382:../mindows/mds_task.c ****     (void)MDS_IntLock();
 625              		.loc 1 382 0
ARM GAS  C:\DOCUME~1\ADMINI~1\LOCALS~1\Temp\ccusa1c5.s 			page 20


 626 03f4 FEFFFFEB 		bl	MDS_IntLock
 383:../mindows/mds_task.c **** 
 384:../mindows/mds_task.c ****     /* 仅可以唤醒任务的delay状态 */
 385:../mindows/mds_task.c ****     if(TASKDELAY != (TASKDELAY & pstrTcb->strTaskOpt.ucTaskSta))
 627              		.loc 1 385 0
 628 03f8 6CC0D4E5 		ldrb	ip, [r4, #108]	@ zero_extendqisi2
 629 03fc 04001CE3 		tst	ip, #4
 630 0400 1E00000A 		beq	.L59
 386:../mindows/mds_task.c ****     {
 387:../mindows/mds_task.c ****         (void)MDS_IntUnlock();
 388:../mindows/mds_task.c **** 
 389:../mindows/mds_task.c ****         return RTN_FAIL;
 390:../mindows/mds_task.c ****     }
 391:../mindows/mds_task.c **** 
 392:../mindows/mds_task.c ****     pstrNode = &pstrTcb->strDelayQue.strQueHead;
 393:../mindows/mds_task.c **** 
 394:../mindows/mds_task.c ****     /* 非永久等待任务才从delay表拆除 */
 395:../mindows/mds_task.c ****     if(DELAYWAITFEV != pstrTcb->strTaskOpt.uiDelayTick)
 631              		.loc 1 395 0
 632 0404 703094E5 		ldr	r3, [r4, #112]
 633 0408 010073E3 		cmn	r3, #1
 392:../mindows/mds_task.c ****     pstrNode = &pstrTcb->strDelayQue.strQueHead;
 634              		.loc 1 392 0
 635 040c 505084E2 		add	r5, r4, #80
 636              	.LVL35:
 637              		.loc 1 395 0
 638 0410 0600000A 		beq	.L57
 396:../mindows/mds_task.c ****     {
 397:../mindows/mds_task.c ****         /* 从delay表拆除该任务 */
 398:../mindows/mds_task.c ****         (void)MDS_ChainCurNodeDelete(&gstrDelayTab, pstrNode);
 639              		.loc 1 398 0
 640 0414 0510A0E1 		mov	r1, r5
 641 0418 6C009FE5 		ldr	r0, .L60
 642 041c FEFFFFEB 		bl	MDS_ChainCurNodeDelete
 399:../mindows/mds_task.c **** 
 400:../mindows/mds_task.c ****         /* 置任务不在delay表标志 */
 401:../mindows/mds_task.c ****         pstrTcb->uiTaskFlag &= (~((U32)DELAYQUEFLAG));
 643              		.loc 1 401 0
 644 0420 641094E5 		ldr	r1, [r4, #100]
 645 0424 0100C1E3 		bic	r0, r1, #1
 646 0428 640084E5 		str	r0, [r4, #100]
 647 042c 6CC0D4E5 		ldrb	ip, [r4, #108]	@ zero_extendqisi2
 648              	.L57:
 402:../mindows/mds_task.c ****     }
 403:../mindows/mds_task.c **** 
 404:../mindows/mds_task.c ****     /* 清除任务的delay状态 */
 405:../mindows/mds_task.c ****     pstrTcb->strTaskOpt.ucTaskSta &= ~((U8)TASKDELAY);
 406:../mindows/mds_task.c **** 
 407:../mindows/mds_task.c ****     /* 借用uiDelayTick变量保存延迟任务的返回值 */
 408:../mindows/mds_task.c ****     pstrTcb->strTaskOpt.uiDelayTick = RTN_TKDLBK;
 409:../mindows/mds_task.c **** 
 410:../mindows/mds_task.c ****     /* 获取该任务的相关参数 */
 411:../mindows/mds_task.c ****     ucTaskPrio = pstrTcb->ucTaskPrio;
 649              		.loc 1 411 0
 650 0430 68E0D4E5 		ldrb	lr, [r4, #104]	@ zero_extendqisi2
 651              	.LVL36:
 412:../mindows/mds_task.c ****     pstrChain = &gstrReadyTab.astrChain[ucTaskPrio];
ARM GAS  C:\DOCUME~1\ADMINI~1\LOCALS~1\Temp\ccusa1c5.s 			page 21


 652              		.loc 1 412 0
 653 0434 54009FE5 		ldr	r0, .L60+4
 413:../mindows/mds_task.c ****     pstrPrioFlag = &gstrReadyTab.strFlag;
 414:../mindows/mds_task.c **** 
 415:../mindows/mds_task.c ****     /* 将该任务添加到ready表中 */
 416:../mindows/mds_task.c ****     MDS_TaskAddToSchedTab(pstrChain, pstrNode, pstrPrioFlag, ucTaskPrio);
 654              		.loc 1 416 0
 655 0438 0E30A0E1 		mov	r3, lr
 405:../mindows/mds_task.c ****     pstrTcb->strTaskOpt.ucTaskSta &= ~((U8)TASKDELAY);
 656              		.loc 1 405 0
 657 043c 04C0CCE3 		bic	ip, ip, #4
 658              		.loc 1 416 0
 659 0440 402080E2 		add	r2, r0, #64
 660 0444 8E0180E0 		add	r0, r0, lr, asl #3
 408:../mindows/mds_task.c ****     pstrTcb->strTaskOpt.uiDelayTick = RTN_TKDLBK;
 661              		.loc 1 408 0
 662 0448 03E0A0E3 		mov	lr, #3
 663              	.LVL37:
 664              		.loc 1 416 0
 665 044c 0510A0E1 		mov	r1, r5
 408:../mindows/mds_task.c ****     pstrTcb->strTaskOpt.uiDelayTick = RTN_TKDLBK;
 666              		.loc 1 408 0
 667 0450 70E084E5 		str	lr, [r4, #112]
 405:../mindows/mds_task.c ****     pstrTcb->strTaskOpt.ucTaskSta &= ~((U8)TASKDELAY);
 668              		.loc 1 405 0
 669 0454 6CC0C4E5 		strb	ip, [r4, #108]
 670              		.loc 1 416 0
 671 0458 FEFFFFEB 		bl	MDS_TaskAddToSchedTab
 672              	.LVL38:
 417:../mindows/mds_task.c **** 
 418:../mindows/mds_task.c ****     /* 增加任务的ready状态 */
 419:../mindows/mds_task.c ****     pstrTcb->strTaskOpt.ucTaskSta |= TASKREADY;
 673              		.loc 1 419 0
 674 045c 6CC0D4E5 		ldrb	ip, [r4, #108]	@ zero_extendqisi2
 675 0460 02208CE3 		orr	r2, ip, #2
 676 0464 6C20C4E5 		strb	r2, [r4, #108]
 420:../mindows/mds_task.c **** 
 421:../mindows/mds_task.c ****     (void)MDS_IntUnlock();
 677              		.loc 1 421 0
 678 0468 FEFFFFEB 		bl	MDS_IntUnlock
 422:../mindows/mds_task.c **** 
 423:../mindows/mds_task.c ****     /* 使用软中断调度任务 */
 424:../mindows/mds_task.c ****     MDS_TaskSwiSched();
 679              		.loc 1 424 0
 680 046c FEFFFFEB 		bl	MDS_TaskSwiSched
 425:../mindows/mds_task.c **** 
 426:../mindows/mds_task.c ****     return RTN_SUCD;
 681              		.loc 1 426 0
 682 0470 0000A0E3 		mov	r0, #0
 683              	.LVL39:
 684              	.L55:
 427:../mindows/mds_task.c **** }
 685              		.loc 1 427 0
 686 0474 14D04BE2 		sub	sp, fp, #20
 687 0478 30689DE8 		ldmfd	sp, {r4, r5, fp, sp, lr}
 688 047c 1EFF2FE1 		bx	lr
 689              	.L59:
ARM GAS  C:\DOCUME~1\ADMINI~1\LOCALS~1\Temp\ccusa1c5.s 			page 22


 387:../mindows/mds_task.c ****         (void)MDS_IntUnlock();
 690              		.loc 1 387 0
 691 0480 FEFFFFEB 		bl	MDS_IntUnlock
 389:../mindows/mds_task.c ****         return RTN_FAIL;
 692              		.loc 1 389 0
 693 0484 0100A0E3 		mov	r0, #1
 694 0488 F9FFFFEA 		b	.L55
 695              	.L61:
 696              		.align	2
 697              	.L60:
 698 048c 00000000 		.word	gstrDelayTab
 699 0490 00000000 		.word	gstrReadyTab
 700              		.cfi_endproc
 701              	.LFE5:
 702              		.fnend
 703              		.size	MDS_TaskWake, .-MDS_TaskWake
 704              		.align	2
 705              		.global	MDS_TaskPend
 706              		.type	MDS_TaskPend, %function
 707              	MDS_TaskPend:
 708              		.fnstart
 709              	.LFB6:
 428:../mindows/mds_task.c **** 
 429:../mindows/mds_task.c **** /***********************************************************************************
 430:../mindows/mds_task.c **** 函数功能: 任务进入pend态, 延迟指定的时间. 调用此函数后发生任务切换.
 431:../mindows/mds_task.c **** 入口参数: pstrSem: 阻塞任务的信号量指针.
 432:../mindows/mds_task.c ****           uiDelaytick: 任务需要延迟的时间, 单位: tick.
 433:../mindows/mds_task.c ****                        DELAYNOWAIT: 不等待, 仅发生任务切换.
 434:../mindows/mds_task.c ****                        DELAYWAITFEV: 任务一直等待.
 435:../mindows/mds_task.c ****                        其它: 任务需要延迟的tick数目.
 436:../mindows/mds_task.c **** 返 回 值: RTN_SUCD: 任务阻塞成功.
 437:../mindows/mds_task.c ****           RTN_FAIL: 任务阻塞失败..
 438:../mindows/mds_task.c **** ***********************************************************************************/
 439:../mindows/mds_task.c **** U32 MDS_TaskPend(M_SEM* pstrSem, U32 uiDelayTick)
 440:../mindows/mds_task.c **** {
 710              		.loc 1 440 0
 711              		.cfi_startproc
 712              		@ Function supports interworking.
 713              		@ args = 0, pretend = 0, frame = 0
 714              		@ frame_needed = 1, uses_anonymous_args = 0
 715              	.LVL40:
 716              		.movsp ip
 717 0494 0DC0A0E1 		mov	ip, sp
 718              	.LCFI10:
 719              		.cfi_def_cfa_register 12
 720 0498 78D82DE9 		stmfd	sp!, {r3, r4, r5, r6, fp, ip, lr, pc}
 721              		.pad #4
 722              		.save {r3, r4, r5, r6, fp, ip, lr}
 441:../mindows/mds_task.c ****     M_CHAIN* pstrChain;
 442:../mindows/mds_task.c ****     M_CHAIN* pstrNode;
 443:../mindows/mds_task.c ****     M_CHAIN* pstrDelayNode;
 444:../mindows/mds_task.c ****     M_TCBQUE* pstrTaskQue;
 445:../mindows/mds_task.c ****     M_PRIOFLAG* pstrPrioFlag;
 446:../mindows/mds_task.c ****     U8 ucTaskPrio;
 447:../mindows/mds_task.c **** 
 448:../mindows/mds_task.c ****     /* idle任务不能处于delay状态 */
 449:../mindows/mds_task.c ****     if(gpstrCurTcb == gpstrIdleTaskTcb)
ARM GAS  C:\DOCUME~1\ADMINI~1\LOCALS~1\Temp\ccusa1c5.s 			page 23


 723              		.loc 1 449 0
 724 049c AC509FE5 		ldr	r5, .L66
 725              		.cfi_offset 14, -8
 726              		.cfi_offset 13, -12
 727              		.cfi_offset 11, -16
 728              		.cfi_offset 6, -20
 729              		.cfi_offset 5, -24
 730              		.cfi_offset 4, -28
 731              		.cfi_offset 3, -32
 732 04a0 AC409FE5 		ldr	r4, .L66+4
 733 04a4 002095E5 		ldr	r2, [r5, #0]
 734 04a8 003094E5 		ldr	r3, [r4, #0]
 735 04ac 020053E1 		cmp	r3, r2
 440:../mindows/mds_task.c **** {
 736              		.loc 1 440 0
 737 04b0 0060A0E1 		mov	r6, r0
 738              		.setfp fp, ip, #-4
 739 04b4 04B04CE2 		sub	fp, ip, #4
 740              	.LCFI11:
 741              		.cfi_def_cfa 11, 4
 440:../mindows/mds_task.c **** {
 742              		.loc 1 440 0
 743 04b8 0150A0E1 		mov	r5, r1
 450:../mindows/mds_task.c ****     {
 451:../mindows/mds_task.c ****         return RTN_FAIL;
 744              		.loc 1 451 0
 745 04bc 0100A003 		moveq	r0, #1
 746              	.LVL41:
 449:../mindows/mds_task.c ****     if(gpstrCurTcb == gpstrIdleTaskTcb)
 747              		.loc 1 449 0
 748 04c0 1F00000A 		beq	.L63
 452:../mindows/mds_task.c ****     }
 453:../mindows/mds_task.c **** 
 454:../mindows/mds_task.c ****     /* 获取当前任务的相关调度参数 */
 455:../mindows/mds_task.c ****     ucTaskPrio = gpstrCurTcb->ucTaskPrio;
 749              		.loc 1 455 0
 750 04c4 6800D3E5 		ldrb	r0, [r3, #104]	@ zero_extendqisi2
 751              	.LVL42:
 456:../mindows/mds_task.c ****     pstrChain = &gstrReadyTab.astrChain[ucTaskPrio];
 752              		.loc 1 456 0
 753 04c8 88309FE5 		ldr	r3, .L66+8
 457:../mindows/mds_task.c ****     pstrPrioFlag = &gstrReadyTab.strFlag;
 458:../mindows/mds_task.c **** 
 459:../mindows/mds_task.c ****     /* 将当前任务从ready表拆除 */
 460:../mindows/mds_task.c ****     pstrNode = MDS_TaskDelFromSchedTab(pstrChain, pstrPrioFlag, ucTaskPrio);
 754              		.loc 1 460 0
 755 04cc 0020A0E1 		mov	r2, r0
 756 04d0 401083E2 		add	r1, r3, #64
 757              	.LVL43:
 758 04d4 800183E0 		add	r0, r3, r0, asl #3
 759              	.LVL44:
 760 04d8 FEFFFFEB 		bl	MDS_TaskDelFromSchedTab
 761              	.LVL45:
 461:../mindows/mds_task.c **** 
 462:../mindows/mds_task.c ****     /* 清除任务的ready状态 */
 463:../mindows/mds_task.c ****     gpstrCurTcb->strTaskOpt.ucTaskSta &= ~((U8)TASKREADY);
 762              		.loc 1 463 0
ARM GAS  C:\DOCUME~1\ADMINI~1\LOCALS~1\Temp\ccusa1c5.s 			page 24


 763 04dc 003094E5 		ldr	r3, [r4, #0]
 764 04e0 6CC0D3E5 		ldrb	ip, [r3, #108]	@ zero_extendqisi2
 464:../mindows/mds_task.c **** 
 465:../mindows/mds_task.c ****     /* 更新当前任务的延迟时间 */
 466:../mindows/mds_task.c ****     gpstrCurTcb->strTaskOpt.uiDelayTick = uiDelayTick;
 467:../mindows/mds_task.c **** 
 468:../mindows/mds_task.c ****     /* 非永久等待任务才挂入delay表 */
 469:../mindows/mds_task.c ****     if(SEMWAITFEV != uiDelayTick)
 765              		.loc 1 469 0
 766 04e4 010075E3 		cmn	r5, #1
 463:../mindows/mds_task.c ****     gpstrCurTcb->strTaskOpt.ucTaskSta &= ~((U8)TASKREADY);
 767              		.loc 1 463 0
 768 04e8 0210CCE3 		bic	r1, ip, #2
 769 04ec 6C10C3E5 		strb	r1, [r3, #108]
 466:../mindows/mds_task.c ****     gpstrCurTcb->strTaskOpt.uiDelayTick = uiDelayTick;
 770              		.loc 1 466 0
 771 04f0 705083E5 		str	r5, [r3, #112]
 772              		.loc 1 469 0
 773 04f4 0A00000A 		beq	.L64
 470:../mindows/mds_task.c ****     {
 471:../mindows/mds_task.c ****         gpstrCurTcb->uiStillTick = guiTick + uiDelayTick;
 774              		.loc 1 471 0
 775 04f8 5C209FE5 		ldr	r2, .L66+12
 776 04fc 00C092E5 		ldr	ip, [r2, #0]
 472:../mindows/mds_task.c **** 
 473:../mindows/mds_task.c ****         /* 获取当前任务delay表的任务节点 */
 474:../mindows/mds_task.c ****         pstrTaskQue = (M_TCBQUE*)pstrNode;
 475:../mindows/mds_task.c ****         pstrDelayNode = &pstrTaskQue->pstrTcb->strDelayQue.strQueHead;
 777              		.loc 1 475 0
 778 0500 08E090E5 		ldr	lr, [r0, #8]
 471:../mindows/mds_task.c ****         gpstrCurTcb->uiStillTick = guiTick + uiDelayTick;
 779              		.loc 1 471 0
 780 0504 0C5085E0 		add	r5, r5, ip
 781              	.LVL46:
 782 0508 745083E5 		str	r5, [r3, #116]
 476:../mindows/mds_task.c **** 
 477:../mindows/mds_task.c ****         /* 将当前任务加入到delay表 */
 478:../mindows/mds_task.c ****         MDS_TaskAddToDelayTab(pstrDelayNode);
 783              		.loc 1 478 0
 784 050c 50008EE2 		add	r0, lr, #80
 785              	.LVL47:
 786 0510 FEFFFFEB 		bl	MDS_TaskAddToDelayTab
 787              	.LVL48:
 479:../mindows/mds_task.c **** 
 480:../mindows/mds_task.c ****         /* 置任务在delay表标志 */
 481:../mindows/mds_task.c ****         gpstrCurTcb->uiTaskFlag |= DELAYQUEFLAG;
 788              		.loc 1 481 0
 789 0514 003094E5 		ldr	r3, [r4, #0]
 790 0518 641093E5 		ldr	r1, [r3, #100]
 791 051c 012081E3 		orr	r2, r1, #1
 792 0520 642083E5 		str	r2, [r3, #100]
 793              	.L64:
 482:../mindows/mds_task.c ****     }
 483:../mindows/mds_task.c **** 
 484:../mindows/mds_task.c ****     /* 将该任务添加到信号量调度表中 */
 485:../mindows/mds_task.c ****     MDS_TaskAddToSemTab(gpstrCurTcb, pstrSem);
 794              		.loc 1 485 0
ARM GAS  C:\DOCUME~1\ADMINI~1\LOCALS~1\Temp\ccusa1c5.s 			page 25


 795 0524 0300A0E1 		mov	r0, r3
 796 0528 0610A0E1 		mov	r1, r6
 797 052c FEFFFFEB 		bl	MDS_TaskAddToSemTab
 486:../mindows/mds_task.c **** 
 487:../mindows/mds_task.c ****     /* 增加任务的pend状态 */
 488:../mindows/mds_task.c ****     gpstrCurTcb->strTaskOpt.ucTaskSta |= TASKPEND;
 798              		.loc 1 488 0
 799 0530 003094E5 		ldr	r3, [r4, #0]
 800 0534 6C10D3E5 		ldrb	r1, [r3, #108]	@ zero_extendqisi2
 801 0538 080081E3 		orr	r0, r1, #8
 802 053c 6C00C3E5 		strb	r0, [r3, #108]
 489:../mindows/mds_task.c **** 
 490:../mindows/mds_task.c ****     return RTN_SUCD;
 803              		.loc 1 490 0
 804 0540 0000A0E3 		mov	r0, #0
 805              	.LVL49:
 806              	.L63:
 491:../mindows/mds_task.c **** }
 807              		.loc 1 491 0
 808 0544 1CD04BE2 		sub	sp, fp, #28
 809 0548 78689DE8 		ldmfd	sp, {r3, r4, r5, r6, fp, sp, lr}
 810 054c 1EFF2FE1 		bx	lr
 811              	.L67:
 812              		.align	2
 813              	.L66:
 814 0550 00000000 		.word	gpstrIdleTaskTcb
 815 0554 00000000 		.word	gpstrCurTcb
 816 0558 00000000 		.word	gstrReadyTab
 817 055c 00000000 		.word	guiTick
 818              		.cfi_endproc
 819              	.LFE6:
 820              		.fnend
 821              		.size	MDS_TaskPend, .-MDS_TaskPend
 822              		.align	2
 823              		.global	MDS_TaskHookInit
 824              		.type	MDS_TaskHookInit, %function
 825              	MDS_TaskHookInit:
 826              		.fnstart
 827              	.LFB7:
 492:../mindows/mds_task.c **** 
 493:../mindows/mds_task.c **** #ifdef MDS_INCLUDETASKHOOK
 494:../mindows/mds_task.c **** 
 495:../mindows/mds_task.c **** /***********************************************************************************
 496:../mindows/mds_task.c **** 函数功能: 初始化钩子函数.
 497:../mindows/mds_task.c **** 入口参数: none.
 498:../mindows/mds_task.c **** 返 回 值: none.
 499:../mindows/mds_task.c **** ***********************************************************************************/
 500:../mindows/mds_task.c **** void MDS_TaskHookInit(void)
 501:../mindows/mds_task.c **** {
 828              		.loc 1 501 0
 829              		.cfi_startproc
 830              		@ Function supports interworking.
 831              		@ args = 0, pretend = 0, frame = 0
 832              		@ frame_needed = 0, uses_anonymous_args = 0
 833              		@ link register save eliminated.
 502:../mindows/mds_task.c ****     /* 初始化钩子变量 */
 503:../mindows/mds_task.c ****     gvfTaskCreateHook = (VFHCRT)NULL;
ARM GAS  C:\DOCUME~1\ADMINI~1\LOCALS~1\Temp\ccusa1c5.s 			page 26


 834              		.loc 1 503 0
 835 0560 18109FE5 		ldr	r1, .L69
 504:../mindows/mds_task.c ****     gvfTaskSwitchHook = (VFHSWT)NULL;
 836              		.loc 1 504 0
 837 0564 18009FE5 		ldr	r0, .L69+4
 505:../mindows/mds_task.c ****     gvfTaskDeleteHook = (VFHDLT)NULL;
 838              		.loc 1 505 0
 839 0568 18209FE5 		ldr	r2, .L69+8
 503:../mindows/mds_task.c ****     gvfTaskCreateHook = (VFHCRT)NULL;
 840              		.loc 1 503 0
 841 056c 0030A0E3 		mov	r3, #0
 842 0570 003081E5 		str	r3, [r1, #0]
 504:../mindows/mds_task.c ****     gvfTaskSwitchHook = (VFHSWT)NULL;
 843              		.loc 1 504 0
 844 0574 003080E5 		str	r3, [r0, #0]
 845              		.loc 1 505 0
 846 0578 003082E5 		str	r3, [r2, #0]
 506:../mindows/mds_task.c **** }
 847              		.loc 1 506 0
 848 057c 1EFF2FE1 		bx	lr
 849              	.L70:
 850              		.align	2
 851              	.L69:
 852 0580 00000000 		.word	gvfTaskCreateHook
 853 0584 00000000 		.word	gvfTaskSwitchHook
 854 0588 00000000 		.word	gvfTaskDeleteHook
 855              		.cfi_endproc
 856              	.LFE7:
 857              		.fnend
 858              		.size	MDS_TaskHookInit, .-MDS_TaskHookInit
 859              		.align	2
 860              		.global	MDS_TaskCreateHookAdd
 861              		.type	MDS_TaskCreateHookAdd, %function
 862              	MDS_TaskCreateHookAdd:
 863              		.fnstart
 864              	.LFB8:
 507:../mindows/mds_task.c **** 
 508:../mindows/mds_task.c **** /***********************************************************************************
 509:../mindows/mds_task.c **** 函数功能: 添加任务创建钩子函数.
 510:../mindows/mds_task.c **** 入口参数: vfFuncPointer: 添加的钩子函数.
 511:../mindows/mds_task.c **** 返 回 值: none.
 512:../mindows/mds_task.c **** ***********************************************************************************/
 513:../mindows/mds_task.c **** void MDS_TaskCreateHookAdd(VFHCRT vfFuncPointer)
 514:../mindows/mds_task.c **** {
 865              		.loc 1 514 0
 866              		.cfi_startproc
 867              		@ Function supports interworking.
 868              		@ args = 0, pretend = 0, frame = 0
 869              		@ frame_needed = 0, uses_anonymous_args = 0
 870              		@ link register save eliminated.
 871              	.LVL50:
 515:../mindows/mds_task.c ****     gvfTaskCreateHook = vfFuncPointer;
 872              		.loc 1 515 0
 873 058c 04309FE5 		ldr	r3, .L72
 874 0590 000083E5 		str	r0, [r3, #0]
 516:../mindows/mds_task.c **** }
 875              		.loc 1 516 0
ARM GAS  C:\DOCUME~1\ADMINI~1\LOCALS~1\Temp\ccusa1c5.s 			page 27


 876 0594 1EFF2FE1 		bx	lr
 877              	.L73:
 878              		.align	2
 879              	.L72:
 880 0598 00000000 		.word	gvfTaskCreateHook
 881              		.cfi_endproc
 882              	.LFE8:
 883              		.fnend
 884              		.size	MDS_TaskCreateHookAdd, .-MDS_TaskCreateHookAdd
 885              		.align	2
 886              		.global	MDS_TaskCreateHookDel
 887              		.type	MDS_TaskCreateHookDel, %function
 888              	MDS_TaskCreateHookDel:
 889              		.fnstart
 890              	.LFB9:
 517:../mindows/mds_task.c **** 
 518:../mindows/mds_task.c **** /***********************************************************************************
 519:../mindows/mds_task.c **** 函数功能: 删除任务创建钩子函数.
 520:../mindows/mds_task.c **** 入口参数: none.
 521:../mindows/mds_task.c **** 返 回 值: none.
 522:../mindows/mds_task.c **** ***********************************************************************************/
 523:../mindows/mds_task.c **** void MDS_TaskCreateHookDel(void)
 524:../mindows/mds_task.c **** {
 891              		.loc 1 524 0
 892              		.cfi_startproc
 893              		@ Function supports interworking.
 894              		@ args = 0, pretend = 0, frame = 0
 895              		@ frame_needed = 0, uses_anonymous_args = 0
 896              		@ link register save eliminated.
 525:../mindows/mds_task.c ****     gvfTaskCreateHook = (VFHCRT)NULL;
 897              		.loc 1 525 0
 898 059c 08309FE5 		ldr	r3, .L75
 899 05a0 0020A0E3 		mov	r2, #0
 900 05a4 002083E5 		str	r2, [r3, #0]
 526:../mindows/mds_task.c **** }
 901              		.loc 1 526 0
 902 05a8 1EFF2FE1 		bx	lr
 903              	.L76:
 904              		.align	2
 905              	.L75:
 906 05ac 00000000 		.word	gvfTaskCreateHook
 907              		.cfi_endproc
 908              	.LFE9:
 909              		.fnend
 910              		.size	MDS_TaskCreateHookDel, .-MDS_TaskCreateHookDel
 911              		.align	2
 912              		.global	MDS_TaskSwitchHookAdd
 913              		.type	MDS_TaskSwitchHookAdd, %function
 914              	MDS_TaskSwitchHookAdd:
 915              		.fnstart
 916              	.LFB10:
 527:../mindows/mds_task.c **** 
 528:../mindows/mds_task.c **** /***********************************************************************************
 529:../mindows/mds_task.c **** 函数功能: 添加任务切换钩子函数.
 530:../mindows/mds_task.c **** 入口参数: vfFuncPointer: 添加的钩子函数.
 531:../mindows/mds_task.c **** 返 回 值: none.
 532:../mindows/mds_task.c **** ***********************************************************************************/
ARM GAS  C:\DOCUME~1\ADMINI~1\LOCALS~1\Temp\ccusa1c5.s 			page 28


 533:../mindows/mds_task.c **** void MDS_TaskSwitchHookAdd(VFHSWT vfFuncPointer)
 534:../mindows/mds_task.c **** {
 917              		.loc 1 534 0
 918              		.cfi_startproc
 919              		@ Function supports interworking.
 920              		@ args = 0, pretend = 0, frame = 0
 921              		@ frame_needed = 0, uses_anonymous_args = 0
 922              		@ link register save eliminated.
 923              	.LVL51:
 535:../mindows/mds_task.c ****     gvfTaskSwitchHook = vfFuncPointer;
 924              		.loc 1 535 0
 925 05b0 04309FE5 		ldr	r3, .L78
 926 05b4 000083E5 		str	r0, [r3, #0]
 536:../mindows/mds_task.c **** }
 927              		.loc 1 536 0
 928 05b8 1EFF2FE1 		bx	lr
 929              	.L79:
 930              		.align	2
 931              	.L78:
 932 05bc 00000000 		.word	gvfTaskSwitchHook
 933              		.cfi_endproc
 934              	.LFE10:
 935              		.fnend
 936              		.size	MDS_TaskSwitchHookAdd, .-MDS_TaskSwitchHookAdd
 937              		.align	2
 938              		.global	MDS_TaskSwitchHookDel
 939              		.type	MDS_TaskSwitchHookDel, %function
 940              	MDS_TaskSwitchHookDel:
 941              		.fnstart
 942              	.LFB11:
 537:../mindows/mds_task.c **** 
 538:../mindows/mds_task.c **** /***********************************************************************************
 539:../mindows/mds_task.c **** 函数功能: 删除任务切换钩子函数.
 540:../mindows/mds_task.c **** 入口参数: none.
 541:../mindows/mds_task.c **** 返 回 值: none.
 542:../mindows/mds_task.c **** ***********************************************************************************/
 543:../mindows/mds_task.c **** void MDS_TaskSwitchHookDel(void)
 544:../mindows/mds_task.c **** {
 943              		.loc 1 544 0
 944              		.cfi_startproc
 945              		@ Function supports interworking.
 946              		@ args = 0, pretend = 0, frame = 0
 947              		@ frame_needed = 0, uses_anonymous_args = 0
 948              		@ link register save eliminated.
 545:../mindows/mds_task.c ****     gvfTaskSwitchHook = (VFHSWT)NULL;
 949              		.loc 1 545 0
 950 05c0 08309FE5 		ldr	r3, .L81
 951 05c4 0020A0E3 		mov	r2, #0
 952 05c8 002083E5 		str	r2, [r3, #0]
 546:../mindows/mds_task.c **** }
 953              		.loc 1 546 0
 954 05cc 1EFF2FE1 		bx	lr
 955              	.L82:
 956              		.align	2
 957              	.L81:
 958 05d0 00000000 		.word	gvfTaskSwitchHook
 959              		.cfi_endproc
ARM GAS  C:\DOCUME~1\ADMINI~1\LOCALS~1\Temp\ccusa1c5.s 			page 29


 960              	.LFE11:
 961              		.fnend
 962              		.size	MDS_TaskSwitchHookDel, .-MDS_TaskSwitchHookDel
 963              		.align	2
 964              		.global	MDS_TaskDeleteHookAdd
 965              		.type	MDS_TaskDeleteHookAdd, %function
 966              	MDS_TaskDeleteHookAdd:
 967              		.fnstart
 968              	.LFB12:
 547:../mindows/mds_task.c **** 
 548:../mindows/mds_task.c **** /***********************************************************************************
 549:../mindows/mds_task.c **** 函数功能: 添加任务删除钩子函数.
 550:../mindows/mds_task.c **** 入口参数: vfFuncPointer: 添加的钩子函数.
 551:../mindows/mds_task.c **** 返 回 值: none.
 552:../mindows/mds_task.c **** ***********************************************************************************/
 553:../mindows/mds_task.c **** void MDS_TaskDeleteHookAdd(VFHDLT vfFuncPointer)
 554:../mindows/mds_task.c **** {
 969              		.loc 1 554 0
 970              		.cfi_startproc
 971              		@ Function supports interworking.
 972              		@ args = 0, pretend = 0, frame = 0
 973              		@ frame_needed = 0, uses_anonymous_args = 0
 974              		@ link register save eliminated.
 975              	.LVL52:
 555:../mindows/mds_task.c ****     gvfTaskDeleteHook = vfFuncPointer;
 976              		.loc 1 555 0
 977 05d4 04309FE5 		ldr	r3, .L84
 978 05d8 000083E5 		str	r0, [r3, #0]
 556:../mindows/mds_task.c **** }
 979              		.loc 1 556 0
 980 05dc 1EFF2FE1 		bx	lr
 981              	.L85:
 982              		.align	2
 983              	.L84:
 984 05e0 00000000 		.word	gvfTaskDeleteHook
 985              		.cfi_endproc
 986              	.LFE12:
 987              		.fnend
 988              		.size	MDS_TaskDeleteHookAdd, .-MDS_TaskDeleteHookAdd
 989              		.align	2
 990              		.global	MDS_TaskDeleteHookDel
 991              		.type	MDS_TaskDeleteHookDel, %function
 992              	MDS_TaskDeleteHookDel:
 993              		.fnstart
 994              	.LFB13:
 557:../mindows/mds_task.c **** 
 558:../mindows/mds_task.c **** /***********************************************************************************
 559:../mindows/mds_task.c **** 函数功能: 删除任务删除钩子函数.
 560:../mindows/mds_task.c **** 入口参数: none.
 561:../mindows/mds_task.c **** 返 回 值: none.
 562:../mindows/mds_task.c **** ***********************************************************************************/
 563:../mindows/mds_task.c **** void MDS_TaskDeleteHookDel(void)
 564:../mindows/mds_task.c **** {
 995              		.loc 1 564 0
 996              		.cfi_startproc
 997              		@ Function supports interworking.
 998              		@ args = 0, pretend = 0, frame = 0
ARM GAS  C:\DOCUME~1\ADMINI~1\LOCALS~1\Temp\ccusa1c5.s 			page 30


 999              		@ frame_needed = 0, uses_anonymous_args = 0
 1000              		@ link register save eliminated.
 565:../mindows/mds_task.c ****     gvfTaskDeleteHook = (VFHDLT)NULL;
 1001              		.loc 1 565 0
 1002 05e4 08309FE5 		ldr	r3, .L87
 1003 05e8 0020A0E3 		mov	r2, #0
 1004 05ec 002083E5 		str	r2, [r3, #0]
 566:../mindows/mds_task.c **** }
 1005              		.loc 1 566 0
 1006 05f0 1EFF2FE1 		bx	lr
 1007              	.L88:
 1008              		.align	2
 1009              	.L87:
 1010 05f4 00000000 		.word	gvfTaskDeleteHook
 1011              		.cfi_endproc
 1012              	.LFE13:
 1013              		.fnend
 1014              		.size	MDS_TaskDeleteHookDel, .-MDS_TaskDeleteHookDel
 1015              		.comm	gvfTaskCreateHook,4,4
 1016              		.comm	gvfTaskSwitchHook,4,4
 1017              		.comm	gvfTaskDeleteHook,4,4
 1018              	.Letext0:
 3361              		.section	.note.GNU-stack,"",%progbits
ARM GAS  C:\DOCUME~1\ADMINI~1\LOCALS~1\Temp\ccusa1c5.s 			page 77

