ARM GAS  C:\DOCUME~1\ADMINI~1\LOCALS~1\Temp\cc1Hp51A.s 			page 1


   1              		.cpu arm7tdmi
   2              		.fpu softvfp
   3              		.eabi_attribute 20, 1
   4              		.eabi_attribute 21, 1
   5              		.eabi_attribute 23, 3
   6              		.eabi_attribute 24, 1
   7              		.eabi_attribute 25, 1
   8              		.eabi_attribute 26, 2
   9              		.eabi_attribute 30, 2
  10              		.eabi_attribute 18, 4
  11              		.file	"mds_core_c.c"
  18 0000 32040000 		.text
  18      02007600 
  18      00000201 
  18      FB0E0D00 
  18      01010101 
  19              	.Ltext0:
  20              		.cfi_sections	.debug_frame
  21              		.align	2
  22              		.global	MDS_TickTimerInit
  23              		.type	MDS_TickTimerInit, %function
  24              	MDS_TickTimerInit:
  25              		.fnstart
  26              	.LFB1:
  27              		.file 1 "../mindows/mds_core_c.c"
   1:../mindows/mds_core_c.c **** 
   2:../mindows/mds_core_c.c **** #include "mindows_inner.h"
   3:../mindows/mds_core_c.c **** 
   4:../mindows/mds_core_c.c **** 
   5:../mindows/mds_core_c.c **** M_TASKSCHEDTAB gstrReadyTab;            /* 任务就绪表 */
   6:../mindows/mds_core_c.c **** M_CHAIN gstrDelayTab;                   /* 任务延迟表 */
   7:../mindows/mds_core_c.c **** 
   8:../mindows/mds_core_c.c **** U32 guiTick;                            /* 操作系统的tick变量 */
   9:../mindows/mds_core_c.c **** 
  10:../mindows/mds_core_c.c **** STACKREG* gpstrCurTaskSpAddr;           /* 当前运行的任务的寄存器组指针, 用于从C传递
  11:../mindows/mds_core_c.c ****                                            到汇编 */
  12:../mindows/mds_core_c.c **** STACKREG* gpstrNextTaskSpAddr;          /* 将要运行的任务的寄存器组指针, 用于从C传递
  13:../mindows/mds_core_c.c ****                                            到汇编 */
  14:../mindows/mds_core_c.c **** 
  15:../mindows/mds_core_c.c **** M_TCB* gpstrCurTcb;                     /* 当前运行的任务的TCB指针 */
  16:../mindows/mds_core_c.c **** M_TCB* gpstrRootTaskTcb;                /* root任务TCB指针 */
  17:../mindows/mds_core_c.c **** M_TCB* gpstrIdleTaskTcb;                /* idle任务TCB指针 */
  18:../mindows/mds_core_c.c **** 
  19:../mindows/mds_core_c.c **** U32 guiIntLockCounter;                  /* 锁中断计数值 */
  20:../mindows/mds_core_c.c **** 
  21:../mindows/mds_core_c.c **** const U8 caucTaskPrioUnmapTab[256] =    /* 优先级反向查找表 */
  22:../mindows/mds_core_c.c **** {
  23:../mindows/mds_core_c.c ****     0, 0, 1, 0, 2, 0, 1, 0, 3, 0, 1, 0, 2, 0, 1, 0,
  24:../mindows/mds_core_c.c ****     4, 0, 1, 0, 2, 0, 1, 0, 3, 0, 1, 0, 2, 0, 1, 0,
  25:../mindows/mds_core_c.c ****     5, 0, 1, 0, 2, 0, 1, 0, 3, 0, 1, 0, 2, 0, 1, 0,
  26:../mindows/mds_core_c.c ****     4, 0, 1, 0, 2, 0, 1, 0, 3, 0, 1, 0, 2, 0, 1, 0,
ARM GAS  C:\DOCUME~1\ADMINI~1\LOCALS~1\Temp\cc1Hp51A.s 			page 2


  27:../mindows/mds_core_c.c ****     6, 0, 1, 0, 2, 0, 1, 0, 3, 0, 1, 0, 2, 0, 1, 0,
  28:../mindows/mds_core_c.c ****     4, 0, 1, 0, 2, 0, 1, 0, 3, 0, 1, 0, 2, 0, 1, 0,
  29:../mindows/mds_core_c.c ****     5, 0, 1, 0, 2, 0, 1, 0, 3, 0, 1, 0, 2, 0, 1, 0,
  30:../mindows/mds_core_c.c ****     4, 0, 1, 0, 2, 0, 1, 0, 3, 0, 1, 0, 2, 0, 1, 0,
  31:../mindows/mds_core_c.c ****     7, 0, 1, 0, 2, 0, 1, 0, 3, 0, 1, 0, 2, 0, 1, 0,
  32:../mindows/mds_core_c.c ****     4, 0, 1, 0, 2, 0, 1, 0, 3, 0, 1, 0, 2, 0, 1, 0,
  33:../mindows/mds_core_c.c ****     5, 0, 1, 0, 2, 0, 1, 0, 3, 0, 1, 0, 2, 0, 1, 0,
  34:../mindows/mds_core_c.c ****     4, 0, 1, 0, 2, 0, 1, 0, 3, 0, 1, 0, 2, 0, 1, 0,
  35:../mindows/mds_core_c.c ****     6, 0, 1, 0, 2, 0, 1, 0, 3, 0, 1, 0, 2, 0, 1, 0,
  36:../mindows/mds_core_c.c ****     4, 0, 1, 0, 2, 0, 1, 0, 3, 0, 1, 0, 2, 0, 1, 0,
  37:../mindows/mds_core_c.c ****     5, 0, 1, 0, 2, 0, 1, 0, 3, 0, 1, 0, 2, 0, 1, 0,
  38:../mindows/mds_core_c.c ****     4, 0, 1, 0, 2, 0, 1, 0, 3, 0, 1, 0, 2, 0, 1, 0
  39:../mindows/mds_core_c.c **** };
  40:../mindows/mds_core_c.c **** 
  41:../mindows/mds_core_c.c **** 
  42:../mindows/mds_core_c.c **** /***********************************************************************************
  43:../mindows/mds_core_c.c **** 函数功能: 主函数, C程序从此函数开始运行. 该函数创建系统任务并从非任务状态切换到root
  44:../mindows/mds_core_c.c ****           任务运行.
  45:../mindows/mds_core_c.c **** 入口参数: none.
  46:../mindows/mds_core_c.c **** 返 回 值: none.
  47:../mindows/mds_core_c.c **** ***********************************************************************************/
  48:../mindows/mds_core_c.c **** S32 main(void)
  49:../mindows/mds_core_c.c **** {
  50:../mindows/mds_core_c.c ****     /* 初始化系统变量 */
  51:../mindows/mds_core_c.c ****     MDS_SystemVarInit();
  52:../mindows/mds_core_c.c **** 
  53:../mindows/mds_core_c.c ****     /* 创建根任务 */
  54:../mindows/mds_core_c.c ****     gpstrRootTaskTcb = MDS_TaskCreate((U8*)"Root", (VFUNC)MDS_RootTask,
  55:../mindows/mds_core_c.c ****                    gaucRootTaskStack, ROOTTASKSTACK, HIGHESTPRIO, (M_TASKOPT*)NULL);
  56:../mindows/mds_core_c.c **** 
  57:../mindows/mds_core_c.c ****     /* 创建空闲任务 */
  58:../mindows/mds_core_c.c ****     gpstrIdleTaskTcb = MDS_TaskCreate((U8*)"Idle", (VFUNC)MDS_IdleTask,
  59:../mindows/mds_core_c.c ****                     gaucIdleTaskStack, IDLETASKSTACK, LOWESTPRIO, (M_TASKOPT*)NULL);
  60:../mindows/mds_core_c.c **** 
  61:../mindows/mds_core_c.c ****     /* 开始任务调度, 从根任务开始执行 */
  62:../mindows/mds_core_c.c ****     MDS_TaskStart(gpstrRootTaskTcb);
  63:../mindows/mds_core_c.c **** 
  64:../mindows/mds_core_c.c ****     return 0;
  65:../mindows/mds_core_c.c **** }
  66:../mindows/mds_core_c.c **** 
  67:../mindows/mds_core_c.c **** /***********************************************************************************
  68:../mindows/mds_core_c.c **** 函数功能: 初始化tick定时器.
  69:../mindows/mds_core_c.c **** 入口参数: vfFuncPointer: 初始化tick时钟的函数指针.
  70:../mindows/mds_core_c.c **** 返 回 值: RTN_SUCD: 初始化tick时钟成功.
  71:../mindows/mds_core_c.c ****           RTN_FAIL: 初始化tick时钟失败.
  72:../mindows/mds_core_c.c **** ***********************************************************************************/
  73:../mindows/mds_core_c.c **** U32 MDS_TickTimerInit(VFUNC vfFuncPointer)
  74:../mindows/mds_core_c.c **** {
  28              		.loc 1 74 0
  29              		.cfi_startproc
  30              		@ Function supports interworking.
  31              		@ args = 0, pretend = 0, frame = 0
  32              		@ frame_needed = 1, uses_anonymous_args = 0
  33              	.LVL0:
  34              		.movsp ip
  35 0000 0DC0A0E1 		mov	ip, sp
  36              	.LCFI0:
ARM GAS  C:\DOCUME~1\ADMINI~1\LOCALS~1\Temp\cc1Hp51A.s 			page 3


  37              		.cfi_def_cfa_register 12
  75:../mindows/mds_core_c.c ****     /* 入口参数检查 */
  76:../mindows/mds_core_c.c ****     if(NULL == vfFuncPointer)
  38              		.loc 1 76 0
  39 0004 000050E3 		cmp	r0, #0
  74:../mindows/mds_core_c.c **** {
  40              		.loc 1 74 0
  41 0008 00D82DE9 		stmfd	sp!, {fp, ip, lr, pc}
  42              		.pad #4
  43              		.save {fp, ip, lr}
  77:../mindows/mds_core_c.c ****     {
  78:../mindows/mds_core_c.c ****         return RTN_FAIL;
  44              		.loc 1 78 0
  45 000c 0100A003 		moveq	r0, #1
  46              	.LVL1:
  74:../mindows/mds_core_c.c **** {
  47              		.loc 1 74 0
  48              		.setfp fp, ip, #-4
  49 0010 04B04CE2 		sub	fp, ip, #4
  50              		.cfi_offset 14, -8
  51              		.cfi_offset 13, -12
  52              		.cfi_offset 11, -16
  53              	.LCFI1:
  54              		.cfi_def_cfa 11, 4
  76:../mindows/mds_core_c.c ****     if(NULL == vfFuncPointer)
  55              		.loc 1 76 0
  56 0014 0200000A 		beq	.L2
  79:../mindows/mds_core_c.c ****     }
  80:../mindows/mds_core_c.c **** 
  81:../mindows/mds_core_c.c ****     /* 初始化tick系统时钟 */
  82:../mindows/mds_core_c.c ****     vfFuncPointer();
  57              		.loc 1 82 0
  58 0018 0FE0A0E1 		mov	lr, pc
  59 001c 10FF2FE1 		bx	r0
  83:../mindows/mds_core_c.c **** 
  84:../mindows/mds_core_c.c ****     return RTN_SUCD;
  60              		.loc 1 84 0
  61 0020 0000A0E3 		mov	r0, #0
  62              	.L2:
  85:../mindows/mds_core_c.c **** }
  63              		.loc 1 85 0
  64 0024 0CD04BE2 		sub	sp, fp, #12
  65 0028 00689DE8 		ldmfd	sp, {fp, sp, lr}
  66 002c 1EFF2FE1 		bx	lr
  67              		.cfi_endproc
  68              	.LFE1:
  69              		.fnend
  70              		.size	MDS_TickTimerInit, .-MDS_TickTimerInit
  71              		.align	2
  72              		.global	MDS_SystemVarInit
  73              		.type	MDS_SystemVarInit, %function
  74              	MDS_SystemVarInit:
  75              		.fnstart
  76              	.LFB2:
  86:../mindows/mds_core_c.c **** 
  87:../mindows/mds_core_c.c **** /***********************************************************************************
  88:../mindows/mds_core_c.c **** 函数功能: 初始化系统变量.
ARM GAS  C:\DOCUME~1\ADMINI~1\LOCALS~1\Temp\cc1Hp51A.s 			page 4


  89:../mindows/mds_core_c.c **** 入口参数: none.
  90:../mindows/mds_core_c.c **** 返 回 值: none.
  91:../mindows/mds_core_c.c **** ***********************************************************************************/
  92:../mindows/mds_core_c.c **** void MDS_SystemVarInit(void)
  93:../mindows/mds_core_c.c **** {
  77              		.loc 1 93 0
  78              		.cfi_startproc
  79              		@ Function supports interworking.
  80              		@ args = 0, pretend = 0, frame = 0
  81              		@ frame_needed = 1, uses_anonymous_args = 0
  82              		.movsp ip
  83 0030 0DC0A0E1 		mov	ip, sp
  84              	.LCFI2:
  85              		.cfi_def_cfa_register 12
  86 0034 18D82DE9 		stmfd	sp!, {r3, r4, fp, ip, lr, pc}
  87              		.pad #4
  88              		.save {r3, r4, fp, ip, lr}
  94:../mindows/mds_core_c.c ****     /* 将当前运行任务, root任务和idle任务的TCB初始化为NULL */
  95:../mindows/mds_core_c.c ****     gpstrCurTcb = (M_TCB*)NULL;
  89              		.loc 1 95 0
  90 0038 8C209FE5 		ldr	r2, .L6
  96:../mindows/mds_core_c.c ****     gpstrRootTaskTcb = (M_TCB*)NULL;
  91              		.loc 1 96 0
  92 003c 8CE09FE5 		ldr	lr, .L6+4
  93              		.cfi_offset 14, -8
  94              		.cfi_offset 13, -12
  95              		.cfi_offset 11, -16
  96              		.cfi_offset 4, -20
  97              		.cfi_offset 3, -24
  97:../mindows/mds_core_c.c ****     gpstrIdleTaskTcb = (M_TCB*)NULL;
  98:../mindows/mds_core_c.c **** 
  99:../mindows/mds_core_c.c ****     /* 初始化tick从0开始 */
 100:../mindows/mds_core_c.c ****     guiTick = 0;
  98              		.loc 1 100 0
  99 0040 8C109FE5 		ldr	r1, .L6+8
 101:../mindows/mds_core_c.c **** 
 102:../mindows/mds_core_c.c ****     /* 初始化锁中断计数为0 */
 103:../mindows/mds_core_c.c ****     guiIntLockCounter = 0;
 100              		.loc 1 103 0
 101 0044 8C009FE5 		ldr	r0, .L6+12
  95:../mindows/mds_core_c.c ****     gpstrCurTcb = (M_TCB*)NULL;
 102              		.loc 1 95 0
 103 0048 0040A0E3 		mov	r4, #0
  93:../mindows/mds_core_c.c **** {
 104              		.loc 1 93 0
 105              		.setfp fp, ip, #-4
 106 004c 04B04CE2 		sub	fp, ip, #4
 107              	.LCFI3:
 108              		.cfi_def_cfa 11, 4
  97:../mindows/mds_core_c.c ****     gpstrIdleTaskTcb = (M_TCB*)NULL;
 109              		.loc 1 97 0
 110 0050 84C09FE5 		ldr	ip, .L6+16
  95:../mindows/mds_core_c.c ****     gpstrCurTcb = (M_TCB*)NULL;
 111              		.loc 1 95 0
 112 0054 004082E5 		str	r4, [r2, #0]
  96:../mindows/mds_core_c.c ****     gpstrRootTaskTcb = (M_TCB*)NULL;
 113              		.loc 1 96 0
ARM GAS  C:\DOCUME~1\ADMINI~1\LOCALS~1\Temp\cc1Hp51A.s 			page 5


 114 0058 00408EE5 		str	r4, [lr, #0]
 100:../mindows/mds_core_c.c ****     guiTick = 0;
 115              		.loc 1 100 0
 116 005c 004081E5 		str	r4, [r1, #0]
 117              		.loc 1 103 0
 118 0060 004080E5 		str	r4, [r0, #0]
  97:../mindows/mds_core_c.c ****     gpstrIdleTaskTcb = (M_TCB*)NULL;
 119              		.loc 1 97 0
 120 0064 00408CE5 		str	r4, [ip, #0]
 104:../mindows/mds_core_c.c **** 
 105:../mindows/mds_core_c.c **** #ifdef MDS_INCLUDETASKHOOK
 106:../mindows/mds_core_c.c **** 
 107:../mindows/mds_core_c.c ****     /* 初始化钩子函数 */
 108:../mindows/mds_core_c.c ****     MDS_TaskHookInit();
 121              		.loc 1 108 0
 122 0068 FEFFFFEB 		bl	MDS_TaskHookInit
 123              	.LVL2:
 124              	.LBB94:
 125              	.LBB95:
 126              	.LBB96:
 127              	.LBB97:
 109:../mindows/mds_core_c.c **** 
 110:../mindows/mds_core_c.c **** #endif
 111:../mindows/mds_core_c.c **** 
 112:../mindows/mds_core_c.c ****     /* 初始化任务ready表 */
 113:../mindows/mds_core_c.c ****     MDS_TaskSchedTabInit(&gstrReadyTab);
 114:../mindows/mds_core_c.c **** 
 115:../mindows/mds_core_c.c ****     /* 初始化任务delay表 */
 116:../mindows/mds_core_c.c ****     MDS_ChainInit(&gstrDelayTab);
 117:../mindows/mds_core_c.c **** }
 118:../mindows/mds_core_c.c **** 
 119:../mindows/mds_core_c.c **** /***********************************************************************************
 120:../mindows/mds_core_c.c **** 函数功能: tick中断调度任务函数.
 121:../mindows/mds_core_c.c **** 入口参数: none.
 122:../mindows/mds_core_c.c **** 返 回 值: none.
 123:../mindows/mds_core_c.c **** ***********************************************************************************/
 124:../mindows/mds_core_c.c **** void MDS_TaskTick(void)
 125:../mindows/mds_core_c.c **** {
 126:../mindows/mds_core_c.c ****     /* 每个tick中断tick计数加1 */
 127:../mindows/mds_core_c.c ****     guiTick++;
 128:../mindows/mds_core_c.c **** 
 129:../mindows/mds_core_c.c ****     /* 调度任务 */
 130:../mindows/mds_core_c.c ****     MDS_TaskSched();
 131:../mindows/mds_core_c.c **** }
 132:../mindows/mds_core_c.c **** 
 133:../mindows/mds_core_c.c **** /***********************************************************************************
 134:../mindows/mds_core_c.c **** 函数功能: 为发生的任务切换做准备, 更新任务切换过程中汇编函数所使用的变量.
 135:../mindows/mds_core_c.c **** 入口参数: pstrTcb: 即将运行的任务的TCB指针.
 136:../mindows/mds_core_c.c **** 返 回 值: none.
 137:../mindows/mds_core_c.c **** ***********************************************************************************/
 138:../mindows/mds_core_c.c **** void MDS_TaskSwitch(M_TCB* pstrTcb)
 139:../mindows/mds_core_c.c **** {
 140:../mindows/mds_core_c.c ****     /* 保存当前任务的TCB备份寄存器组地址, 在汇编语言可以通过这个变量找到任务的备份寄
 141:../mindows/mds_core_c.c ****        存器组地址 */
 142:../mindows/mds_core_c.c ****     gpstrCurTaskSpAddr = &gpstrCurTcb->strStackReg;
 143:../mindows/mds_core_c.c **** 
 144:../mindows/mds_core_c.c ****     /* 保存即将运行任务的TCB备份寄存器组地址, 在汇编语言可以通过这个变量找到任务的备
ARM GAS  C:\DOCUME~1\ADMINI~1\LOCALS~1\Temp\cc1Hp51A.s 			page 6


 145:../mindows/mds_core_c.c ****        份寄存器组地址 */
 146:../mindows/mds_core_c.c ****     gpstrNextTaskSpAddr = &pstrTcb->strStackReg;
 147:../mindows/mds_core_c.c **** 
 148:../mindows/mds_core_c.c ****     /* 保存即将运行任务的TCB指针 */
 149:../mindows/mds_core_c.c ****     gpstrCurTcb = pstrTcb;
 150:../mindows/mds_core_c.c **** }
 151:../mindows/mds_core_c.c **** 
 152:../mindows/mds_core_c.c **** /***********************************************************************************
 153:../mindows/mds_core_c.c **** 函数功能: 开始进入任务调度.
 154:../mindows/mds_core_c.c **** 入口参数: pstrTcb: 即将运行的任务的TCB指针.
 155:../mindows/mds_core_c.c **** 返 回 值: none.
 156:../mindows/mds_core_c.c **** ***********************************************************************************/
 157:../mindows/mds_core_c.c **** void MDS_TaskStart(M_TCB* pstrTcb)
 158:../mindows/mds_core_c.c **** {
 159:../mindows/mds_core_c.c ****     /* 保存即将运行任务堆栈指针的地址, 在汇编语言可以通过这个变量获取任务切换后新任
 160:../mindows/mds_core_c.c ****        务的堆栈地址 */
 161:../mindows/mds_core_c.c ****     gpstrNextTaskSpAddr = &pstrTcb->strStackReg;
 162:../mindows/mds_core_c.c **** 
 163:../mindows/mds_core_c.c ****     /* 保存即将运行任务的TCB指针 */
 164:../mindows/mds_core_c.c ****     gpstrCurTcb = pstrTcb;
 165:../mindows/mds_core_c.c **** 
 166:../mindows/mds_core_c.c ****     MDS_SwitchToTask();
 167:../mindows/mds_core_c.c **** }
 168:../mindows/mds_core_c.c **** 
 169:../mindows/mds_core_c.c **** /***********************************************************************************
 170:../mindows/mds_core_c.c **** 函数功能: 初始化任务调度表.
 171:../mindows/mds_core_c.c **** 入口参数: pstrSchedTab: 调度表指针.
 172:../mindows/mds_core_c.c **** 返 回 值: none.
 173:../mindows/mds_core_c.c **** ***********************************************************************************/
 174:../mindows/mds_core_c.c **** void MDS_TaskSchedTabInit(M_TASKSCHEDTAB* pstrSchedTab)
 175:../mindows/mds_core_c.c **** {
 176:../mindows/mds_core_c.c ****     U32 i;
 177:../mindows/mds_core_c.c **** 
 178:../mindows/mds_core_c.c ****     /* 初始化每个优先级的任务ready链表 */
 179:../mindows/mds_core_c.c ****     for(i = 0; i < PRIORITYNUM; i++)
 180:../mindows/mds_core_c.c ****     {
 181:../mindows/mds_core_c.c ****         MDS_ChainInit(&pstrSchedTab->astrChain[i]);
 182:../mindows/mds_core_c.c ****     }
 183:../mindows/mds_core_c.c **** 
 184:../mindows/mds_core_c.c ****     /* 初始化ready表优先级标志 */
 185:../mindows/mds_core_c.c **** #if PRIORITYNUM >= PRIORITY128
 186:../mindows/mds_core_c.c **** 
 187:../mindows/mds_core_c.c ****     for(i = 0; i < PRIOFLAGGRP1; i++)
 188:../mindows/mds_core_c.c ****     {
 189:../mindows/mds_core_c.c ****         pstrSchedTab->strFlag.aucPrioFlagGrp1[i] = 0;
 190:../mindows/mds_core_c.c ****     }
 191:../mindows/mds_core_c.c **** 
 192:../mindows/mds_core_c.c ****     for(i = 0; i < PRIOFLAGGRP2; i++)
 193:../mindows/mds_core_c.c ****     {
 194:../mindows/mds_core_c.c ****         pstrSchedTab->strFlag.aucPrioFlagGrp2[i] = 0;
 195:../mindows/mds_core_c.c ****     }
 196:../mindows/mds_core_c.c **** 
 197:../mindows/mds_core_c.c ****     pstrSchedTab->strFlag.ucPrioFlagGrp3 = 0;
 198:../mindows/mds_core_c.c **** 
 199:../mindows/mds_core_c.c **** #elif PRIORITYNUM >= PRIORITY16
 200:../mindows/mds_core_c.c **** 
 201:../mindows/mds_core_c.c ****     for(i = 0; i< PRIOFLAGGRP1; i++)
ARM GAS  C:\DOCUME~1\ADMINI~1\LOCALS~1\Temp\cc1Hp51A.s 			page 7


 202:../mindows/mds_core_c.c ****     {
 203:../mindows/mds_core_c.c ****         pstrSchedTab->strFlag.aucPrioFlagGrp1[i] = 0;
 204:../mindows/mds_core_c.c ****     }
 205:../mindows/mds_core_c.c **** 
 206:../mindows/mds_core_c.c ****     pstrSchedTab->strFlag.ucPrioFlagGrp2 = 0;
 207:../mindows/mds_core_c.c **** 
 208:../mindows/mds_core_c.c **** #else
 209:../mindows/mds_core_c.c **** 
 210:../mindows/mds_core_c.c ****     pstrSchedTab->strFlag.ucPrioFlagGrp1 = 0;
 211:../mindows/mds_core_c.c **** 
 212:../mindows/mds_core_c.c **** #endif
 213:../mindows/mds_core_c.c **** }
 214:../mindows/mds_core_c.c **** 
 215:../mindows/mds_core_c.c **** /***********************************************************************************
 216:../mindows/mds_core_c.c **** 函数功能: 将任务添加到任务调度表.
 217:../mindows/mds_core_c.c **** 入口参数: pstrChain: 调度表指针, 将任务添加到该调度表.
 218:../mindows/mds_core_c.c ****           pstrNode: 要添加的任务节点指针.
 219:../mindows/mds_core_c.c ****           pstrPrioFlag: 该调度表对应的优先级标志表指针.
 220:../mindows/mds_core_c.c ****           ucTaskPrio: 要添加的任务的优先级.
 221:../mindows/mds_core_c.c **** 返 回 值: none.
 222:../mindows/mds_core_c.c **** ***********************************************************************************/
 223:../mindows/mds_core_c.c **** void MDS_TaskAddToSchedTab(M_CHAIN* pstrChain, M_CHAIN* pstrNode,
 224:../mindows/mds_core_c.c ****                            M_PRIOFLAG* pstrPrioFlag, U8 ucTaskPrio)
 225:../mindows/mds_core_c.c **** {
 226:../mindows/mds_core_c.c ****     /* 将该任务节点添加到调度表中 */
 227:../mindows/mds_core_c.c ****     MDS_ChainNodeAdd(pstrChain, pstrNode);
 228:../mindows/mds_core_c.c **** 
 229:../mindows/mds_core_c.c ****     /* 设置该任务对应调度表的优先级标志表 */
 230:../mindows/mds_core_c.c ****     MDS_TaskPrioFlagSet(pstrPrioFlag, ucTaskPrio);
 231:../mindows/mds_core_c.c **** }
 232:../mindows/mds_core_c.c **** 
 233:../mindows/mds_core_c.c **** /***********************************************************************************
 234:../mindows/mds_core_c.c **** 函数功能: 将任务添加到delay表, 按照任务延迟时间从少到多添加到delay表中.
 235:../mindows/mds_core_c.c **** 入口参数: pstrNode: 要添加的任务节点指针.
 236:../mindows/mds_core_c.c **** 返 回 值: none.
 237:../mindows/mds_core_c.c **** ***********************************************************************************/
 238:../mindows/mds_core_c.c **** void MDS_TaskAddToDelayTab(M_CHAIN* pstrNode)
 239:../mindows/mds_core_c.c **** {
 240:../mindows/mds_core_c.c ****     M_CHAIN* pstrTempNode;
 241:../mindows/mds_core_c.c ****     M_CHAIN* pstrNextNode;
 242:../mindows/mds_core_c.c ****     M_TCBQUE* pstrDelayQue;
 243:../mindows/mds_core_c.c ****     U32 uiStillTick;
 244:../mindows/mds_core_c.c ****     U32 uiTempStillTick;
 245:../mindows/mds_core_c.c **** 
 246:../mindows/mds_core_c.c ****     /* 获取delay表中的第一个任务节点指针 */
 247:../mindows/mds_core_c.c ****     pstrTempNode = MDS_ChainEmpInq(&gstrDelayTab);
 248:../mindows/mds_core_c.c **** 
 249:../mindows/mds_core_c.c ****     /* delay表非空 */
 250:../mindows/mds_core_c.c ****     if(NULL != pstrTempNode)
 251:../mindows/mds_core_c.c ****     {
 252:../mindows/mds_core_c.c ****         /* 获取要加入delay表的任务的延迟时间 */
 253:../mindows/mds_core_c.c ****         pstrDelayQue = (M_TCBQUE*)pstrNode;
 254:../mindows/mds_core_c.c ****         uiStillTick = pstrDelayQue->pstrTcb->uiStillTick;
 255:../mindows/mds_core_c.c **** 
 256:../mindows/mds_core_c.c ****         /* 寻找要加入delay表的任务在delay表中的位置 */
 257:../mindows/mds_core_c.c ****         while(1)
 258:../mindows/mds_core_c.c ****         {
ARM GAS  C:\DOCUME~1\ADMINI~1\LOCALS~1\Temp\cc1Hp51A.s 			page 8


 259:../mindows/mds_core_c.c ****             /* 获取delay表中任务的延迟时间 */
 260:../mindows/mds_core_c.c ****             pstrDelayQue = (M_TCBQUE*)pstrTempNode;
 261:../mindows/mds_core_c.c ****             uiTempStillTick = pstrDelayQue->pstrTcb->uiStillTick;
 262:../mindows/mds_core_c.c **** 
 263:../mindows/mds_core_c.c ****             /* 在以下各条件中判断要加入delay表的任务应该插入的位置 */
 264:../mindows/mds_core_c.c ****             if(uiStillTick < uiTempStillTick)
 265:../mindows/mds_core_c.c ****             {
 266:../mindows/mds_core_c.c ****                 if(uiStillTick > guiTick)
 267:../mindows/mds_core_c.c ****                 {
 268:../mindows/mds_core_c.c ****                     MDS_ChainCurNodeInsert(&gstrDelayTab, pstrTempNode, pstrNode);
 269:../mindows/mds_core_c.c **** 
 270:../mindows/mds_core_c.c ****                     return;
 271:../mindows/mds_core_c.c ****                 }
 272:../mindows/mds_core_c.c ****                 else if(uiStillTick < guiTick)
 273:../mindows/mds_core_c.c ****                 {
 274:../mindows/mds_core_c.c ****                     if(guiTick > uiTempStillTick)
 275:../mindows/mds_core_c.c ****                     {
 276:../mindows/mds_core_c.c ****                         MDS_ChainCurNodeInsert(&gstrDelayTab, pstrTempNode,
 277:../mindows/mds_core_c.c ****                                                pstrNode);
 278:../mindows/mds_core_c.c **** 
 279:../mindows/mds_core_c.c ****                         return;
 280:../mindows/mds_core_c.c ****                     }
 281:../mindows/mds_core_c.c ****                 }
 282:../mindows/mds_core_c.c ****             }
 283:../mindows/mds_core_c.c ****             else if(uiStillTick > uiTempStillTick)
 284:../mindows/mds_core_c.c ****             {
 285:../mindows/mds_core_c.c ****                 if(uiStillTick > guiTick)
 286:../mindows/mds_core_c.c ****                 {
 287:../mindows/mds_core_c.c ****                     if(guiTick > uiTempStillTick)
 288:../mindows/mds_core_c.c ****                     {
 289:../mindows/mds_core_c.c ****                         MDS_ChainCurNodeInsert(&gstrDelayTab, pstrTempNode,
 290:../mindows/mds_core_c.c ****                                                pstrNode);
 291:../mindows/mds_core_c.c **** 
 292:../mindows/mds_core_c.c ****                         return;
 293:../mindows/mds_core_c.c ****                     }
 294:../mindows/mds_core_c.c ****                 }
 295:../mindows/mds_core_c.c ****             }
 296:../mindows/mds_core_c.c **** 
 297:../mindows/mds_core_c.c ****             /* delay表中取出的任务延迟时间小于要键入delay表的任务延迟时间, 取出下个
 298:../mindows/mds_core_c.c ****                任务节点继续判断 */
 299:../mindows/mds_core_c.c ****             pstrNextNode = MDS_ChainNextNodeEmpInq(&gstrDelayTab, pstrTempNode);
 300:../mindows/mds_core_c.c **** 
 301:../mindows/mds_core_c.c ****             /* 搜索到delay链表最后一个节点, 将要加入delay表的任务加入到delay表尾 */
 302:../mindows/mds_core_c.c ****             if(NULL == pstrNextNode)
 303:../mindows/mds_core_c.c ****             {
 304:../mindows/mds_core_c.c ****                 MDS_ChainNodeAdd(&gstrDelayTab, pstrNode);
 305:../mindows/mds_core_c.c **** 
 306:../mindows/mds_core_c.c ****                 return;
 307:../mindows/mds_core_c.c ****             }
 308:../mindows/mds_core_c.c ****             else /* 更新delay表下个任务节点继续判断 */
 309:../mindows/mds_core_c.c ****             {
 310:../mindows/mds_core_c.c ****                 pstrTempNode = pstrNextNode;
 311:../mindows/mds_core_c.c ****             }
 312:../mindows/mds_core_c.c ****         }
 313:../mindows/mds_core_c.c ****     }
 314:../mindows/mds_core_c.c ****     else /* delay表为空则直接将要加入delay表的任务加入到delay表尾 */
 315:../mindows/mds_core_c.c ****     {
ARM GAS  C:\DOCUME~1\ADMINI~1\LOCALS~1\Temp\cc1Hp51A.s 			page 9


 316:../mindows/mds_core_c.c ****         MDS_ChainNodeAdd(&gstrDelayTab, pstrNode);
 317:../mindows/mds_core_c.c **** 
 318:../mindows/mds_core_c.c ****         return;
 319:../mindows/mds_core_c.c ****     }
 320:../mindows/mds_core_c.c **** }
 321:../mindows/mds_core_c.c **** 
 322:../mindows/mds_core_c.c **** /***********************************************************************************
 323:../mindows/mds_core_c.c **** 函数功能: 从任务调度表删除任务.
 324:../mindows/mds_core_c.c **** 入口参数: pstrChain: 调度表指针, 从该链表删除任务.
 325:../mindows/mds_core_c.c ****           pstrPrioFlag: 调度表对应的优先级标志表指针.
 326:../mindows/mds_core_c.c ****           ucTaskPrio: 要删除任务的优先级.
 327:../mindows/mds_core_c.c **** 返 回 值: 被删除的任务的节点指针.
 328:../mindows/mds_core_c.c **** ***********************************************************************************/
 329:../mindows/mds_core_c.c **** M_CHAIN* MDS_TaskDelFromSchedTab(M_CHAIN* pstrChain, M_PRIOFLAG* pstrPrioFlag,
 330:../mindows/mds_core_c.c ****                                  U8 ucTaskPrio)
 331:../mindows/mds_core_c.c **** {
 332:../mindows/mds_core_c.c ****     M_CHAIN* pstrDelNode;
 333:../mindows/mds_core_c.c **** 
 334:../mindows/mds_core_c.c ****     /* 将该任务节点从调度表中删除 */
 335:../mindows/mds_core_c.c ****     pstrDelNode = MDS_ChainNodeDelete(pstrChain);
 336:../mindows/mds_core_c.c **** 
 337:../mindows/mds_core_c.c ****     /* 如果调度表中该优先级为空则清除优先级标志 */
 338:../mindows/mds_core_c.c ****     if(NULL == MDS_ChainEmpInq(pstrChain))
 339:../mindows/mds_core_c.c ****     {
 340:../mindows/mds_core_c.c ****         MDS_TaskPrioFlagClr(pstrPrioFlag, ucTaskPrio);
 341:../mindows/mds_core_c.c ****     }
 342:../mindows/mds_core_c.c **** 
 343:../mindows/mds_core_c.c ****     /* 返回被删除任务的节点指针 */
 344:../mindows/mds_core_c.c ****     return pstrDelNode;
 345:../mindows/mds_core_c.c **** }
 346:../mindows/mds_core_c.c **** 
 347:../mindows/mds_core_c.c **** /***********************************************************************************
 348:../mindows/mds_core_c.c **** 函数功能: 将任务添加到sem调度表.
 349:../mindows/mds_core_c.c **** 入口参数: pstrTcb: 任务的TCB.
 350:../mindows/mds_core_c.c ****           pstrSem: 操作的信号量指针.
 351:../mindows/mds_core_c.c **** 返 回 值: none.
 352:../mindows/mds_core_c.c **** ***********************************************************************************/
 353:../mindows/mds_core_c.c **** void MDS_TaskAddToSemTab(M_TCB* pstrTcb, M_SEM* pstrSem)
 354:../mindows/mds_core_c.c **** {
 355:../mindows/mds_core_c.c ****     M_CHAIN* pstrChain;
 356:../mindows/mds_core_c.c ****     M_CHAIN* pstrNode;
 357:../mindows/mds_core_c.c ****     M_PRIOFLAG* pstrPrioFlag;
 358:../mindows/mds_core_c.c ****     U8 ucTaskPrio;
 359:../mindows/mds_core_c.c **** 
 360:../mindows/mds_core_c.c ****     /* 如果信号量是采用优先级调度算法 */
 361:../mindows/mds_core_c.c ****     if(SEMPRIO == (SEMSCHEDOPTMASK & pstrSem->uiSemOpt))
 362:../mindows/mds_core_c.c ****     {
 363:../mindows/mds_core_c.c ****         /* 获取任务的相关参数 */
 364:../mindows/mds_core_c.c ****         ucTaskPrio = pstrTcb->ucTaskPrio;
 365:../mindows/mds_core_c.c ****         pstrChain = &pstrSem->strSemTab.astrChain[ucTaskPrio];
 366:../mindows/mds_core_c.c ****         pstrNode = &pstrTcb->strTcbQue.strQueHead;
 367:../mindows/mds_core_c.c ****         pstrPrioFlag = &pstrSem->strSemTab.strFlag;
 368:../mindows/mds_core_c.c **** 
 369:../mindows/mds_core_c.c ****         /* 添加到sem调度表 */
 370:../mindows/mds_core_c.c ****         MDS_TaskAddToSchedTab(pstrChain, pstrNode, pstrPrioFlag, ucTaskPrio);
 371:../mindows/mds_core_c.c ****     }
 372:../mindows/mds_core_c.c ****     else /* 如果信号量采用先进先出调度算法 */
ARM GAS  C:\DOCUME~1\ADMINI~1\LOCALS~1\Temp\cc1Hp51A.s 			page 10


 373:../mindows/mds_core_c.c ****     {
 374:../mindows/mds_core_c.c ****         /* 获取任务的相关参数, 使用0优先级链表作为先进现出链表 */
 375:../mindows/mds_core_c.c ****         pstrChain = &pstrSem->strSemTab.astrChain[LOWESTPRIO];
 376:../mindows/mds_core_c.c ****         pstrNode = &pstrTcb->strTcbQue.strQueHead;
 377:../mindows/mds_core_c.c **** 
 378:../mindows/mds_core_c.c ****         /* 添加到sem调度表 */
 379:../mindows/mds_core_c.c ****         MDS_ChainNodeAdd(pstrChain, pstrNode);
 380:../mindows/mds_core_c.c ****     }
 381:../mindows/mds_core_c.c **** }
 382:../mindows/mds_core_c.c **** 
 383:../mindows/mds_core_c.c **** /***********************************************************************************
 384:../mindows/mds_core_c.c **** 函数功能: 将任务从sem调度表删除.
 385:../mindows/mds_core_c.c **** 入口参数: pstrTcb: 任务的TCB.
 386:../mindows/mds_core_c.c **** 返 回 值: 被删除任务的节点指针.
 387:../mindows/mds_core_c.c **** ***********************************************************************************/
 388:../mindows/mds_core_c.c **** M_CHAIN* MDS_TaskDelFromSemTab(M_TCB* pstrTcb)
 389:../mindows/mds_core_c.c **** {
 390:../mindows/mds_core_c.c ****     M_SEM* pstrSem;
 391:../mindows/mds_core_c.c ****     M_CHAIN* pstrChain;
 392:../mindows/mds_core_c.c ****     M_PRIOFLAG* pstrPrioFlag;
 393:../mindows/mds_core_c.c ****     U8 ucTaskPrio;
 394:../mindows/mds_core_c.c **** 
 395:../mindows/mds_core_c.c ****     /* 获取阻塞任务的信号量 */
 396:../mindows/mds_core_c.c ****     pstrSem = pstrTcb->pstrSem;
 397:../mindows/mds_core_c.c **** 
 398:../mindows/mds_core_c.c ****     /* 如果信号量是采用优先级调度算法 */
 399:../mindows/mds_core_c.c ****     if(SEMPRIO == (SEMSCHEDOPTMASK & pstrSem->uiSemOpt))
 400:../mindows/mds_core_c.c ****     {
 401:../mindows/mds_core_c.c ****         /* 获取任务的相关参数 */
 402:../mindows/mds_core_c.c ****         ucTaskPrio = pstrTcb->ucTaskPrio;
 403:../mindows/mds_core_c.c ****         pstrChain = &pstrSem->strSemTab.astrChain[ucTaskPrio];
 404:../mindows/mds_core_c.c ****         pstrPrioFlag = &pstrSem->strSemTab.strFlag;
 405:../mindows/mds_core_c.c **** 
 406:../mindows/mds_core_c.c ****         /* 从sem调度表删除当前任务 */
 407:../mindows/mds_core_c.c ****         return MDS_TaskDelFromSchedTab(pstrChain, pstrPrioFlag, ucTaskPrio);
 408:../mindows/mds_core_c.c ****     }
 409:../mindows/mds_core_c.c ****     else /* 如果信号量采用先进先出调度算法 */
 410:../mindows/mds_core_c.c ****     {
 411:../mindows/mds_core_c.c ****         /* 获取任务的相关参数, 使用0优先级链表作为先进现出链表 */
 412:../mindows/mds_core_c.c ****         pstrChain = &pstrSem->strSemTab.astrChain[LOWESTPRIO];
 413:../mindows/mds_core_c.c **** 
 414:../mindows/mds_core_c.c ****         /* 从sem调度表删除当前任务 */
 415:../mindows/mds_core_c.c ****         return MDS_ChainNodeDelete(pstrChain);
 416:../mindows/mds_core_c.c ****     }
 417:../mindows/mds_core_c.c **** }
 418:../mindows/mds_core_c.c **** 
 419:../mindows/mds_core_c.c **** /***********************************************************************************
 420:../mindows/mds_core_c.c **** 函数功能: 在被该信号量阻塞的任务中获取一个需要被最先释放的任务.
 421:../mindows/mds_core_c.c **** 入口参数: pstrSem: 信号量指针.
 422:../mindows/mds_core_c.c **** 返 回 值: 需要释放的任务的TCB指针, 若没有需要释放的任务则返回NULL.
 423:../mindows/mds_core_c.c **** ***********************************************************************************/
 424:../mindows/mds_core_c.c **** M_TCB* MDS_SemGetActiveTask(M_SEM* pstrSem)
 425:../mindows/mds_core_c.c **** {
 426:../mindows/mds_core_c.c ****     M_CHAIN* pstrNode;
 427:../mindows/mds_core_c.c ****     M_TCBQUE* pstrTaskQue;
 428:../mindows/mds_core_c.c ****     U8 ucTaskPrio;
 429:../mindows/mds_core_c.c **** 
ARM GAS  C:\DOCUME~1\ADMINI~1\LOCALS~1\Temp\cc1Hp51A.s 			page 11


 430:../mindows/mds_core_c.c ****     /* 信号量采用优先级调度算法 */
 431:../mindows/mds_core_c.c ****     if(SEMPRIO == (SEMSCHEDOPTMASK & pstrSem->uiSemOpt))
 432:../mindows/mds_core_c.c ****     {
 433:../mindows/mds_core_c.c ****         /* 获取信号量表中优先级最高的任务TCB */
 434:../mindows/mds_core_c.c ****         ucTaskPrio = MDS_TaskHighestPrioGet(&pstrSem->strSemTab.strFlag);
 435:../mindows/mds_core_c.c ****     }
 436:../mindows/mds_core_c.c ****     else /* 信号量采用先进先出调度算法 */
 437:../mindows/mds_core_c.c ****     {
 438:../mindows/mds_core_c.c ****         /* 采用0优先级的链表 */
 439:../mindows/mds_core_c.c ****         ucTaskPrio = LOWESTPRIO;
 440:../mindows/mds_core_c.c ****     }
 441:../mindows/mds_core_c.c **** 
 442:../mindows/mds_core_c.c ****     pstrNode = MDS_ChainEmpInq(&pstrSem->strSemTab.astrChain[ucTaskPrio]);
 443:../mindows/mds_core_c.c **** 
 444:../mindows/mds_core_c.c ****     /* 信号量中没有被阻塞的任务 */
 445:../mindows/mds_core_c.c ****     if(NULL == pstrNode)
 446:../mindows/mds_core_c.c ****     {
 447:../mindows/mds_core_c.c ****         return (M_TCB*)NULL;
 448:../mindows/mds_core_c.c ****     }
 449:../mindows/mds_core_c.c ****     else
 450:../mindows/mds_core_c.c ****     {
 451:../mindows/mds_core_c.c ****         pstrTaskQue = (M_TCBQUE*)pstrNode;
 452:../mindows/mds_core_c.c **** 
 453:../mindows/mds_core_c.c ****         return pstrTaskQue->pstrTcb;
 454:../mindows/mds_core_c.c ****     }
 455:../mindows/mds_core_c.c **** }
 456:../mindows/mds_core_c.c **** 
 457:../mindows/mds_core_c.c **** /***********************************************************************************
 458:../mindows/mds_core_c.c **** 函数功能: 任务调度函数, 任务各种状态转换的调度在此函数实现.
 459:../mindows/mds_core_c.c **** 入口参数: none.
 460:../mindows/mds_core_c.c **** 返 回 值: none.
 461:../mindows/mds_core_c.c **** ***********************************************************************************/
 462:../mindows/mds_core_c.c **** void MDS_TaskSched(void)
 463:../mindows/mds_core_c.c **** {
 464:../mindows/mds_core_c.c ****     M_TCB* pstrTcb;
 465:../mindows/mds_core_c.c **** 
 466:../mindows/mds_core_c.c ****     /* 调度delay表任务 */
 467:../mindows/mds_core_c.c ****     MDS_TaskDelayTabSched();
 468:../mindows/mds_core_c.c **** 
 469:../mindows/mds_core_c.c ****     /* 调度ready表任务 */
 470:../mindows/mds_core_c.c ****     pstrTcb = MDS_TaskReadyTabSched();
 471:../mindows/mds_core_c.c **** 
 472:../mindows/mds_core_c.c **** #ifdef MDS_INCLUDETASKHOOK
 473:../mindows/mds_core_c.c **** 
 474:../mindows/mds_core_c.c ****     /* 如果任务切换钩子已经挂接函数则执行该函数 */
 475:../mindows/mds_core_c.c ****     if((VFHSWT)NULL != gvfTaskSwitchHook)
 476:../mindows/mds_core_c.c ****     {
 477:../mindows/mds_core_c.c ****         /* 不同任务之间切换才执行任务切换钩子函数 */
 478:../mindows/mds_core_c.c ****         if(pstrTcb != gpstrCurTcb)
 479:../mindows/mds_core_c.c ****         {
 480:../mindows/mds_core_c.c ****             gvfTaskSwitchHook(gpstrCurTcb, pstrTcb);
 481:../mindows/mds_core_c.c ****         }
 482:../mindows/mds_core_c.c ****     }
 483:../mindows/mds_core_c.c **** 
 484:../mindows/mds_core_c.c **** #endif
 485:../mindows/mds_core_c.c **** 
 486:../mindows/mds_core_c.c ****     /* 准备任务切换 */
ARM GAS  C:\DOCUME~1\ADMINI~1\LOCALS~1\Temp\cc1Hp51A.s 			page 12


 487:../mindows/mds_core_c.c ****     MDS_TaskSwitch(pstrTcb);
 488:../mindows/mds_core_c.c **** }
 489:../mindows/mds_core_c.c **** 
 490:../mindows/mds_core_c.c **** /***********************************************************************************
 491:../mindows/mds_core_c.c **** 函数功能: 任务调度函数, ready态任务的调度在此函数实现.
 492:../mindows/mds_core_c.c **** 入口参数: none.
 493:../mindows/mds_core_c.c **** 返 回 值: none.
 494:../mindows/mds_core_c.c **** ***********************************************************************************/
 495:../mindows/mds_core_c.c **** void MDS_TaskReadySched(void)
 496:../mindows/mds_core_c.c **** {
 497:../mindows/mds_core_c.c ****     M_TCB* pstrTcb;
 498:../mindows/mds_core_c.c **** 
 499:../mindows/mds_core_c.c ****     /* 调度ready表任务 */
 500:../mindows/mds_core_c.c ****     pstrTcb = MDS_TaskReadyTabSched();
 501:../mindows/mds_core_c.c **** 
 502:../mindows/mds_core_c.c **** #ifdef MDS_INCLUDETASKHOOK
 503:../mindows/mds_core_c.c **** 
 504:../mindows/mds_core_c.c ****     /* 如果任务切换钩子已经挂接函数则执行该函数 */
 505:../mindows/mds_core_c.c ****     if((VFHSWT)NULL != gvfTaskSwitchHook)
 506:../mindows/mds_core_c.c ****     {
 507:../mindows/mds_core_c.c ****         /* 不同任务之间切换才执行任务切换钩子函数 */
 508:../mindows/mds_core_c.c ****         if(pstrTcb != gpstrCurTcb)
 509:../mindows/mds_core_c.c ****         {
 510:../mindows/mds_core_c.c ****             gvfTaskSwitchHook(gpstrCurTcb, pstrTcb);
 511:../mindows/mds_core_c.c ****         }
 512:../mindows/mds_core_c.c ****     }
 513:../mindows/mds_core_c.c **** 
 514:../mindows/mds_core_c.c **** #endif
 515:../mindows/mds_core_c.c **** 
 516:../mindows/mds_core_c.c ****     /* 准备任务切换 */
 517:../mindows/mds_core_c.c ****     MDS_TaskSwitch(pstrTcb);
 518:../mindows/mds_core_c.c **** }
 519:../mindows/mds_core_c.c **** 
 520:../mindows/mds_core_c.c **** /***********************************************************************************
 521:../mindows/mds_core_c.c **** 函数功能: 对ready表进行操作.
 522:../mindows/mds_core_c.c **** 入口参数: none.
 523:../mindows/mds_core_c.c **** 返 回 值: none.
 524:../mindows/mds_core_c.c **** ***********************************************************************************/
 525:../mindows/mds_core_c.c **** M_TCB* MDS_TaskReadyTabSched(void)
 526:../mindows/mds_core_c.c **** {
 527:../mindows/mds_core_c.c ****     M_TCB* pstrTcb;
 528:../mindows/mds_core_c.c ****     M_TCBQUE* pstrTaskQue;
 529:../mindows/mds_core_c.c ****     U8 ucTaskPrio;
 530:../mindows/mds_core_c.c **** 
 531:../mindows/mds_core_c.c ****     /* 获取ready表中优先级最高的任务的TCB */
 532:../mindows/mds_core_c.c ****     ucTaskPrio = MDS_TaskHighestPrioGet(&gstrReadyTab.strFlag);
 533:../mindows/mds_core_c.c ****     pstrTaskQue = (M_TCBQUE*)MDS_ChainEmpInq(&gstrReadyTab.astrChain[ucTaskPrio]);
 534:../mindows/mds_core_c.c ****     pstrTcb = pstrTaskQue->pstrTcb;
 535:../mindows/mds_core_c.c **** 
 536:../mindows/mds_core_c.c ****     return pstrTcb;
 537:../mindows/mds_core_c.c **** }
 538:../mindows/mds_core_c.c **** 
 539:../mindows/mds_core_c.c **** /***********************************************************************************
 540:../mindows/mds_core_c.c **** 函数功能: 对delay表进行操作.
 541:../mindows/mds_core_c.c **** 入口参数: none.
 542:../mindows/mds_core_c.c **** 返 回 值: none.
 543:../mindows/mds_core_c.c **** ***********************************************************************************/
ARM GAS  C:\DOCUME~1\ADMINI~1\LOCALS~1\Temp\cc1Hp51A.s 			page 13


 544:../mindows/mds_core_c.c **** void MDS_TaskDelayTabSched(void)
 545:../mindows/mds_core_c.c **** {
 546:../mindows/mds_core_c.c ****     M_TCB* pstrTcb;
 547:../mindows/mds_core_c.c ****     M_CHAIN* pstrChain;
 548:../mindows/mds_core_c.c ****     M_CHAIN* pstrNode;
 549:../mindows/mds_core_c.c ****     M_CHAIN* pstrDelayNode;
 550:../mindows/mds_core_c.c ****     M_CHAIN* pstrNextNode;
 551:../mindows/mds_core_c.c ****     M_PRIOFLAG* pstrPrioFlag;
 552:../mindows/mds_core_c.c ****     M_TCBQUE* pstrDelayQue;
 553:../mindows/mds_core_c.c ****     U32 uiTick;
 554:../mindows/mds_core_c.c ****     U8 ucTaskPrio;
 555:../mindows/mds_core_c.c **** 
 556:../mindows/mds_core_c.c ****     /* 获取delay表中的任务节点 */
 557:../mindows/mds_core_c.c ****     pstrDelayNode = MDS_ChainEmpInq(&gstrDelayTab);
 558:../mindows/mds_core_c.c **** 
 559:../mindows/mds_core_c.c ****     /* delay表中有任务, 调度delay表中的任务 */
 560:../mindows/mds_core_c.c ****     if(NULL != pstrDelayNode)
 561:../mindows/mds_core_c.c ****     {
 562:../mindows/mds_core_c.c ****         /* 判断delay表中任务的延迟时间是否结束 */
 563:../mindows/mds_core_c.c ****         while(1)
 564:../mindows/mds_core_c.c ****         {
 565:../mindows/mds_core_c.c ****             /* 获取delay表中的任务的延迟时间 */
 566:../mindows/mds_core_c.c ****             pstrDelayQue = (M_TCBQUE*)pstrDelayNode;
 567:../mindows/mds_core_c.c ****             pstrTcb = pstrDelayQue->pstrTcb;
 568:../mindows/mds_core_c.c ****             uiTick = pstrTcb->uiStillTick;
 569:../mindows/mds_core_c.c **** 
 570:../mindows/mds_core_c.c ****             /* 该任务延迟时间到, 从delay表中删除并加入到调度表中 */
 571:../mindows/mds_core_c.c ****             if(uiTick == guiTick)
 572:../mindows/mds_core_c.c ****             {
 573:../mindows/mds_core_c.c ****                 /* 从delay表拆除该任务 */
 574:../mindows/mds_core_c.c ****                 pstrNextNode = MDS_ChainCurNodeDelete(&gstrDelayTab, pstrDelayNode);
 575:../mindows/mds_core_c.c **** 
 576:../mindows/mds_core_c.c ****                 /* 置任务不在delay表标志 */
 577:../mindows/mds_core_c.c ****                 pstrTcb->uiTaskFlag &= (~((U32)DELAYQUEFLAG));
 578:../mindows/mds_core_c.c **** 
 579:../mindows/mds_core_c.c ****                 /* 更新该任务的delay和pend相关参数 */
 580:../mindows/mds_core_c.c ****                 /* 如果任务拥有delay状态则从delay状态恢复 */
 581:../mindows/mds_core_c.c ****                 if(TASKDELAY == (TASKDELAY & pstrTcb->strTaskOpt.ucTaskSta))
 582:../mindows/mds_core_c.c ****                 {
 583:../mindows/mds_core_c.c ****                     /* 清除任务的delay状态 */
 584:../mindows/mds_core_c.c ****                     pstrTcb->strTaskOpt.ucTaskSta &= ~((U8)TASKDELAY);
 585:../mindows/mds_core_c.c **** 
 586:../mindows/mds_core_c.c ****                     /* 借用uiDelayTick变量保存delay任务的返回值 */
 587:../mindows/mds_core_c.c ****                     pstrTcb->strTaskOpt.uiDelayTick = RTN_TKDLTO;
 588:../mindows/mds_core_c.c ****                 }
 589:../mindows/mds_core_c.c ****                 /* 如果任务拥有pend状态则从pend状态恢复 */
 590:../mindows/mds_core_c.c ****                 else if(TASKPEND == (TASKPEND& pstrTcb->strTaskOpt.ucTaskSta))
 591:../mindows/mds_core_c.c ****                 {
 592:../mindows/mds_core_c.c ****                     /* 从信号量调度表拆除任务 */
 593:../mindows/mds_core_c.c ****                     (void)MDS_TaskDelFromSemTab(gpstrCurTcb);
 594:../mindows/mds_core_c.c **** 
 595:../mindows/mds_core_c.c ****                     /* 清除任务的pend状态 */
 596:../mindows/mds_core_c.c ****                     pstrTcb->strTaskOpt.ucTaskSta &= ~((U8)TASKPEND);
 597:../mindows/mds_core_c.c **** 
 598:../mindows/mds_core_c.c ****                     /* 借用uiDelayTick变量保存pend任务的返回值 */
 599:../mindows/mds_core_c.c ****                     pstrTcb->strTaskOpt.uiDelayTick = RTN_SMTKTO;
 600:../mindows/mds_core_c.c ****                 }
ARM GAS  C:\DOCUME~1\ADMINI~1\LOCALS~1\Temp\cc1Hp51A.s 			page 14


 601:../mindows/mds_core_c.c **** 
 602:../mindows/mds_core_c.c ****                 /* 获取该任务的相关参数 */
 603:../mindows/mds_core_c.c ****                 pstrNode = &pstrTcb->strTcbQue.strQueHead;
 604:../mindows/mds_core_c.c ****                 ucTaskPrio = pstrTcb->ucTaskPrio;
 605:../mindows/mds_core_c.c ****                 pstrChain = &gstrReadyTab.astrChain[ucTaskPrio];
 606:../mindows/mds_core_c.c ****                 pstrPrioFlag = &gstrReadyTab.strFlag;
 607:../mindows/mds_core_c.c **** 
 608:../mindows/mds_core_c.c ****                 /* 将该任务添加到ready表中 */
 609:../mindows/mds_core_c.c ****                 MDS_TaskAddToSchedTab(pstrChain, pstrNode, pstrPrioFlag,
 610:../mindows/mds_core_c.c ****                                       ucTaskPrio);
 611:../mindows/mds_core_c.c **** 
 612:../mindows/mds_core_c.c ****                 /* 增加任务的ready状态 */
 613:../mindows/mds_core_c.c ****                 pstrTcb->strTaskOpt.ucTaskSta |= TASKREADY;
 614:../mindows/mds_core_c.c **** 
 615:../mindows/mds_core_c.c ****                 /* delay表已经调度完毕, 结束对delay表的调度 */
 616:../mindows/mds_core_c.c ****                 if(NULL == pstrNextNode)
 617:../mindows/mds_core_c.c ****                 {
 618:../mindows/mds_core_c.c ****                     break;
 619:../mindows/mds_core_c.c ****                 }
 620:../mindows/mds_core_c.c ****                 else /* delay表没调度完, 更新下个节点继续判断 */
 621:../mindows/mds_core_c.c ****                 {
 622:../mindows/mds_core_c.c ****                     pstrDelayNode = pstrNextNode;
 623:../mindows/mds_core_c.c ****                 }
 624:../mindows/mds_core_c.c ****             }
 625:../mindows/mds_core_c.c ****             else /* 所有任务都没有到时间, 结束对delay表的调度 */
 626:../mindows/mds_core_c.c ****             {
 627:../mindows/mds_core_c.c ****                 break;
 628:../mindows/mds_core_c.c ****             }
 629:../mindows/mds_core_c.c ****         }
 630:../mindows/mds_core_c.c ****     }
 631:../mindows/mds_core_c.c **** }
 632:../mindows/mds_core_c.c **** 
 633:../mindows/mds_core_c.c **** /***********************************************************************************
 634:../mindows/mds_core_c.c **** 函数功能: 将该任务添加到任务调度表对应的优先级标志表中.
 635:../mindows/mds_core_c.c **** 入口参数: pstrPrioFlag: 调度表对应的优先级标志表指针.
 636:../mindows/mds_core_c.c ****           ucTaskPrio: 任务的优先级.
 637:../mindows/mds_core_c.c **** 返 回 值: none.
 638:../mindows/mds_core_c.c **** ***********************************************************************************/
 639:../mindows/mds_core_c.c **** void MDS_TaskPrioFlagSet(M_PRIOFLAG* pstrPrioFlag, U8 ucTaskPrio)
 640:../mindows/mds_core_c.c **** {
 641:../mindows/mds_core_c.c **** #if PRIORITYNUM >= PRIORITY128
 642:../mindows/mds_core_c.c ****     U8 ucPrioFlagGrp1;
 643:../mindows/mds_core_c.c ****     U8 ucPrioFlagGrp2;
 644:../mindows/mds_core_c.c ****     U8 ucPosInGrp1;
 645:../mindows/mds_core_c.c ****     U8 ucPosInGrp2;
 646:../mindows/mds_core_c.c ****     U8 ucPosInGrp3;
 647:../mindows/mds_core_c.c **** #elif PRIORITYNUM >= PRIORITY16
 648:../mindows/mds_core_c.c ****     U8 ucPrioFlagGrp1;
 649:../mindows/mds_core_c.c ****     U8 ucPosInGrp1;
 650:../mindows/mds_core_c.c ****     U8 ucPosInGrp2;
 651:../mindows/mds_core_c.c **** #endif
 652:../mindows/mds_core_c.c **** 
 653:../mindows/mds_core_c.c ****     /* 设置调度表对应的优先级标志表 */
 654:../mindows/mds_core_c.c **** #if PRIORITYNUM >= PRIORITY128
 655:../mindows/mds_core_c.c **** 
 656:../mindows/mds_core_c.c ****     /* 获取优先级标志在第一组和第二组中的组号 */
 657:../mindows/mds_core_c.c ****     ucPrioFlagGrp1 = ucTaskPrio / 8;
ARM GAS  C:\DOCUME~1\ADMINI~1\LOCALS~1\Temp\cc1Hp51A.s 			page 15


 658:../mindows/mds_core_c.c ****     ucPrioFlagGrp2 = ucPrioFlagGrp1 / 8;
 659:../mindows/mds_core_c.c **** 
 660:../mindows/mds_core_c.c ****     /* 获取优先级标志在每一组中的位置 */
 661:../mindows/mds_core_c.c ****     ucPosInGrp1 = ucTaskPrio % 8;
 662:../mindows/mds_core_c.c ****     ucPosInGrp2 = ucPrioFlagGrp1 % 8;
 663:../mindows/mds_core_c.c ****     ucPosInGrp3 = ucPrioFlagGrp2;
 664:../mindows/mds_core_c.c **** 
 665:../mindows/mds_core_c.c ****     /* 在每一组中设置优先级标志 */
 666:../mindows/mds_core_c.c ****     pstrPrioFlag->aucPrioFlagGrp1[ucPrioFlagGrp1] |= (U8)(1 << ucPosInGrp1);
 667:../mindows/mds_core_c.c ****     pstrPrioFlag->aucPrioFlagGrp2[ucPrioFlagGrp2] |= (U8)(1 << ucPosInGrp2);
 668:../mindows/mds_core_c.c ****     pstrPrioFlag->ucPrioFlagGrp3 |= (U8)(1 << ucPosInGrp3);
 669:../mindows/mds_core_c.c **** 
 670:../mindows/mds_core_c.c **** #elif PRIORITYNUM >= PRIORITY16
 671:../mindows/mds_core_c.c **** 
 672:../mindows/mds_core_c.c ****     ucPrioFlagGrp1 = ucTaskPrio / 8;
 673:../mindows/mds_core_c.c **** 
 674:../mindows/mds_core_c.c ****     ucPosInGrp1 = ucTaskPrio % 8;
 675:../mindows/mds_core_c.c ****     ucPosInGrp2 = ucPrioFlagGrp1;
 676:../mindows/mds_core_c.c **** 
 677:../mindows/mds_core_c.c ****     pstrPrioFlag->aucPrioFlagGrp1[ucPrioFlagGrp1] |= (U8)(1 << ucPosInGrp1);
 678:../mindows/mds_core_c.c ****     pstrPrioFlag->ucPrioFlagGrp2 |= (U8)(1 << ucPosInGrp2);
 679:../mindows/mds_core_c.c **** 
 680:../mindows/mds_core_c.c **** #else
 681:../mindows/mds_core_c.c **** 
 682:../mindows/mds_core_c.c ****     pstrPrioFlag->ucPrioFlagGrp1 |= (U8)(1 << ucTaskPrio);
 683:../mindows/mds_core_c.c **** 
 684:../mindows/mds_core_c.c **** #endif
 685:../mindows/mds_core_c.c **** }
 686:../mindows/mds_core_c.c **** 
 687:../mindows/mds_core_c.c **** /***********************************************************************************
 688:../mindows/mds_core_c.c **** 函数功能: 将该任务从任务调度表对应的优先级标志表中清除.
 689:../mindows/mds_core_c.c **** 入口参数: pstrPrioFlag: 调度表对应的优先级标志表指针.
 690:../mindows/mds_core_c.c ****           ucTaskPrio: 任务的优先级.
 691:../mindows/mds_core_c.c **** 返 回 值: none.
 692:../mindows/mds_core_c.c **** ***********************************************************************************/
 693:../mindows/mds_core_c.c **** void MDS_TaskPrioFlagClr(M_PRIOFLAG* pstrPrioFlag, U8 ucTaskPrio)
 694:../mindows/mds_core_c.c **** {
 695:../mindows/mds_core_c.c **** #if PRIORITYNUM >= PRIORITY128
 696:../mindows/mds_core_c.c ****     U8 ucPrioFlagGrp1;
 697:../mindows/mds_core_c.c ****     U8 ucPrioFlagGrp2;
 698:../mindows/mds_core_c.c ****     U8 ucPosInGrp1;
 699:../mindows/mds_core_c.c ****     U8 ucPosInGrp2;
 700:../mindows/mds_core_c.c ****     U8 ucPosInGrp3;
 701:../mindows/mds_core_c.c **** #elif PRIORITYNUM >= PRIORITY16
 702:../mindows/mds_core_c.c ****     U8 ucPrioFlagGrp1;
 703:../mindows/mds_core_c.c ****     U8 ucPosInGrp1;
 704:../mindows/mds_core_c.c ****     U8 ucPosInGrp2;
 705:../mindows/mds_core_c.c **** #endif
 706:../mindows/mds_core_c.c **** 
 707:../mindows/mds_core_c.c ****     /* 清除调度表对应的优先级标志表 */
 708:../mindows/mds_core_c.c **** #if PRIORITYNUM >= PRIORITY128
 709:../mindows/mds_core_c.c **** 
 710:../mindows/mds_core_c.c ****     /* 获取优先级标志在第一组和第二组中的组号 */
 711:../mindows/mds_core_c.c ****     ucPrioFlagGrp1 = ucTaskPrio / 8;
 712:../mindows/mds_core_c.c ****     ucPrioFlagGrp2 = ucPrioFlagGrp1 / 8;
 713:../mindows/mds_core_c.c **** 
 714:../mindows/mds_core_c.c ****     /* 获取优先级标志在每一组中的位置 */
ARM GAS  C:\DOCUME~1\ADMINI~1\LOCALS~1\Temp\cc1Hp51A.s 			page 16


 715:../mindows/mds_core_c.c ****     ucPosInGrp1 = ucTaskPrio % 8;
 716:../mindows/mds_core_c.c ****     ucPosInGrp2 = ucPrioFlagGrp1 % 8;
 717:../mindows/mds_core_c.c ****     ucPosInGrp3 = ucPrioFlagGrp2;
 718:../mindows/mds_core_c.c **** 
 719:../mindows/mds_core_c.c ****     /* 在每一组中清除优先级标志 */
 720:../mindows/mds_core_c.c ****     pstrPrioFlag->aucPrioFlagGrp1[ucPrioFlagGrp1] &= ~((U8)(1 << ucPosInGrp1));
 721:../mindows/mds_core_c.c ****     if(0 == pstrPrioFlag->aucPrioFlagGrp1[ucPrioFlagGrp1])
 722:../mindows/mds_core_c.c ****     {
 723:../mindows/mds_core_c.c ****         pstrPrioFlag->aucPrioFlagGrp2[ucPrioFlagGrp2] &= ~((U8)(1 << ucPosInGrp2));
 724:../mindows/mds_core_c.c ****         if(0 == pstrPrioFlag->aucPrioFlagGrp2[ucPrioFlagGrp2])
 725:../mindows/mds_core_c.c ****         {
 726:../mindows/mds_core_c.c ****             pstrPrioFlag->ucPrioFlagGrp3 &= ~((U8)(1 << ucPosInGrp3));
 727:../mindows/mds_core_c.c ****         }
 728:../mindows/mds_core_c.c ****     }
 729:../mindows/mds_core_c.c **** 
 730:../mindows/mds_core_c.c **** #elif PRIORITYNUM >= PRIORITY16
 731:../mindows/mds_core_c.c **** 
 732:../mindows/mds_core_c.c ****     ucPrioFlagGrp1 = ucTaskPrio / 8;
 733:../mindows/mds_core_c.c **** 
 734:../mindows/mds_core_c.c ****     ucPosInGrp1 = ucTaskPrio % 8;
 735:../mindows/mds_core_c.c ****     ucPosInGrp2 = ucPrioFlagGrp1;
 736:../mindows/mds_core_c.c **** 
 737:../mindows/mds_core_c.c ****     pstrPrioFlag->aucPrioFlagGrp1[ucPrioFlagGrp1] &= ~((U8)(1 << ucPosInGrp1));
 738:../mindows/mds_core_c.c ****     if(0 == pstrPrioFlag->aucPrioFlagGrp1[ucPrioFlagGrp1])
 739:../mindows/mds_core_c.c ****     {
 740:../mindows/mds_core_c.c ****         pstrPrioFlag->ucPrioFlagGrp2 &= ~((U8)(1 << ucPosInGrp2));
 741:../mindows/mds_core_c.c ****     }
 742:../mindows/mds_core_c.c **** 
 743:../mindows/mds_core_c.c **** #else
 744:../mindows/mds_core_c.c **** 
 745:../mindows/mds_core_c.c ****     pstrPrioFlag->ucPrioFlagGrp1 &= ~((U8)(1 << ucTaskPrio));
 746:../mindows/mds_core_c.c **** 
 747:../mindows/mds_core_c.c **** #endif
 748:../mindows/mds_core_c.c **** }
 749:../mindows/mds_core_c.c **** 
 750:../mindows/mds_core_c.c **** /***********************************************************************************
 751:../mindows/mds_core_c.c **** 函数功能: 获取任务调度表中任务的最高优先级.
 752:../mindows/mds_core_c.c **** 入口参数: pstrPrioFlag: 调度表的优先级标志表指针.
 753:../mindows/mds_core_c.c **** 返 回 值: 任务调度表中的最高优先级.
 754:../mindows/mds_core_c.c **** ***********************************************************************************/
 755:../mindows/mds_core_c.c **** U8 MDS_TaskHighestPrioGet(M_PRIOFLAG* pstrPrioFlag)
 756:../mindows/mds_core_c.c **** {
 757:../mindows/mds_core_c.c **** #if PRIORITYNUM >= PRIORITY128
 758:../mindows/mds_core_c.c ****     U8 ucPrioFlagGrp1;
 759:../mindows/mds_core_c.c ****     U8 ucPrioFlagGrp2;
 760:../mindows/mds_core_c.c ****     U8 ucHighestFlagInGrp1;
 761:../mindows/mds_core_c.c **** #elif PRIORITYNUM >= PRIORITY16
 762:../mindows/mds_core_c.c ****     U8 ucPrioFlagGrp1;
 763:../mindows/mds_core_c.c ****     U8 ucHighestFlagInGrp1;
 764:../mindows/mds_core_c.c **** #endif
 765:../mindows/mds_core_c.c **** 
 766:../mindows/mds_core_c.c ****     /* 获取任务调度表中的最高优先级 */
 767:../mindows/mds_core_c.c **** #if PRIORITYNUM >= PRIORITY128
 768:../mindows/mds_core_c.c **** 
 769:../mindows/mds_core_c.c ****     ucPrioFlagGrp2 = caucTaskPrioUnmapTab[pstrPrioFlag->ucPrioFlagGrp3];
 770:../mindows/mds_core_c.c **** 
 771:../mindows/mds_core_c.c ****     ucPrioFlagGrp1 =
ARM GAS  C:\DOCUME~1\ADMINI~1\LOCALS~1\Temp\cc1Hp51A.s 			page 17


 772:../mindows/mds_core_c.c ****                 caucTaskPrioUnmapTab[pstrPrioFlag->aucPrioFlagGrp2[ucPrioFlagGrp2]];
 773:../mindows/mds_core_c.c **** 
 774:../mindows/mds_core_c.c ****     ucHighestFlagInGrp1 = caucTaskPrioUnmapTab[pstrPrioFlag->aucPrioFlagGrp1
 775:../mindows/mds_core_c.c ****                                              [ucPrioFlagGrp2 * 8 + ucPrioFlagGrp1]];
 776:../mindows/mds_core_c.c **** 
 777:../mindows/mds_core_c.c ****     return (U8)((ucPrioFlagGrp2 * 8 + ucPrioFlagGrp1) * 8 + ucHighestFlagInGrp1);
 778:../mindows/mds_core_c.c **** 
 779:../mindows/mds_core_c.c **** #elif PRIORITYNUM >= PRIORITY16
 780:../mindows/mds_core_c.c **** 
 781:../mindows/mds_core_c.c ****     ucPrioFlagGrp1 = caucTaskPrioUnmapTab[pstrPrioFlag->ucPrioFlagGrp2];
 782:../mindows/mds_core_c.c **** 
 783:../mindows/mds_core_c.c ****     ucHighestFlagInGrp1 =
 784:../mindows/mds_core_c.c ****                 caucTaskPrioUnmapTab[pstrPrioFlag->aucPrioFlagGrp1[ucPrioFlagGrp1]];
 785:../mindows/mds_core_c.c **** 
 786:../mindows/mds_core_c.c ****     return (U8)(ucPrioFlagGrp1 * 8 + ucHighestFlagInGrp1);
 787:../mindows/mds_core_c.c **** 
 788:../mindows/mds_core_c.c **** #else
 789:../mindows/mds_core_c.c **** 
 790:../mindows/mds_core_c.c ****     return caucTaskPrioUnmapTab[pstrPrioFlag->ucPrioFlagGrp1];
 791:../mindows/mds_core_c.c **** 
 792:../mindows/mds_core_c.c **** #endif
 793:../mindows/mds_core_c.c **** }
 794:../mindows/mds_core_c.c **** 
 795:../mindows/mds_core_c.c **** /***********************************************************************************
 796:../mindows/mds_core_c.c **** 函数功能: 获取系统当前的tick.
 797:../mindows/mds_core_c.c **** 入口参数: none.
 798:../mindows/mds_core_c.c **** 返 回 值: 系统当前的tick.
 799:../mindows/mds_core_c.c **** ***********************************************************************************/
 800:../mindows/mds_core_c.c **** U32 MDS_SystemTickGet(void)
 801:../mindows/mds_core_c.c **** {
 802:../mindows/mds_core_c.c ****     return guiTick;
 803:../mindows/mds_core_c.c **** }
 804:../mindows/mds_core_c.c **** 
 805:../mindows/mds_core_c.c **** /***********************************************************************************
 806:../mindows/mds_core_c.c **** 函数功能: 获取系统当前任务的TCB.
 807:../mindows/mds_core_c.c **** 入口参数: none.
 808:../mindows/mds_core_c.c **** 返 回 值: 系统当前的TCB.
 809:../mindows/mds_core_c.c **** ***********************************************************************************/
 810:../mindows/mds_core_c.c **** M_TCB* MDS_CurrentTcbGet(void)
 811:../mindows/mds_core_c.c **** {
 812:../mindows/mds_core_c.c ****     return gpstrCurTcb;
 813:../mindows/mds_core_c.c **** }
 814:../mindows/mds_core_c.c **** 
 815:../mindows/mds_core_c.c **** /***********************************************************************************
 816:../mindows/mds_core_c.c **** 函数功能: 禁止总中断, 非user模式下调用该函数不做任何操作. 必须与MDS_IntUnlock函数成
 817:../mindows/mds_core_c.c ****           对使用.
 818:../mindows/mds_core_c.c **** 入口参数: none.
 819:../mindows/mds_core_c.c **** 返 回 值: RTN_SUCD: 锁中断成功.
 820:../mindows/mds_core_c.c ****           RTN_FAIL: 锁中断失败.
 821:../mindows/mds_core_c.c **** ***********************************************************************************/
 822:../mindows/mds_core_c.c **** U32 MDS_IntLock(void)
 823:../mindows/mds_core_c.c **** {
 824:../mindows/mds_core_c.c ****     /* 非操作系统状态, 不设置中断 */
 825:../mindows/mds_core_c.c ****     if(NULL == gpstrCurTcb)
 826:../mindows/mds_core_c.c ****     {
 827:../mindows/mds_core_c.c ****         return RTN_SUCD;
 828:../mindows/mds_core_c.c ****     }
ARM GAS  C:\DOCUME~1\ADMINI~1\LOCALS~1\Temp\cc1Hp51A.s 			page 18


 829:../mindows/mds_core_c.c **** 
 830:../mindows/mds_core_c.c ****     /* 如果在中断中运行该函数则直接返回 */
 831:../mindows/mds_core_c.c ****     if(RTN_SUCD == MDS_RunInInt())
 832:../mindows/mds_core_c.c ****     {
 833:../mindows/mds_core_c.c ****         return RTN_SUCD;
 834:../mindows/mds_core_c.c ****     }
 835:../mindows/mds_core_c.c **** 
 836:../mindows/mds_core_c.c ****     /* 第一次调用该函数才做实际的锁中断操作 */
 837:../mindows/mds_core_c.c ****     if(0 == guiIntLockCounter)
 838:../mindows/mds_core_c.c ****     {
 839:../mindows/mds_core_c.c ****         MDS_TaskOccurSwi(SWI_INTDISABLE);
 840:../mindows/mds_core_c.c **** 
 841:../mindows/mds_core_c.c ****         guiIntLockCounter++;
 842:../mindows/mds_core_c.c **** 
 843:../mindows/mds_core_c.c ****         return RTN_SUCD;
 844:../mindows/mds_core_c.c ****     }
 845:../mindows/mds_core_c.c ****     /* 非第一次调用该函数并且小于最大次数则直接返回成功 */
 846:../mindows/mds_core_c.c ****     else if(guiIntLockCounter < 0xFFFFFFFF)
 847:../mindows/mds_core_c.c ****     {
 848:../mindows/mds_core_c.c ****         guiIntLockCounter++;
 849:../mindows/mds_core_c.c **** 
 850:../mindows/mds_core_c.c ****         return RTN_SUCD;
 851:../mindows/mds_core_c.c ****     }
 852:../mindows/mds_core_c.c ****     else /* 超出最大次数则直接返回失败 */
 853:../mindows/mds_core_c.c ****     {
 854:../mindows/mds_core_c.c ****         return RTN_FAIL;
 855:../mindows/mds_core_c.c ****     }
 856:../mindows/mds_core_c.c **** }
 857:../mindows/mds_core_c.c **** 
 858:../mindows/mds_core_c.c **** /***********************************************************************************
 859:../mindows/mds_core_c.c **** 函数功能: 使能总中断, 非user模式下调用该函数不做任何操作. 必须与MDS_IntLock函数成对
 860:../mindows/mds_core_c.c ****           使用.
 861:../mindows/mds_core_c.c **** 入口参数: none.
 862:../mindows/mds_core_c.c **** 返 回 值: RTN_SUCD: 解锁中断成功.
 863:../mindows/mds_core_c.c ****           RTN_FAIL: 解锁中断失败.
 864:../mindows/mds_core_c.c **** ***********************************************************************************/
 865:../mindows/mds_core_c.c **** U32 MDS_IntUnlock(void)
 866:../mindows/mds_core_c.c **** {
 867:../mindows/mds_core_c.c ****     /* 非操作系统状态, 不设置中断 */
 868:../mindows/mds_core_c.c ****     if(NULL == gpstrCurTcb)
 869:../mindows/mds_core_c.c ****     {
 870:../mindows/mds_core_c.c ****         return RTN_SUCD;
 871:../mindows/mds_core_c.c ****     }
 872:../mindows/mds_core_c.c **** 
 873:../mindows/mds_core_c.c ****     /* 如果在中断中运行该函数则直接返回 */
 874:../mindows/mds_core_c.c ****     if(RTN_SUCD == MDS_RunInInt())
 875:../mindows/mds_core_c.c ****     {
 876:../mindows/mds_core_c.c ****         return RTN_SUCD;
 877:../mindows/mds_core_c.c ****     }
 878:../mindows/mds_core_c.c **** 
 879:../mindows/mds_core_c.c ****     /* 非第一次调用该函数直接返回成功 */
 880:../mindows/mds_core_c.c ****     if(guiIntLockCounter > 1)
 881:../mindows/mds_core_c.c ****     {
 882:../mindows/mds_core_c.c ****         guiIntLockCounter--;
 883:../mindows/mds_core_c.c **** 
 884:../mindows/mds_core_c.c ****         return RTN_SUCD;
 885:../mindows/mds_core_c.c ****     }
ARM GAS  C:\DOCUME~1\ADMINI~1\LOCALS~1\Temp\cc1Hp51A.s 			page 19


 886:../mindows/mds_core_c.c ****     /* 最后一次调用该函数才做实际的解锁中断操作 */
 887:../mindows/mds_core_c.c ****     else if(1 == guiIntLockCounter)
 888:../mindows/mds_core_c.c ****     {
 889:../mindows/mds_core_c.c ****         guiIntLockCounter--;
 890:../mindows/mds_core_c.c **** 
 891:../mindows/mds_core_c.c ****         MDS_TaskOccurSwi(SWI_INTENABLE);
 892:../mindows/mds_core_c.c **** 
 893:../mindows/mds_core_c.c ****         return RTN_SUCD;
 894:../mindows/mds_core_c.c ****     }
 895:../mindows/mds_core_c.c ****     else /* 等于0次则直接返回失败 */
 896:../mindows/mds_core_c.c ****     {
 897:../mindows/mds_core_c.c ****         return RTN_FAIL;
 898:../mindows/mds_core_c.c ****     }
 899:../mindows/mds_core_c.c **** }
 900:../mindows/mds_core_c.c **** 
 901:../mindows/mds_core_c.c **** /***********************************************************************************
 902:../mindows/mds_core_c.c **** 函数功能: 初始化链表.
 903:../mindows/mds_core_c.c **** 入口参数: pstrChain: 链表根节点指针.
 904:../mindows/mds_core_c.c **** 返 回 值: none.
 905:../mindows/mds_core_c.c **** ***********************************************************************************/
 906:../mindows/mds_core_c.c **** void MDS_ChainInit(M_CHAIN* pstrChain)
 907:../mindows/mds_core_c.c **** {
 908:../mindows/mds_core_c.c ****     /* 空链表的头尾都指向空节点 */
 909:../mindows/mds_core_c.c ****     pstrChain->pstrHead = (M_CHAIN*)NULL;
 128              		.loc 1 909 0
 129 006c 6C309FE5 		ldr	r3, .L6+20
 130              	.LBE97:
 131              	.LBE96:
 132              	.LBE95:
 133              	.LBE94:
 134              	.LBB101:
 135              	.LBB102:
 136 0070 6C209FE5 		ldr	r2, .L6+24
 137              	.LBE102:
 138              	.LBE101:
 139              	.LBB104:
 140              	.LBB100:
 141              	.LBB99:
 142              	.LBB98:
 143 0074 004083E5 		str	r4, [r3, #0]
 910:../mindows/mds_core_c.c ****     pstrChain->pstrTail = (M_CHAIN*)NULL;
 144              		.loc 1 910 0
 145 0078 044083E5 		str	r4, [r3, #4]
 146              	.LVL3:
 909:../mindows/mds_core_c.c ****     pstrChain->pstrHead = (M_CHAIN*)NULL;
 147              		.loc 1 909 0
 148 007c 084083E5 		str	r4, [r3, #8]
 149              		.loc 1 910 0
 150 0080 0C4083E5 		str	r4, [r3, #12]
 151              	.LVL4:
 909:../mindows/mds_core_c.c ****     pstrChain->pstrHead = (M_CHAIN*)NULL;
 152              		.loc 1 909 0
 153 0084 104083E5 		str	r4, [r3, #16]
 154              		.loc 1 910 0
 155 0088 144083E5 		str	r4, [r3, #20]
 156              	.LVL5:
 909:../mindows/mds_core_c.c ****     pstrChain->pstrHead = (M_CHAIN*)NULL;
ARM GAS  C:\DOCUME~1\ADMINI~1\LOCALS~1\Temp\cc1Hp51A.s 			page 20


 157              		.loc 1 909 0
 158 008c 184083E5 		str	r4, [r3, #24]
 159              		.loc 1 910 0
 160 0090 1C4083E5 		str	r4, [r3, #28]
 161              	.LVL6:
 909:../mindows/mds_core_c.c ****     pstrChain->pstrHead = (M_CHAIN*)NULL;
 162              		.loc 1 909 0
 163 0094 204083E5 		str	r4, [r3, #32]
 164              		.loc 1 910 0
 165 0098 244083E5 		str	r4, [r3, #36]
 166              	.LVL7:
 909:../mindows/mds_core_c.c ****     pstrChain->pstrHead = (M_CHAIN*)NULL;
 167              		.loc 1 909 0
 168 009c 284083E5 		str	r4, [r3, #40]
 169              		.loc 1 910 0
 170 00a0 2C4083E5 		str	r4, [r3, #44]
 171              	.LVL8:
 909:../mindows/mds_core_c.c ****     pstrChain->pstrHead = (M_CHAIN*)NULL;
 172              		.loc 1 909 0
 173 00a4 304083E5 		str	r4, [r3, #48]
 174              		.loc 1 910 0
 175 00a8 344083E5 		str	r4, [r3, #52]
 176              	.LVL9:
 909:../mindows/mds_core_c.c ****     pstrChain->pstrHead = (M_CHAIN*)NULL;
 177              		.loc 1 909 0
 178 00ac 384083E5 		str	r4, [r3, #56]
 179              		.loc 1 910 0
 180 00b0 3C4083E5 		str	r4, [r3, #60]
 181              	.LVL10:
 182              	.LBE98:
 183              	.LBE99:
 210:../mindows/mds_core_c.c ****     pstrSchedTab->strFlag.ucPrioFlagGrp1 = 0;
 184              		.loc 1 210 0
 185 00b4 4040C3E5 		strb	r4, [r3, #64]
 186              	.LVL11:
 187              	.LBE100:
 188              	.LBE104:
 189              	.LBB105:
 190              	.LBB103:
 909:../mindows/mds_core_c.c ****     pstrChain->pstrHead = (M_CHAIN*)NULL;
 191              		.loc 1 909 0
 192 00b8 004082E5 		str	r4, [r2, #0]
 193              		.loc 1 910 0
 194 00bc 044082E5 		str	r4, [r2, #4]
 195              	.LBE103:
 196              	.LBE105:
 117:../mindows/mds_core_c.c **** }
 197              		.loc 1 117 0
 198 00c0 14D04BE2 		sub	sp, fp, #20
 199 00c4 18689DE8 		ldmfd	sp, {r3, r4, fp, sp, lr}
 200 00c8 1EFF2FE1 		bx	lr
 201              	.L7:
 202              		.align	2
 203              	.L6:
 204 00cc 00000000 		.word	gpstrCurTcb
 205 00d0 00000000 		.word	gpstrRootTaskTcb
 206 00d4 00000000 		.word	guiTick
ARM GAS  C:\DOCUME~1\ADMINI~1\LOCALS~1\Temp\cc1Hp51A.s 			page 21


 207 00d8 00000000 		.word	guiIntLockCounter
 208 00dc 00000000 		.word	gpstrIdleTaskTcb
 209 00e0 00000000 		.word	gstrReadyTab
 210 00e4 00000000 		.word	gstrDelayTab
 211              		.cfi_endproc
 212              	.LFE2:
 213              		.fnend
 214              		.size	MDS_SystemVarInit, .-MDS_SystemVarInit
 215              		.align	2
 216              		.global	MDS_TaskSwitch
 217              		.type	MDS_TaskSwitch, %function
 218              	MDS_TaskSwitch:
 219              		.fnstart
 220              	.LFB4:
 139:../mindows/mds_core_c.c **** {
 221              		.loc 1 139 0
 222              		.cfi_startproc
 223              		@ Function supports interworking.
 224              		@ args = 0, pretend = 0, frame = 0
 225              		@ frame_needed = 0, uses_anonymous_args = 0
 226              		@ link register save eliminated.
 227              	.LVL12:
 142:../mindows/mds_core_c.c ****     gpstrCurTaskSpAddr = &gpstrCurTcb->strStackReg;
 228              		.loc 1 142 0
 229 00e8 18309FE5 		ldr	r3, .L9
 230 00ec 18109FE5 		ldr	r1, .L9+4
 231 00f0 00C093E5 		ldr	ip, [r3, #0]
 146:../mindows/mds_core_c.c ****     gpstrNextTaskSpAddr = &pstrTcb->strStackReg;
 232              		.loc 1 146 0
 233 00f4 14209FE5 		ldr	r2, .L9+8
 142:../mindows/mds_core_c.c ****     gpstrCurTaskSpAddr = &gpstrCurTcb->strStackReg;
 234              		.loc 1 142 0
 235 00f8 00C081E5 		str	ip, [r1, #0]
 146:../mindows/mds_core_c.c ****     gpstrNextTaskSpAddr = &pstrTcb->strStackReg;
 236              		.loc 1 146 0
 237 00fc 000082E5 		str	r0, [r2, #0]
 149:../mindows/mds_core_c.c ****     gpstrCurTcb = pstrTcb;
 238              		.loc 1 149 0
 239 0100 000083E5 		str	r0, [r3, #0]
 150:../mindows/mds_core_c.c **** }
 240              		.loc 1 150 0
 241 0104 1EFF2FE1 		bx	lr
 242              	.L10:
 243              		.align	2
 244              	.L9:
 245 0108 00000000 		.word	gpstrCurTcb
 246 010c 00000000 		.word	gpstrCurTaskSpAddr
 247 0110 00000000 		.word	gpstrNextTaskSpAddr
 248              		.cfi_endproc
 249              	.LFE4:
 250              		.fnend
 251              		.size	MDS_TaskSwitch, .-MDS_TaskSwitch
 252              		.align	2
 253              		.global	MDS_TaskStart
 254              		.type	MDS_TaskStart, %function
 255              	MDS_TaskStart:
 256              		.fnstart
ARM GAS  C:\DOCUME~1\ADMINI~1\LOCALS~1\Temp\cc1Hp51A.s 			page 22


 257              	.LFB5:
 158:../mindows/mds_core_c.c **** {
 258              		.loc 1 158 0
 259              		.cfi_startproc
 260              		@ Function supports interworking.
 261              		@ args = 0, pretend = 0, frame = 0
 262              		@ frame_needed = 1, uses_anonymous_args = 0
 263              	.LVL13:
 161:../mindows/mds_core_c.c ****     gpstrNextTaskSpAddr = &pstrTcb->strStackReg;
 264              		.loc 1 161 0
 265 0114 24109FE5 		ldr	r1, .L12
 164:../mindows/mds_core_c.c ****     gpstrCurTcb = pstrTcb;
 266              		.loc 1 164 0
 267 0118 24309FE5 		ldr	r3, .L12+4
 158:../mindows/mds_core_c.c **** {
 268              		.loc 1 158 0
 269              		.movsp ip
 270 011c 0DC0A0E1 		mov	ip, sp
 271              	.LCFI4:
 272              		.cfi_def_cfa_register 12
 273 0120 00D82DE9 		stmfd	sp!, {fp, ip, lr, pc}
 274              		.pad #4
 275              		.save {fp, ip, lr}
 276              		.setfp fp, ip, #-4
 277 0124 04B04CE2 		sub	fp, ip, #4
 278              		.cfi_offset 14, -8
 279              		.cfi_offset 13, -12
 280              		.cfi_offset 11, -16
 281              	.LCFI5:
 282              		.cfi_def_cfa 11, 4
 161:../mindows/mds_core_c.c ****     gpstrNextTaskSpAddr = &pstrTcb->strStackReg;
 283              		.loc 1 161 0
 284 0128 000081E5 		str	r0, [r1, #0]
 164:../mindows/mds_core_c.c ****     gpstrCurTcb = pstrTcb;
 285              		.loc 1 164 0
 286 012c 000083E5 		str	r0, [r3, #0]
 166:../mindows/mds_core_c.c ****     MDS_SwitchToTask();
 287              		.loc 1 166 0
 288 0130 FEFFFFEB 		bl	MDS_SwitchToTask
 289              	.LVL14:
 167:../mindows/mds_core_c.c **** }
 290              		.loc 1 167 0
 291 0134 0CD04BE2 		sub	sp, fp, #12
 292 0138 00689DE8 		ldmfd	sp, {fp, sp, lr}
 293 013c 1EFF2FE1 		bx	lr
 294              	.L13:
 295              		.align	2
 296              	.L12:
 297 0140 00000000 		.word	gpstrNextTaskSpAddr
 298 0144 00000000 		.word	gpstrCurTcb
 299              		.cfi_endproc
 300              	.LFE5:
 301              		.fnend
 302              		.size	MDS_TaskStart, .-MDS_TaskStart
 303              		.align	2
 304              		.global	main
 305              		.type	main, %function
ARM GAS  C:\DOCUME~1\ADMINI~1\LOCALS~1\Temp\cc1Hp51A.s 			page 23


 306              	main:
 307              		.fnstart
 308              	.LFB0:
  49:../mindows/mds_core_c.c **** {
 309              		.loc 1 49 0
 310              		.cfi_startproc
 311              		@ Function supports interworking.
 312              		@ args = 0, pretend = 0, frame = 0
 313              		@ frame_needed = 1, uses_anonymous_args = 0
 314              		.movsp ip
 315 0148 0DC0A0E1 		mov	ip, sp
 316              	.LCFI6:
 317              		.cfi_def_cfa_register 12
 318 014c 30D82DE9 		stmfd	sp!, {r4, r5, fp, ip, lr, pc}
 319              		.pad #4
 320              		.save {r4, r5, fp, ip, lr}
 321              		.setfp fp, ip, #-4
 322 0150 04B04CE2 		sub	fp, ip, #4
 323              		.cfi_offset 14, -8
 324              		.cfi_offset 13, -12
 325              		.cfi_offset 11, -16
 326              		.cfi_offset 5, -20
 327              		.cfi_offset 4, -24
 328              	.LCFI7:
 329              		.cfi_def_cfa 11, 4
 330              		.pad #8
 331 0154 08D04DE2 		sub	sp, sp, #8
  51:../mindows/mds_core_c.c ****     MDS_SystemVarInit();
 332              		.loc 1 51 0
 333 0158 FEFFFFEB 		bl	MDS_SystemVarInit
  54:../mindows/mds_core_c.c ****     gpstrRootTaskTcb = MDS_TaskCreate((U8*)"Root", (VFUNC)MDS_RootTask,
 334              		.loc 1 54 0
 335 015c 0040A0E3 		mov	r4, #0
 336 0160 5C109FE5 		ldr	r1, .L15
 337 0164 5C209FE5 		ldr	r2, .L15+4
 338 0168 963FA0E3 		mov	r3, #600
 339 016c 58009FE5 		ldr	r0, .L15+8
 340 0170 00408DE5 		str	r4, [sp, #0]
 341 0174 04408DE5 		str	r4, [sp, #4]
 342 0178 FEFFFFEB 		bl	MDS_TaskCreate
 343 017c 4C509FE5 		ldr	r5, .L15+12
  58:../mindows/mds_core_c.c ****     gpstrIdleTaskTcb = MDS_TaskCreate((U8*)"Idle", (VFUNC)MDS_IdleTask,
 344              		.loc 1 58 0
 345 0180 07C0A0E3 		mov	ip, #7
 346 0184 48109FE5 		ldr	r1, .L15+16
  54:../mindows/mds_core_c.c ****     gpstrRootTaskTcb = MDS_TaskCreate((U8*)"Root", (VFUNC)MDS_RootTask,
 347              		.loc 1 54 0
 348 0188 000085E5 		str	r0, [r5, #0]
  58:../mindows/mds_core_c.c ****     gpstrIdleTaskTcb = MDS_TaskCreate((U8*)"Idle", (VFUNC)MDS_IdleTask,
 349              		.loc 1 58 0
 350 018c 44209FE5 		ldr	r2, .L15+20
 351 0190 963FA0E3 		mov	r3, #600
 352 0194 40009FE5 		ldr	r0, .L15+24
 353 0198 00C08DE5 		str	ip, [sp, #0]
 354 019c 04408DE5 		str	r4, [sp, #4]
 355 01a0 FEFFFFEB 		bl	MDS_TaskCreate
 356 01a4 34309FE5 		ldr	r3, .L15+28
ARM GAS  C:\DOCUME~1\ADMINI~1\LOCALS~1\Temp\cc1Hp51A.s 			page 24


 357 01a8 000083E5 		str	r0, [r3, #0]
  62:../mindows/mds_core_c.c ****     MDS_TaskStart(gpstrRootTaskTcb);
 358              		.loc 1 62 0
 359 01ac 000095E5 		ldr	r0, [r5, #0]
 360 01b0 FEFFFFEB 		bl	MDS_TaskStart
  65:../mindows/mds_core_c.c **** }
 361              		.loc 1 65 0
 362 01b4 0400A0E1 		mov	r0, r4
 363 01b8 14D04BE2 		sub	sp, fp, #20
 364 01bc 30689DE8 		ldmfd	sp, {r4, r5, fp, sp, lr}
 365 01c0 1EFF2FE1 		bx	lr
 366              	.L16:
 367              		.align	2
 368              	.L15:
 369 01c4 00000000 		.word	MDS_RootTask
 370 01c8 00000000 		.word	gaucRootTaskStack
 371 01cc 00000000 		.word	.LC0
 372 01d0 00000000 		.word	gpstrRootTaskTcb
 373 01d4 00000000 		.word	MDS_IdleTask
 374 01d8 00000000 		.word	gaucIdleTaskStack
 375 01dc 08000000 		.word	.LC1
 376 01e0 00000000 		.word	gpstrIdleTaskTcb
 377              		.cfi_endproc
 378              	.LFE0:
 379              		.fnend
 380              		.size	main, .-main
 381              		.align	2
 382              		.global	MDS_TaskSchedTabInit
 383              		.type	MDS_TaskSchedTabInit, %function
 384              	MDS_TaskSchedTabInit:
 385              		.fnstart
 386              	.LFB6:
 175:../mindows/mds_core_c.c **** {
 387              		.loc 1 175 0
 388              		.cfi_startproc
 389              		@ Function supports interworking.
 390              		@ args = 0, pretend = 0, frame = 0
 391              		@ frame_needed = 0, uses_anonymous_args = 0
 392              		@ link register save eliminated.
 393              	.LVL15:
 394              	.LBB106:
 395              	.LBB107:
 909:../mindows/mds_core_c.c ****     pstrChain->pstrHead = (M_CHAIN*)NULL;
 396              		.loc 1 909 0
 397 01e4 0030A0E3 		mov	r3, #0
 398 01e8 003080E5 		str	r3, [r0, #0]
 399              		.loc 1 910 0
 400 01ec 043080E5 		str	r3, [r0, #4]
 401              	.LVL16:
 909:../mindows/mds_core_c.c ****     pstrChain->pstrHead = (M_CHAIN*)NULL;
 402              		.loc 1 909 0
 403 01f0 083080E5 		str	r3, [r0, #8]
 404              		.loc 1 910 0
 405 01f4 0C3080E5 		str	r3, [r0, #12]
 406              	.LVL17:
 909:../mindows/mds_core_c.c ****     pstrChain->pstrHead = (M_CHAIN*)NULL;
 407              		.loc 1 909 0
ARM GAS  C:\DOCUME~1\ADMINI~1\LOCALS~1\Temp\cc1Hp51A.s 			page 25


 408 01f8 103080E5 		str	r3, [r0, #16]
 409              		.loc 1 910 0
 410 01fc 143080E5 		str	r3, [r0, #20]
 411              	.LVL18:
 909:../mindows/mds_core_c.c ****     pstrChain->pstrHead = (M_CHAIN*)NULL;
 412              		.loc 1 909 0
 413 0200 183080E5 		str	r3, [r0, #24]
 414              		.loc 1 910 0
 415 0204 1C3080E5 		str	r3, [r0, #28]
 416              	.LVL19:
 909:../mindows/mds_core_c.c ****     pstrChain->pstrHead = (M_CHAIN*)NULL;
 417              		.loc 1 909 0
 418 0208 203080E5 		str	r3, [r0, #32]
 419              		.loc 1 910 0
 420 020c 243080E5 		str	r3, [r0, #36]
 421              	.LVL20:
 909:../mindows/mds_core_c.c ****     pstrChain->pstrHead = (M_CHAIN*)NULL;
 422              		.loc 1 909 0
 423 0210 283080E5 		str	r3, [r0, #40]
 424              		.loc 1 910 0
 425 0214 2C3080E5 		str	r3, [r0, #44]
 426              	.LVL21:
 909:../mindows/mds_core_c.c ****     pstrChain->pstrHead = (M_CHAIN*)NULL;
 427              		.loc 1 909 0
 428 0218 303080E5 		str	r3, [r0, #48]
 429              		.loc 1 910 0
 430 021c 343080E5 		str	r3, [r0, #52]
 431              	.LVL22:
 909:../mindows/mds_core_c.c ****     pstrChain->pstrHead = (M_CHAIN*)NULL;
 432              		.loc 1 909 0
 433 0220 383080E5 		str	r3, [r0, #56]
 434              		.loc 1 910 0
 435 0224 3C3080E5 		str	r3, [r0, #60]
 436              	.LVL23:
 437              	.LBE107:
 438              	.LBE106:
 210:../mindows/mds_core_c.c ****     pstrSchedTab->strFlag.ucPrioFlagGrp1 = 0;
 439              		.loc 1 210 0
 440 0228 4030C0E5 		strb	r3, [r0, #64]
 213:../mindows/mds_core_c.c **** }
 441              		.loc 1 213 0
 442 022c 1EFF2FE1 		bx	lr
 443              		.cfi_endproc
 444              	.LFE6:
 445              		.fnend
 446              		.size	MDS_TaskSchedTabInit, .-MDS_TaskSchedTabInit
 447              		.align	2
 448              		.global	MDS_TaskAddToSchedTab
 449              		.type	MDS_TaskAddToSchedTab, %function
 450              	MDS_TaskAddToSchedTab:
 451              		.fnstart
 452              	.LFB7:
 225:../mindows/mds_core_c.c **** {
 453              		.loc 1 225 0
 454              		.cfi_startproc
 455              		@ Function supports interworking.
 456              		@ args = 0, pretend = 0, frame = 0
ARM GAS  C:\DOCUME~1\ADMINI~1\LOCALS~1\Temp\cc1Hp51A.s 			page 26


 457              		@ frame_needed = 0, uses_anonymous_args = 0
 458              		@ link register save eliminated.
 459              	.LVL24:
 460              	.LBB108:
 461              	.LBB109:
 911:../mindows/mds_core_c.c **** }
 912:../mindows/mds_core_c.c **** 
 913:../mindows/mds_core_c.c **** /***********************************************************************************
 914:../mindows/mds_core_c.c **** 函数功能: 向链表添加一个节点, 从链表尾部加入.
 915:../mindows/mds_core_c.c **** 入口参数: pstrChain: 链表根节点指针.
 916:../mindows/mds_core_c.c ****           pstrNode: 加入的节点指针.
 917:../mindows/mds_core_c.c **** 返 回 值: none.
 918:../mindows/mds_core_c.c **** ***********************************************************************************/
 919:../mindows/mds_core_c.c **** void MDS_ChainNodeAdd(M_CHAIN* pstrChain, M_CHAIN* pstrNode)
 920:../mindows/mds_core_c.c **** {
 921:../mindows/mds_core_c.c ****     /* 链表非空 */
 922:../mindows/mds_core_c.c ****     if(NULL != pstrChain->pstrTail)
 462              		.loc 1 922 0
 463 0230 04C090E5 		ldr	ip, [r0, #4]
 464 0234 00005CE3 		cmp	ip, #0
 465              	.LVL25:
 923:../mindows/mds_core_c.c ****     {
 924:../mindows/mds_core_c.c ****         /* 新节点的头指向原尾节点 */
 925:../mindows/mds_core_c.c ****         pstrNode->pstrHead = pstrChain->pstrHead;
 466              		.loc 1 925 0
 467 0238 00C09015 		ldrne	ip, [r0, #0]
 468 023c 00C08115 		strne	ip, [r1, #0]
 926:../mindows/mds_core_c.c **** 
 927:../mindows/mds_core_c.c ****         /* 新节点的尾指向根节点 */
 928:../mindows/mds_core_c.c ****         pstrNode->pstrTail = pstrChain;
 929:../mindows/mds_core_c.c **** 
 930:../mindows/mds_core_c.c ****         /* 原尾节点的尾指向新节点 */
 931:../mindows/mds_core_c.c ****         pstrChain->pstrHead->pstrTail = pstrNode;
 469              		.loc 1 931 0
 470 0240 00C09015 		ldrne	ip, [r0, #0]
 928:../mindows/mds_core_c.c ****         pstrNode->pstrTail = pstrChain;
 471              		.loc 1 928 0
 472 0244 04008115 		strne	r0, [r1, #4]
 932:../mindows/mds_core_c.c **** 
 933:../mindows/mds_core_c.c ****         /* 根节点的头指向新加入的节点 */
 934:../mindows/mds_core_c.c ****         pstrChain->pstrHead = pstrNode;
 935:../mindows/mds_core_c.c ****     }
 936:../mindows/mds_core_c.c ****     else /* 链表为空 */
 937:../mindows/mds_core_c.c ****     {
 938:../mindows/mds_core_c.c ****         /* 新节点的头尾都指向根节点 */
 939:../mindows/mds_core_c.c ****         pstrNode->pstrHead = pstrChain;
 473              		.loc 1 939 0
 474 0248 00008105 		streq	r0, [r1, #0]
 940:../mindows/mds_core_c.c ****         pstrNode->pstrTail = pstrChain;
 475              		.loc 1 940 0
 476 024c 04008105 		streq	r0, [r1, #4]
 934:../mindows/mds_core_c.c ****         pstrChain->pstrHead = pstrNode;
 477              		.loc 1 934 0
 478 0250 00108015 		strne	r1, [r0, #0]
 941:../mindows/mds_core_c.c **** 
 942:../mindows/mds_core_c.c ****         /* 根节点的头尾都指向新节点 */
 943:../mindows/mds_core_c.c ****         pstrChain->pstrHead = pstrNode;
ARM GAS  C:\DOCUME~1\ADMINI~1\LOCALS~1\Temp\cc1Hp51A.s 			page 27


 479              		.loc 1 943 0
 480 0254 00108005 		streq	r1, [r0, #0]
 944:../mindows/mds_core_c.c ****         pstrChain->pstrTail = pstrNode;
 481              		.loc 1 944 0
 482 0258 04108005 		streq	r1, [r0, #4]
 483              	.LVL26:
 931:../mindows/mds_core_c.c ****         pstrChain->pstrHead->pstrTail = pstrNode;
 484              		.loc 1 931 0
 485 025c 04108C15 		strne	r1, [ip, #4]
 486              	.LBE109:
 487              	.LBE108:
 488              	.LBB110:
 489              	.LBB111:
 682:../mindows/mds_core_c.c ****     pstrPrioFlag->ucPrioFlagGrp1 |= (U8)(1 << ucTaskPrio);
 490              		.loc 1 682 0
 491 0260 0010D2E5 		ldrb	r1, [r2, #0]	@ zero_extendqisi2
 492              	.LVL27:
 493 0264 0100A0E3 		mov	r0, #1
 494              	.LVL28:
 495 0268 103381E1 		orr	r3, r1, r0, asl r3
 496              	.LVL29:
 497 026c 0030C2E5 		strb	r3, [r2, #0]
 498              	.LBE111:
 499              	.LBE110:
 231:../mindows/mds_core_c.c **** }
 500              		.loc 1 231 0
 501 0270 1EFF2FE1 		bx	lr
 502              		.cfi_endproc
 503              	.LFE7:
 504              		.fnend
 505              		.size	MDS_TaskAddToSchedTab, .-MDS_TaskAddToSchedTab
 506              		.align	2
 507              		.global	MDS_TaskAddToDelayTab
 508              		.type	MDS_TaskAddToDelayTab, %function
 509              	MDS_TaskAddToDelayTab:
 510              		.fnstart
 511              	.LFB8:
 239:../mindows/mds_core_c.c **** {
 512              		.loc 1 239 0
 513              		.cfi_startproc
 514              		@ Function supports interworking.
 515              		@ args = 0, pretend = 0, frame = 0
 516              		@ frame_needed = 0, uses_anonymous_args = 0
 517              		@ link register save eliminated.
 518              	.LVL30:
 519              	.LBB112:
 520              	.LBB113:
 945:../mindows/mds_core_c.c ****     }
 946:../mindows/mds_core_c.c **** }
 947:../mindows/mds_core_c.c **** 
 948:../mindows/mds_core_c.c **** /***********************************************************************************
 949:../mindows/mds_core_c.c **** 函数功能: 从链表删除一个节点, 从链表头部删除.
 950:../mindows/mds_core_c.c **** 入口参数: pstrChain: 链表根节点指针.
 951:../mindows/mds_core_c.c **** 返 回 值: 删除的节点指针, 若链表为空则返回NULL.
 952:../mindows/mds_core_c.c **** ***********************************************************************************/
 953:../mindows/mds_core_c.c **** M_CHAIN* MDS_ChainNodeDelete(M_CHAIN* pstrChain)
 954:../mindows/mds_core_c.c **** {
ARM GAS  C:\DOCUME~1\ADMINI~1\LOCALS~1\Temp\cc1Hp51A.s 			page 28


 955:../mindows/mds_core_c.c ****     M_CHAIN* pstrTempNode;
 956:../mindows/mds_core_c.c **** 
 957:../mindows/mds_core_c.c ****     /* 链表中的第一个节点 */
 958:../mindows/mds_core_c.c ****     pstrTempNode = pstrChain->pstrTail;
 959:../mindows/mds_core_c.c **** 
 960:../mindows/mds_core_c.c ****     /* 链表非空 */
 961:../mindows/mds_core_c.c ****     if(NULL != pstrTempNode)
 962:../mindows/mds_core_c.c ****     {
 963:../mindows/mds_core_c.c ****         /* 链表中有多个节点 */
 964:../mindows/mds_core_c.c ****         if(pstrChain->pstrHead != pstrChain->pstrTail)
 965:../mindows/mds_core_c.c ****         {
 966:../mindows/mds_core_c.c ****             /* 根节点的尾指向第二个节点 */
 967:../mindows/mds_core_c.c ****             pstrChain->pstrTail = pstrTempNode->pstrTail;
 968:../mindows/mds_core_c.c **** 
 969:../mindows/mds_core_c.c ****             /* 第二个节点的头指向根节点 */
 970:../mindows/mds_core_c.c ****             pstrTempNode->pstrTail->pstrHead = pstrChain;
 971:../mindows/mds_core_c.c ****         }
 972:../mindows/mds_core_c.c ****         else /* 链表中只有一个节点 */
 973:../mindows/mds_core_c.c ****         {
 974:../mindows/mds_core_c.c ****             /* 取出节点后链表为空 */
 975:../mindows/mds_core_c.c ****             pstrChain->pstrHead = (M_CHAIN*)NULL;
 976:../mindows/mds_core_c.c ****             pstrChain->pstrTail = (M_CHAIN*)NULL;
 977:../mindows/mds_core_c.c ****         }
 978:../mindows/mds_core_c.c **** 
 979:../mindows/mds_core_c.c ****         /* 返回取出的节点指针 */
 980:../mindows/mds_core_c.c ****         return pstrTempNode;
 981:../mindows/mds_core_c.c ****     }
 982:../mindows/mds_core_c.c ****     else /* 链表为空返回NULL */
 983:../mindows/mds_core_c.c ****     {
 984:../mindows/mds_core_c.c ****         return (M_CHAIN*)NULL;
 985:../mindows/mds_core_c.c ****     }
 986:../mindows/mds_core_c.c **** }
 987:../mindows/mds_core_c.c **** 
 988:../mindows/mds_core_c.c **** /***********************************************************************************
 989:../mindows/mds_core_c.c **** 函数功能: 向链表指定的节点前插入一个节点.
 990:../mindows/mds_core_c.c **** 入口参数: pstrChain: 链表根节点指针.
 991:../mindows/mds_core_c.c ****           pstrNode: 基准节点指针, 将新节点插到该节点前面.
 992:../mindows/mds_core_c.c ****           pstrNewNode: 新插入节点的指针.
 993:../mindows/mds_core_c.c **** 返 回 值: none.
 994:../mindows/mds_core_c.c **** ***********************************************************************************/
 995:../mindows/mds_core_c.c **** void MDS_ChainCurNodeInsert(M_CHAIN* pstrChain, M_CHAIN* pstrNode,
 996:../mindows/mds_core_c.c ****                             M_CHAIN* pstrNewNode)
 997:../mindows/mds_core_c.c **** {
 998:../mindows/mds_core_c.c ****     /* 基准节点不是根节点 */
 999:../mindows/mds_core_c.c ****     if(pstrChain != pstrNode)
1000:../mindows/mds_core_c.c ****     {
1001:../mindows/mds_core_c.c ****         /* 基准节点的上个节点的尾指向新节点 */
1002:../mindows/mds_core_c.c ****         pstrNode->pstrHead->pstrTail = pstrNewNode;
1003:../mindows/mds_core_c.c **** 
1004:../mindows/mds_core_c.c ****         /* 新节点的头指向基准节点的上个节点 */
1005:../mindows/mds_core_c.c ****         pstrNewNode->pstrHead = pstrNode->pstrHead;
1006:../mindows/mds_core_c.c **** 
1007:../mindows/mds_core_c.c ****         /* 新节点的尾指向基准节点 */
1008:../mindows/mds_core_c.c ****         pstrNewNode->pstrTail = pstrNode;
1009:../mindows/mds_core_c.c **** 
1010:../mindows/mds_core_c.c ****         /* 基准节点的头指向新节点 */
1011:../mindows/mds_core_c.c ****         pstrNode->pstrHead = pstrNewNode;
ARM GAS  C:\DOCUME~1\ADMINI~1\LOCALS~1\Temp\cc1Hp51A.s 			page 29


1012:../mindows/mds_core_c.c ****     }
1013:../mindows/mds_core_c.c ****     else /* 基准节点是根节点 */
1014:../mindows/mds_core_c.c ****     {
1015:../mindows/mds_core_c.c ****         MDS_ChainNodeAdd(pstrChain, pstrNewNode);
1016:../mindows/mds_core_c.c ****     }
1017:../mindows/mds_core_c.c **** }
1018:../mindows/mds_core_c.c **** 
1019:../mindows/mds_core_c.c **** /***********************************************************************************
1020:../mindows/mds_core_c.c **** 函数功能: 从链表删除指定的节点, 并返回下个节点的指针.
1021:../mindows/mds_core_c.c **** 入口参数: pstrChain: 链表根节点指针.
1022:../mindows/mds_core_c.c ****           pstrNode: 要删除的节点的指针.
1023:../mindows/mds_core_c.c **** 返 回 值: 删除节点的下个节点指针, 若没有下个节点则返回NULL.
1024:../mindows/mds_core_c.c **** ***********************************************************************************/
1025:../mindows/mds_core_c.c **** M_CHAIN* MDS_ChainCurNodeDelete(M_CHAIN* pstrChain, M_CHAIN* pstrNode)
1026:../mindows/mds_core_c.c **** {
1027:../mindows/mds_core_c.c ****     /* 要删除的节点不是根节点 */
1028:../mindows/mds_core_c.c ****     if(pstrChain != pstrNode)
1029:../mindows/mds_core_c.c ****     {
1030:../mindows/mds_core_c.c ****         /* 链表中有多个节点 */
1031:../mindows/mds_core_c.c ****         if((pstrNode->pstrHead != pstrChain) || (pstrNode->pstrTail != pstrChain))
1032:../mindows/mds_core_c.c ****         {
1033:../mindows/mds_core_c.c ****             /* 要删除节点的上个节点的尾指向要删除节点的下个节点 */
1034:../mindows/mds_core_c.c ****             pstrNode->pstrHead->pstrTail = pstrNode->pstrTail;
1035:../mindows/mds_core_c.c **** 
1036:../mindows/mds_core_c.c ****             /* 要删除节点的下个节点的头指向要删除节点的上个节点 */
1037:../mindows/mds_core_c.c ****             pstrNode->pstrTail->pstrHead = pstrNode->pstrHead;
1038:../mindows/mds_core_c.c **** 
1039:../mindows/mds_core_c.c ****             /* 返回删除节点的下个节点指针 */
1040:../mindows/mds_core_c.c ****             return pstrNode->pstrTail;
1041:../mindows/mds_core_c.c ****         }
1042:../mindows/mds_core_c.c ****         else /* 链表中只有一个节点 */
1043:../mindows/mds_core_c.c ****         {
1044:../mindows/mds_core_c.c ****             (void)MDS_ChainNodeDelete(pstrChain);
1045:../mindows/mds_core_c.c **** 
1046:../mindows/mds_core_c.c ****             /* 没有下个节点, 返回NULL */
1047:../mindows/mds_core_c.c ****             return (M_CHAIN*)NULL;
1048:../mindows/mds_core_c.c ****         }
1049:../mindows/mds_core_c.c ****     }
1050:../mindows/mds_core_c.c ****     else /* 删除根节点直接返回NULL */
1051:../mindows/mds_core_c.c ****     {
1052:../mindows/mds_core_c.c ****         return (M_CHAIN*)NULL;
1053:../mindows/mds_core_c.c ****     }
1054:../mindows/mds_core_c.c **** }
1055:../mindows/mds_core_c.c **** 
1056:../mindows/mds_core_c.c **** /***********************************************************************************
1057:../mindows/mds_core_c.c **** 函数功能: 查询链表是否为空.
1058:../mindows/mds_core_c.c **** 入口参数: pstrChain: 链表根节点指针.
1059:../mindows/mds_core_c.c **** 返 回 值: 若非空则返回第一个节点的指针, 若空则返回NULL.
1060:../mindows/mds_core_c.c **** ***********************************************************************************/
1061:../mindows/mds_core_c.c **** M_CHAIN* MDS_ChainEmpInq(M_CHAIN* pstrChain)
1062:../mindows/mds_core_c.c **** {
1063:../mindows/mds_core_c.c ****     return pstrChain->pstrTail;
 521              		.loc 1 1063 0
 522 0274 D4209FE5 		ldr	r2, .L43
 523 0278 043092E5 		ldr	r3, [r2, #4]
 524              	.LBE113:
 525              	.LBE112:
ARM GAS  C:\DOCUME~1\ADMINI~1\LOCALS~1\Temp\cc1Hp51A.s 			page 30


 250:../mindows/mds_core_c.c ****     if(NULL != pstrTempNode)
 526              		.loc 1 250 0
 527 027c 000053E3 		cmp	r3, #0
 239:../mindows/mds_core_c.c **** {
 528              		.loc 1 239 0
 529 0280 04402DE5 		str	r4, [sp, #-4]!
 530              		.save {r4}
 531              	.LCFI8:
 532              		.cfi_def_cfa_offset 4
 250:../mindows/mds_core_c.c ****     if(NULL != pstrTempNode)
 533              		.loc 1 250 0
 534 0284 2C00000A 		beq	.L22
 535              		.cfi_offset 4, -4
 536              	.LVL31:
 254:../mindows/mds_core_c.c ****         uiStillTick = pstrDelayQue->pstrTcb->uiStillTick;
 537              		.loc 1 254 0
 538 0288 084090E5 		ldr	r4, [r0, #8]
 266:../mindows/mds_core_c.c ****                 if(uiStillTick > guiTick)
 539              		.loc 1 266 0
 540 028c C0109FE5 		ldr	r1, .L43+4
 254:../mindows/mds_core_c.c ****         uiStillTick = pstrDelayQue->pstrTcb->uiStillTick;
 541              		.loc 1 254 0
 542 0290 74C094E5 		ldr	ip, [r4, #116]
 543              	.LVL32:
 266:../mindows/mds_core_c.c ****                 if(uiStillTick > guiTick)
 544              		.loc 1 266 0
 545 0294 004091E5 		ldr	r4, [r1, #0]
 546 0298 090000EA 		b	.L31
 547              	.LVL33:
 548              	.L41:
 549 029c 04005CE1 		cmp	ip, r4
 550 02a0 1900008A 		bhi	.L36
 272:../mindows/mds_core_c.c ****                 else if(uiStillTick < guiTick)
 551              		.loc 1 272 0
 552 02a4 0100002A 		bcs	.L27
 553              	.L39:
 287:../mindows/mds_core_c.c ****                     if(guiTick > uiTempStillTick)
 554              		.loc 1 287 0
 555 02a8 040051E1 		cmp	r1, r4
 556 02ac 1600003A 		bcc	.L36
 557              	.L27:
 558              	.LVL34:
 559              	.LBB114:
 560              	.LBB115:
1064:../mindows/mds_core_c.c **** }
1065:../mindows/mds_core_c.c **** 
1066:../mindows/mds_core_c.c **** /***********************************************************************************
1067:../mindows/mds_core_c.c **** 函数功能: 查询链表中指定节点的下一个节点是否为空.
1068:../mindows/mds_core_c.c **** 入口参数: pstrChain: 链表根节点指针.
1069:../mindows/mds_core_c.c ****           pstrNode: 基准节点指针, 查询该节点的下一个节点.
1070:../mindows/mds_core_c.c **** 返 回 值: 若指定节点的下一个节点非空则返回下一个节点的指针, 若空则返回NULL.
1071:../mindows/mds_core_c.c **** ***********************************************************************************/
1072:../mindows/mds_core_c.c **** M_CHAIN* MDS_ChainNextNodeEmpInq(M_CHAIN* pstrChain, M_CHAIN* pstrNode)
1073:../mindows/mds_core_c.c **** {
1074:../mindows/mds_core_c.c ****     /* 基准节点是最后一个节点则返回NULL */
1075:../mindows/mds_core_c.c ****     if(pstrNode->pstrTail == pstrChain)
 561              		.loc 1 1075 0
ARM GAS  C:\DOCUME~1\ADMINI~1\LOCALS~1\Temp\cc1Hp51A.s 			page 31


 562 02b0 043093E5 		ldr	r3, [r3, #4]
 563              	.LVL35:
 564 02b4 020053E1 		cmp	r3, r2
 565 02b8 0B00000A 		beq	.L30
 566              	.L42:
 567              	.LBE115:
 568              	.LBE114:
 302:../mindows/mds_core_c.c ****             if(NULL == pstrNextNode)
 569              		.loc 1 302 0
 570 02bc 000053E3 		cmp	r3, #0
 571 02c0 0900000A 		beq	.L30
 572              	.LVL36:
 573              	.L31:
 261:../mindows/mds_core_c.c ****             uiTempStillTick = pstrDelayQue->pstrTcb->uiStillTick;
 574              		.loc 1 261 0
 575 02c4 081093E5 		ldr	r1, [r3, #8]
 576 02c8 741091E5 		ldr	r1, [r1, #116]
 577              	.LVL37:
 264:../mindows/mds_core_c.c ****             if(uiStillTick < uiTempStillTick)
 578              		.loc 1 264 0
 579 02cc 01005CE1 		cmp	ip, r1
 580 02d0 F1FFFF3A 		bcc	.L41
 283:../mindows/mds_core_c.c ****             else if(uiStillTick > uiTempStillTick)
 581              		.loc 1 283 0
 582 02d4 F5FFFF9A 		bls	.L27
 285:../mindows/mds_core_c.c ****                 if(uiStillTick > guiTick)
 583              		.loc 1 285 0
 584 02d8 04005CE1 		cmp	ip, r4
 585 02dc F1FFFF8A 		bhi	.L39
 586              	.LVL38:
 587              	.LBB117:
 588              	.LBB116:
 589              		.loc 1 1075 0
 590 02e0 043093E5 		ldr	r3, [r3, #4]
 591              	.LVL39:
 592 02e4 020053E1 		cmp	r3, r2
 593 02e8 F3FFFF1A 		bne	.L42
 594              	.L30:
 595              	.LVL40:
 596              	.LBE116:
 597              	.LBE117:
 598              	.LBB118:
 599              	.LBB119:
 925:../mindows/mds_core_c.c ****         pstrNode->pstrHead = pstrChain->pstrHead;
 600              		.loc 1 925 0
 601 02ec 00C092E5 		ldr	ip, [r2, #0]
 602 02f0 00C080E5 		str	ip, [r0, #0]
 931:../mindows/mds_core_c.c ****         pstrChain->pstrHead->pstrTail = pstrNode;
 603              		.loc 1 931 0
 604 02f4 003092E5 		ldr	r3, [r2, #0]
 928:../mindows/mds_core_c.c ****         pstrNode->pstrTail = pstrChain;
 605              		.loc 1 928 0
 606 02f8 042080E5 		str	r2, [r0, #4]
 934:../mindows/mds_core_c.c ****         pstrChain->pstrHead = pstrNode;
 607              		.loc 1 934 0
 608 02fc 000082E5 		str	r0, [r2, #0]
 931:../mindows/mds_core_c.c ****         pstrChain->pstrHead->pstrTail = pstrNode;
ARM GAS  C:\DOCUME~1\ADMINI~1\LOCALS~1\Temp\cc1Hp51A.s 			page 32


 609              		.loc 1 931 0
 610 0300 040083E5 		str	r0, [r3, #4]
 611              	.LVL41:
 612              	.L21:
 613              	.LBE119:
 614              	.LBE118:
 320:../mindows/mds_core_c.c **** }
 615              		.loc 1 320 0
 616 0304 04409DE4 		ldmfd	sp!, {r4}
 617 0308 1EFF2FE1 		bx	lr
 618              	.LVL42:
 619              	.L36:
 620              	.LBB120:
 621              	.LBB121:
 999:../mindows/mds_core_c.c ****     if(pstrChain != pstrNode)
 622              		.loc 1 999 0
 623 030c 020053E1 		cmp	r3, r2
1002:../mindows/mds_core_c.c ****         pstrNode->pstrHead->pstrTail = pstrNewNode;
 624              		.loc 1 1002 0
 625 0310 002093E5 		ldr	r2, [r3, #0]
 626              	.LBB122:
 627              	.LBB124:
 925:../mindows/mds_core_c.c ****         pstrNode->pstrHead = pstrChain->pstrHead;
 628              		.loc 1 925 0
 629 0314 00208005 		streq	r2, [r0, #0]
 931:../mindows/mds_core_c.c ****         pstrChain->pstrHead->pstrTail = pstrNode;
 630              		.loc 1 931 0
 631 0318 00209305 		ldreq	r2, [r3, #0]
 632              	.LBE124:
 633              	.LBE122:
1002:../mindows/mds_core_c.c ****         pstrNode->pstrHead->pstrTail = pstrNewNode;
 634              		.loc 1 1002 0
 635 031c 04008215 		strne	r0, [r2, #4]
 636              	.LBB127:
 637              	.LBB125:
 928:../mindows/mds_core_c.c ****         pstrNode->pstrTail = pstrChain;
 638              		.loc 1 928 0
 639 0320 04308005 		streq	r3, [r0, #4]
 640              	.LBE125:
 641              	.LBE127:
1005:../mindows/mds_core_c.c ****         pstrNewNode->pstrHead = pstrNode->pstrHead;
 642              		.loc 1 1005 0
 643 0324 00208015 		strne	r2, [r0, #0]
1008:../mindows/mds_core_c.c ****         pstrNewNode->pstrTail = pstrNode;
 644              		.loc 1 1008 0
 645 0328 04308015 		strne	r3, [r0, #4]
 646              	.LBB128:
 647              	.LBB123:
 934:../mindows/mds_core_c.c ****         pstrChain->pstrHead = pstrNode;
 648              		.loc 1 934 0
 649 032c 00008305 		streq	r0, [r3, #0]
 650              	.LBE123:
 651              	.LBE128:
1011:../mindows/mds_core_c.c ****         pstrNode->pstrHead = pstrNewNode;
 652              		.loc 1 1011 0
 653 0330 00008315 		strne	r0, [r3, #0]
 654              	.LVL43:
ARM GAS  C:\DOCUME~1\ADMINI~1\LOCALS~1\Temp\cc1Hp51A.s 			page 33


 655              	.LBB129:
 656              	.LBB126:
 931:../mindows/mds_core_c.c ****         pstrChain->pstrHead->pstrTail = pstrNode;
 657              		.loc 1 931 0
 658 0334 04008205 		streq	r0, [r2, #4]
 659 0338 F1FFFFEA 		b	.L21
 660              	.LVL44:
 661              	.L22:
 662              	.LBE126:
 663              	.LBE129:
 664              	.LBE121:
 665              	.LBE120:
 666              	.LBB130:
 667              	.LBB131:
 939:../mindows/mds_core_c.c ****         pstrNode->pstrHead = pstrChain;
 668              		.loc 1 939 0
 669 033c 002080E5 		str	r2, [r0, #0]
 940:../mindows/mds_core_c.c ****         pstrNode->pstrTail = pstrChain;
 670              		.loc 1 940 0
 671 0340 042080E5 		str	r2, [r0, #4]
 943:../mindows/mds_core_c.c ****         pstrChain->pstrHead = pstrNode;
 672              		.loc 1 943 0
 673 0344 000082E5 		str	r0, [r2, #0]
 944:../mindows/mds_core_c.c ****         pstrChain->pstrTail = pstrNode;
 674              		.loc 1 944 0
 675 0348 040082E5 		str	r0, [r2, #4]
 676 034c ECFFFFEA 		b	.L21
 677              	.L44:
 678              		.align	2
 679              	.L43:
 680 0350 00000000 		.word	gstrDelayTab
 681 0354 00000000 		.word	guiTick
 682              	.LBE131:
 683              	.LBE130:
 684              		.cfi_endproc
 685              	.LFE8:
 686              		.fnend
 687              		.size	MDS_TaskAddToDelayTab, .-MDS_TaskAddToDelayTab
 688              		.align	2
 689              		.global	MDS_TaskDelFromSchedTab
 690              		.type	MDS_TaskDelFromSchedTab, %function
 691              	MDS_TaskDelFromSchedTab:
 692              		.fnstart
 693              	.LFB9:
 331:../mindows/mds_core_c.c **** {
 694              		.loc 1 331 0
 695              		.cfi_startproc
 696              		@ Function supports interworking.
 697              		@ args = 0, pretend = 0, frame = 0
 698              		@ frame_needed = 0, uses_anonymous_args = 0
 699              		@ link register save eliminated.
 700              	.LVL45:
 701              	.LBB132:
 702              	.LBB134:
 958:../mindows/mds_core_c.c ****     pstrTempNode = pstrChain->pstrTail;
 703              		.loc 1 958 0
 704 0358 043090E5 		ldr	r3, [r0, #4]
ARM GAS  C:\DOCUME~1\ADMINI~1\LOCALS~1\Temp\cc1Hp51A.s 			page 34


 705              	.LVL46:
 961:../mindows/mds_core_c.c ****     if(NULL != pstrTempNode)
 706              		.loc 1 961 0
 707 035c 000053E3 		cmp	r3, #0
 708              	.LBE134:
 709              	.LBE132:
 331:../mindows/mds_core_c.c **** {
 710              		.loc 1 331 0
 711 0360 04402DE5 		str	r4, [sp, #-4]!
 712              		.save {r4}
 713              	.LCFI9:
 714              		.cfi_def_cfa_offset 4
 715              	.LBB137:
 716              	.LBB135:
 961:../mindows/mds_core_c.c ****     if(NULL != pstrTempNode)
 717              		.loc 1 961 0
 718 0364 0E00000A 		beq	.L48
 719              		.cfi_offset 4, -4
 720              	.LVL47:
 964:../mindows/mds_core_c.c ****         if(pstrChain->pstrHead != pstrChain->pstrTail)
 721              		.loc 1 964 0
 722 0368 00C090E5 		ldr	ip, [r0, #0]
 723 036c 0C0053E1 		cmp	r3, ip
 724 0370 0800000A 		beq	.L47
 967:../mindows/mds_core_c.c ****             pstrChain->pstrTail = pstrTempNode->pstrTail;
 725              		.loc 1 967 0
 726 0374 04C093E5 		ldr	ip, [r3, #4]
 727 0378 04C080E5 		str	ip, [r0, #4]
 970:../mindows/mds_core_c.c ****             pstrTempNode->pstrTail->pstrHead = pstrChain;
 728              		.loc 1 970 0
 729 037c 044093E5 		ldr	r4, [r3, #4]
 730              	.LBE135:
 731              	.LBE137:
 338:../mindows/mds_core_c.c ****     if(NULL == MDS_ChainEmpInq(pstrChain))
 732              		.loc 1 338 0
 733 0380 00005CE3 		cmp	ip, #0
 734              	.LBB138:
 735              	.LBB133:
 970:../mindows/mds_core_c.c ****             pstrTempNode->pstrTail->pstrHead = pstrChain;
 736              		.loc 1 970 0
 737 0384 000084E5 		str	r0, [r4, #0]
 738              	.LBE133:
 739              	.LBE138:
 338:../mindows/mds_core_c.c ****     if(NULL == MDS_ChainEmpInq(pstrChain))
 740              		.loc 1 338 0
 741 0388 0500000A 		beq	.L48
 742              	.LVL48:
 743              	.L49:
 345:../mindows/mds_core_c.c **** }
 744              		.loc 1 345 0
 745 038c 0300A0E1 		mov	r0, r3
 746 0390 04409DE4 		ldmfd	sp!, {r4}
 747 0394 1EFF2FE1 		bx	lr
 748              	.LVL49:
 749              	.L47:
 750              	.LBB139:
 751              	.LBB136:
ARM GAS  C:\DOCUME~1\ADMINI~1\LOCALS~1\Temp\cc1Hp51A.s 			page 35


 975:../mindows/mds_core_c.c ****             pstrChain->pstrHead = (M_CHAIN*)NULL;
 752              		.loc 1 975 0
 753 0398 00C0A0E3 		mov	ip, #0
 754 039c 00C080E5 		str	ip, [r0, #0]
 976:../mindows/mds_core_c.c ****             pstrChain->pstrTail = (M_CHAIN*)NULL;
 755              		.loc 1 976 0
 756 03a0 04C080E5 		str	ip, [r0, #4]
 757              	.L48:
 758              	.LVL50:
 759              	.LBE136:
 760              	.LBE139:
 761              	.LBB140:
 762              	.LBB141:
 745:../mindows/mds_core_c.c ****     pstrPrioFlag->ucPrioFlagGrp1 &= ~((U8)(1 << ucTaskPrio));
 763              		.loc 1 745 0
 764 03a4 0000D1E5 		ldrb	r0, [r1, #0]	@ zero_extendqisi2
 765              	.LVL51:
 766 03a8 01C0A0E3 		mov	ip, #1
 767 03ac 1C22C0E1 		bic	r2, r0, ip, asl r2
 768              	.LVL52:
 769 03b0 0020C1E5 		strb	r2, [r1, #0]
 770 03b4 F4FFFFEA 		b	.L49
 771              	.LBE141:
 772              	.LBE140:
 773              		.cfi_endproc
 774              	.LFE9:
 775              		.fnend
 776              		.size	MDS_TaskDelFromSchedTab, .-MDS_TaskDelFromSchedTab
 777              		.align	2
 778              		.global	MDS_TaskAddToSemTab
 779              		.type	MDS_TaskAddToSemTab, %function
 780              	MDS_TaskAddToSemTab:
 781              		.fnstart
 782              	.LFB10:
 354:../mindows/mds_core_c.c **** {
 783              		.loc 1 354 0
 784              		.cfi_startproc
 785              		@ Function supports interworking.
 786              		@ args = 0, pretend = 0, frame = 0
 787              		@ frame_needed = 0, uses_anonymous_args = 0
 788              		@ link register save eliminated.
 789              	.LVL53:
 361:../mindows/mds_core_c.c ****     if(SEMPRIO == (SEMSCHEDOPTMASK & pstrSem->uiSemOpt))
 790              		.loc 1 361 0
 791 03b8 48C091E5 		ldr	ip, [r1, #72]
 792 03bc 03300CE2 		and	r3, ip, #3
 793 03c0 020053E3 		cmp	r3, #2
 354:../mindows/mds_core_c.c **** {
 794              		.loc 1 354 0
 795 03c4 04402DE5 		str	r4, [sp, #-4]!
 796              		.save {r4}
 797              	.LCFI10:
 798              		.cfi_def_cfa_offset 4
 361:../mindows/mds_core_c.c ****     if(SEMPRIO == (SEMSCHEDOPTMASK & pstrSem->uiSemOpt))
 799              		.loc 1 361 0
 800 03c8 0E00000A 		beq	.L56
 801              		.cfi_offset 4, -4
ARM GAS  C:\DOCUME~1\ADMINI~1\LOCALS~1\Temp\cc1Hp51A.s 			page 36


 802              	.LBB142:
 803              	.LBB143:
 922:../mindows/mds_core_c.c ****     if(NULL != pstrChain->pstrTail)
 804              		.loc 1 922 0
 805 03cc 3C3091E5 		ldr	r3, [r1, #60]
 806 03d0 000053E3 		cmp	r3, #0
 925:../mindows/mds_core_c.c ****         pstrNode->pstrHead = pstrChain->pstrHead;
 807              		.loc 1 925 0
 808 03d4 38209115 		ldrne	r2, [r1, #56]
 809              	.LBE143:
 810              	.LBE142:
 376:../mindows/mds_core_c.c ****         pstrNode = &pstrTcb->strTcbQue.strQueHead;
 811              		.loc 1 376 0
 812 03d8 443080E2 		add	r3, r0, #68
 375:../mindows/mds_core_c.c ****         pstrChain = &pstrSem->strSemTab.astrChain[LOWESTPRIO];
 813              		.loc 1 375 0
 814 03dc 38C081E2 		add	ip, r1, #56
 815              	.LVL54:
 816              	.LBB145:
 817              	.LBB144:
 928:../mindows/mds_core_c.c ****         pstrNode->pstrTail = pstrChain;
 818              		.loc 1 928 0
 819 03e0 48C08015 		strne	ip, [r0, #72]
 925:../mindows/mds_core_c.c ****         pstrNode->pstrHead = pstrChain->pstrHead;
 820              		.loc 1 925 0
 821 03e4 44208015 		strne	r2, [r0, #68]
 939:../mindows/mds_core_c.c ****         pstrNode->pstrHead = pstrChain;
 822              		.loc 1 939 0
 823 03e8 44C08005 		streq	ip, [r0, #68]
 940:../mindows/mds_core_c.c ****         pstrNode->pstrTail = pstrChain;
 824              		.loc 1 940 0
 825 03ec 48C08005 		streq	ip, [r0, #72]
 931:../mindows/mds_core_c.c ****         pstrChain->pstrHead->pstrTail = pstrNode;
 826              		.loc 1 931 0
 827 03f0 04308215 		strne	r3, [r2, #4]
 934:../mindows/mds_core_c.c ****         pstrChain->pstrHead = pstrNode;
 828              		.loc 1 934 0
 829 03f4 38308115 		strne	r3, [r1, #56]
 943:../mindows/mds_core_c.c ****         pstrChain->pstrHead = pstrNode;
 830              		.loc 1 943 0
 831 03f8 38308105 		streq	r3, [r1, #56]
 944:../mindows/mds_core_c.c ****         pstrChain->pstrTail = pstrNode;
 832              		.loc 1 944 0
 833 03fc 3C308105 		streq	r3, [r1, #60]
 834              	.LVL55:
 835              	.L50:
 836              	.LBE144:
 837              	.LBE145:
 381:../mindows/mds_core_c.c **** }
 838              		.loc 1 381 0
 839 0400 04409DE4 		ldmfd	sp!, {r4}
 840 0404 1EFF2FE1 		bx	lr
 841              	.LVL56:
 842              	.L56:
 364:../mindows/mds_core_c.c ****         ucTaskPrio = pstrTcb->ucTaskPrio;
 843              		.loc 1 364 0
 844 0408 6830D0E5 		ldrb	r3, [r0, #104]	@ zero_extendqisi2
ARM GAS  C:\DOCUME~1\ADMINI~1\LOCALS~1\Temp\cc1Hp51A.s 			page 37


 845              	.LVL57:
 365:../mindows/mds_core_c.c ****         pstrChain = &pstrSem->strSemTab.astrChain[ucTaskPrio];
 846              		.loc 1 365 0
 847 040c 832181E0 		add	r2, r1, r3, asl #3
 848              	.LVL58:
 849              	.LBB146:
 850              	.LBB147:
 851              	.LBB149:
 922:../mindows/mds_core_c.c ****     if(NULL != pstrChain->pstrTail)
 852              		.loc 1 922 0
 853 0410 04C092E5 		ldr	ip, [r2, #4]
 854 0414 00005CE3 		cmp	ip, #0
 925:../mindows/mds_core_c.c ****         pstrNode->pstrHead = pstrChain->pstrHead;
 855              		.loc 1 925 0
 856 0418 83419117 		ldrne	r4, [r1, r3, asl #3]
 857              	.LBE149:
 858              	.LBE147:
 859              	.LBE146:
 366:../mindows/mds_core_c.c ****         pstrNode = &pstrTcb->strTcbQue.strQueHead;
 860              		.loc 1 366 0
 861 041c 44C080E2 		add	ip, r0, #68
 862              	.LVL59:
 863              	.LBB157:
 864              	.LBB151:
 865              	.LBB148:
 928:../mindows/mds_core_c.c ****         pstrNode->pstrTail = pstrChain;
 866              		.loc 1 928 0
 867 0420 48208015 		strne	r2, [r0, #72]
 925:../mindows/mds_core_c.c ****         pstrNode->pstrHead = pstrChain->pstrHead;
 868              		.loc 1 925 0
 869 0424 44408015 		strne	r4, [r0, #68]
 939:../mindows/mds_core_c.c ****         pstrNode->pstrHead = pstrChain;
 870              		.loc 1 939 0
 871 0428 44208005 		streq	r2, [r0, #68]
 940:../mindows/mds_core_c.c ****         pstrNode->pstrTail = pstrChain;
 872              		.loc 1 940 0
 873 042c 48208005 		streq	r2, [r0, #72]
 931:../mindows/mds_core_c.c ****         pstrChain->pstrHead->pstrTail = pstrNode;
 874              		.loc 1 931 0
 875 0430 04C08415 		strne	ip, [r4, #4]
 944:../mindows/mds_core_c.c ****         pstrChain->pstrTail = pstrNode;
 876              		.loc 1 944 0
 877 0434 04C08205 		streq	ip, [r2, #4]
 878              	.LVL60:
 879              	.LBE148:
 880              	.LBE151:
 881              	.LBB152:
 882              	.LBB153:
 682:../mindows/mds_core_c.c ****     pstrPrioFlag->ucPrioFlagGrp1 |= (U8)(1 << ucTaskPrio);
 883              		.loc 1 682 0
 884 0438 4020D1E5 		ldrb	r2, [r1, #64]	@ zero_extendqisi2
 885              	.LVL61:
 886              	.LBE153:
 887              	.LBE152:
 888              	.LBB155:
 889              	.LBB150:
 934:../mindows/mds_core_c.c ****         pstrChain->pstrHead = pstrNode;
ARM GAS  C:\DOCUME~1\ADMINI~1\LOCALS~1\Temp\cc1Hp51A.s 			page 38


 890              		.loc 1 934 0
 891 043c 83C18117 		strne	ip, [r1, r3, asl #3]
 943:../mindows/mds_core_c.c ****         pstrChain->pstrHead = pstrNode;
 892              		.loc 1 943 0
 893 0440 83C18107 		streq	ip, [r1, r3, asl #3]
 894              	.LBE150:
 895              	.LBE155:
 896              	.LBB156:
 897              	.LBB154:
 682:../mindows/mds_core_c.c ****     pstrPrioFlag->ucPrioFlagGrp1 |= (U8)(1 << ucTaskPrio);
 898              		.loc 1 682 0
 899 0444 01C0A0E3 		mov	ip, #1
 900              	.LVL62:
 901 0448 1C0382E1 		orr	r0, r2, ip, asl r3
 902              	.LVL63:
 903 044c 4000C1E5 		strb	r0, [r1, #64]
 904 0450 EAFFFFEA 		b	.L50
 905              	.LBE154:
 906              	.LBE156:
 907              	.LBE157:
 908              		.cfi_endproc
 909              	.LFE10:
 910              		.fnend
 911              		.size	MDS_TaskAddToSemTab, .-MDS_TaskAddToSemTab
 912              		.align	2
 913              		.global	MDS_TaskDelFromSemTab
 914              		.type	MDS_TaskDelFromSemTab, %function
 915              	MDS_TaskDelFromSemTab:
 916              		.fnstart
 917              	.LFB11:
 389:../mindows/mds_core_c.c **** {
 918              		.loc 1 389 0
 919              		.cfi_startproc
 920              		@ Function supports interworking.
 921              		@ args = 0, pretend = 0, frame = 0
 922              		@ frame_needed = 0, uses_anonymous_args = 0
 923              		@ link register save eliminated.
 924              	.LVL64:
 396:../mindows/mds_core_c.c ****     pstrSem = pstrTcb->pstrSem;
 925              		.loc 1 396 0
 926 0454 5C3090E5 		ldr	r3, [r0, #92]
 927              	.LVL65:
 399:../mindows/mds_core_c.c ****     if(SEMPRIO == (SEMSCHEDOPTMASK & pstrSem->uiSemOpt))
 928              		.loc 1 399 0
 929 0458 481093E5 		ldr	r1, [r3, #72]
 930 045c 032001E2 		and	r2, r1, #3
 931 0460 020052E3 		cmp	r2, #2
 389:../mindows/mds_core_c.c **** {
 932              		.loc 1 389 0
 933 0464 04402DE5 		str	r4, [sp, #-4]!
 934              		.save {r4}
 935              	.LCFI11:
 936              		.cfi_def_cfa_offset 4
 399:../mindows/mds_core_c.c ****     if(SEMPRIO == (SEMSCHEDOPTMASK & pstrSem->uiSemOpt))
 937              		.loc 1 399 0
 938 0468 0E00000A 		beq	.L64
 939              		.cfi_offset 4, -4
ARM GAS  C:\DOCUME~1\ADMINI~1\LOCALS~1\Temp\cc1Hp51A.s 			page 39


 940              	.LVL66:
 941              	.LBB158:
 942              	.LBB159:
 958:../mindows/mds_core_c.c ****     pstrTempNode = pstrChain->pstrTail;
 943              		.loc 1 958 0
 944 046c 3C0093E5 		ldr	r0, [r3, #60]
 945              	.LVL67:
 961:../mindows/mds_core_c.c ****     if(NULL != pstrTempNode)
 946              		.loc 1 961 0
 947 0470 000050E3 		cmp	r0, #0
 948 0474 0900000A 		beq	.L62
 964:../mindows/mds_core_c.c ****         if(pstrChain->pstrHead != pstrChain->pstrTail)
 949              		.loc 1 964 0
 950 0478 381093E5 		ldr	r1, [r3, #56]
 951 047c 010050E1 		cmp	r0, r1
 967:../mindows/mds_core_c.c ****             pstrChain->pstrTail = pstrTempNode->pstrTail;
 952              		.loc 1 967 0
 953 0480 04109015 		ldrne	r1, [r0, #4]
 954 0484 3C108315 		strne	r1, [r3, #60]
 970:../mindows/mds_core_c.c ****             pstrTempNode->pstrTail->pstrHead = pstrChain;
 955              		.loc 1 970 0
 956 0488 04109015 		ldrne	r1, [r0, #4]
 975:../mindows/mds_core_c.c ****             pstrChain->pstrHead = (M_CHAIN*)NULL;
 957              		.loc 1 975 0
 958 048c 0010A003 		moveq	r1, #0
 959              	.LBE159:
 960              	.LBE158:
 412:../mindows/mds_core_c.c ****         pstrChain = &pstrSem->strSemTab.astrChain[LOWESTPRIO];
 961              		.loc 1 412 0
 962 0490 38308312 		addne	r3, r3, #56
 963              	.LVL68:
 964              	.LBB161:
 965              	.LBB160:
 970:../mindows/mds_core_c.c ****             pstrTempNode->pstrTail->pstrHead = pstrChain;
 966              		.loc 1 970 0
 967 0494 00308115 		strne	r3, [r1, #0]
 975:../mindows/mds_core_c.c ****             pstrChain->pstrHead = (M_CHAIN*)NULL;
 968              		.loc 1 975 0
 969 0498 38108305 		streq	r1, [r3, #56]
 976:../mindows/mds_core_c.c ****             pstrChain->pstrTail = (M_CHAIN*)NULL;
 970              		.loc 1 976 0
 971 049c 3C108305 		streq	r1, [r3, #60]
 972              	.LVL69:
 973              	.L62:
 974              	.LBE160:
 975              	.LBE161:
 417:../mindows/mds_core_c.c **** }
 976              		.loc 1 417 0
 977 04a0 04409DE4 		ldmfd	sp!, {r4}
 978 04a4 1EFF2FE1 		bx	lr
 979              	.LVL70:
 980              	.L64:
 402:../mindows/mds_core_c.c ****         ucTaskPrio = pstrTcb->ucTaskPrio;
 981              		.loc 1 402 0
 982 04a8 6810D0E5 		ldrb	r1, [r0, #104]	@ zero_extendqisi2
 983              	.LVL71:
 984              	.LBB162:
ARM GAS  C:\DOCUME~1\ADMINI~1\LOCALS~1\Temp\cc1Hp51A.s 			page 40


 985              	.LBB163:
 986              	.LBB164:
 987              	.LBB166:
 958:../mindows/mds_core_c.c ****     pstrTempNode = pstrChain->pstrTail;
 988              		.loc 1 958 0
 989 04ac 812183E0 		add	r2, r3, r1, asl #3
 990 04b0 040092E5 		ldr	r0, [r2, #4]
 991              	.LVL72:
 961:../mindows/mds_core_c.c ****     if(NULL != pstrTempNode)
 992              		.loc 1 961 0
 993 04b4 000050E3 		cmp	r0, #0
 994 04b8 0800000A 		beq	.L61
 964:../mindows/mds_core_c.c ****         if(pstrChain->pstrHead != pstrChain->pstrTail)
 995              		.loc 1 964 0
 996 04bc 81C193E7 		ldr	ip, [r3, r1, asl #3]
 997 04c0 0C0050E1 		cmp	r0, ip
 998 04c4 0A00000A 		beq	.L60
 967:../mindows/mds_core_c.c ****             pstrChain->pstrTail = pstrTempNode->pstrTail;
 999              		.loc 1 967 0
 1000 04c8 04C090E5 		ldr	ip, [r0, #4]
 1001 04cc 04C082E5 		str	ip, [r2, #4]
 970:../mindows/mds_core_c.c ****             pstrTempNode->pstrTail->pstrHead = pstrChain;
 1002              		.loc 1 970 0
 1003 04d0 044090E5 		ldr	r4, [r0, #4]
 1004              	.LBE166:
 1005              	.LBE164:
 338:../mindows/mds_core_c.c ****     if(NULL == MDS_ChainEmpInq(pstrChain))
 1006              		.loc 1 338 0
 1007 04d4 00005CE3 		cmp	ip, #0
 1008              	.LBB168:
 1009              	.LBB165:
 970:../mindows/mds_core_c.c ****             pstrTempNode->pstrTail->pstrHead = pstrChain;
 1010              		.loc 1 970 0
 1011 04d8 002084E5 		str	r2, [r4, #0]
 1012              	.LVL73:
 1013              	.LBE165:
 1014              	.LBE168:
 338:../mindows/mds_core_c.c ****     if(NULL == MDS_ChainEmpInq(pstrChain))
 1015              		.loc 1 338 0
 1016 04dc EFFFFF1A 		bne	.L62
 1017              	.LVL74:
 1018              	.L61:
 1019              	.LBB169:
 1020              	.LBB170:
 745:../mindows/mds_core_c.c ****     pstrPrioFlag->ucPrioFlagGrp1 &= ~((U8)(1 << ucTaskPrio));
 1021              		.loc 1 745 0
 1022 04e0 4020D3E5 		ldrb	r2, [r3, #64]	@ zero_extendqisi2
 1023 04e4 01C0A0E3 		mov	ip, #1
 1024 04e8 1C21C2E1 		bic	r2, r2, ip, asl r1
 1025 04ec 4020C3E5 		strb	r2, [r3, #64]
 1026 04f0 EAFFFFEA 		b	.L62
 1027              	.LVL75:
 1028              	.L60:
 1029              	.LBE170:
 1030              	.LBE169:
 1031              	.LBB171:
 1032              	.LBB167:
ARM GAS  C:\DOCUME~1\ADMINI~1\LOCALS~1\Temp\cc1Hp51A.s 			page 41


 975:../mindows/mds_core_c.c ****             pstrChain->pstrHead = (M_CHAIN*)NULL;
 1033              		.loc 1 975 0
 1034 04f4 00C0A0E3 		mov	ip, #0
 1035 04f8 81C183E7 		str	ip, [r3, r1, asl #3]
 976:../mindows/mds_core_c.c ****             pstrChain->pstrTail = (M_CHAIN*)NULL;
 1036              		.loc 1 976 0
 1037 04fc 04C082E5 		str	ip, [r2, #4]
 1038              	.LVL76:
 1039 0500 F6FFFFEA 		b	.L61
 1040              	.LBE167:
 1041              	.LBE171:
 1042              	.LBE163:
 1043              	.LBE162:
 1044              		.cfi_endproc
 1045              	.LFE11:
 1046              		.fnend
 1047              		.size	MDS_TaskDelFromSemTab, .-MDS_TaskDelFromSemTab
 1048              		.align	2
 1049              		.global	MDS_SemGetActiveTask
 1050              		.type	MDS_SemGetActiveTask, %function
 1051              	MDS_SemGetActiveTask:
 1052              		.fnstart
 1053              	.LFB12:
 425:../mindows/mds_core_c.c **** {
 1054              		.loc 1 425 0
 1055              		.cfi_startproc
 1056              		@ Function supports interworking.
 1057              		@ args = 0, pretend = 0, frame = 0
 1058              		@ frame_needed = 0, uses_anonymous_args = 0
 1059              		@ link register save eliminated.
 1060              	.LVL77:
 431:../mindows/mds_core_c.c ****     if(SEMPRIO == (SEMSCHEDOPTMASK & pstrSem->uiSemOpt))
 1061              		.loc 1 431 0
 1062 0504 481090E5 		ldr	r1, [r0, #72]
 1063 0508 033001E2 		and	r3, r1, #3
 1064 050c 020053E3 		cmp	r3, #2
 1065              	.LVL78:
 1066              	.LBB172:
 1067              	.LBB173:
 790:../mindows/mds_core_c.c ****     return caucTaskPrioUnmapTab[pstrPrioFlag->ucPrioFlagGrp1];
 1068              		.loc 1 790 0
 1069 0510 4030D005 		ldreqb	r3, [r0, #64]	@ zero_extendqisi2
 1070              	.LBE173:
 1071              	.LBE172:
 431:../mindows/mds_core_c.c ****     if(SEMPRIO == (SEMSCHEDOPTMASK & pstrSem->uiSemOpt))
 1072              		.loc 1 431 0
 1073 0514 18209F05 		ldreq	r2, .L70
 1074 0518 0330D207 		ldreqb	r3, [r2, r3]	@ zero_extendqisi2
 1075 051c 0730A013 		movne	r3, #7
 1076              	.LVL79:
 1077              	.LBB174:
 1078              	.LBB175:
1063:../mindows/mds_core_c.c ****     return pstrChain->pstrTail;
 1079              		.loc 1 1063 0
 1080 0520 830180E0 		add	r0, r0, r3, asl #3
 1081              	.LVL80:
 1082 0524 040090E5 		ldr	r0, [r0, #4]
ARM GAS  C:\DOCUME~1\ADMINI~1\LOCALS~1\Temp\cc1Hp51A.s 			page 42


 1083              	.LVL81:
 1084              	.LBE175:
 1085              	.LBE174:
 445:../mindows/mds_core_c.c ****     if(NULL == pstrNode)
 1086              		.loc 1 445 0
 1087 0528 000050E3 		cmp	r0, #0
 1088              	.LVL82:
 453:../mindows/mds_core_c.c ****         return pstrTaskQue->pstrTcb;
 1089              		.loc 1 453 0
 1090 052c 08009015 		ldrne	r0, [r0, #8]
 1091              	.LVL83:
 455:../mindows/mds_core_c.c **** }
 1092              		.loc 1 455 0
 1093 0530 1EFF2FE1 		bx	lr
 1094              	.L71:
 1095              		.align	2
 1096              	.L70:
 1097 0534 00000000 		.word	.LANCHOR0
 1098              		.cfi_endproc
 1099              	.LFE12:
 1100              		.fnend
 1101              		.size	MDS_SemGetActiveTask, .-MDS_SemGetActiveTask
 1102              		.align	2
 1103              		.global	MDS_TaskReadySched
 1104              		.type	MDS_TaskReadySched, %function
 1105              	MDS_TaskReadySched:
 1106              		.fnstart
 1107              	.LFB14:
 496:../mindows/mds_core_c.c **** {
 1108              		.loc 1 496 0
 1109              		.cfi_startproc
 1110              		@ Function supports interworking.
 1111              		@ args = 0, pretend = 0, frame = 0
 1112              		@ frame_needed = 1, uses_anonymous_args = 0
 1113              	.LVL84:
 1114              		.movsp ip
 1115 0538 0DC0A0E1 		mov	ip, sp
 1116              	.LCFI12:
 1117              		.cfi_def_cfa_register 12
 1118 053c 30D82DE9 		stmfd	sp!, {r4, r5, fp, ip, lr, pc}
 1119              		.pad #4
 1120              		.save {r4, r5, fp, ip, lr}
 1121              	.LBB176:
 1122              	.LBB179:
 1123              	.LBB183:
 1124              	.LBB184:
1063:../mindows/mds_core_c.c ****     return pstrChain->pstrTail;
 1125              		.loc 1 1063 0
 1126 0540 74409FE5 		ldr	r4, .L76
 1127              		.cfi_offset 14, -8
 1128              		.cfi_offset 13, -12
 1129              		.cfi_offset 11, -16
 1130              		.cfi_offset 5, -20
 1131              		.cfi_offset 4, -24
 1132              	.LBE184:
 1133              	.LBE183:
 1134              	.LBE179:
ARM GAS  C:\DOCUME~1\ADMINI~1\LOCALS~1\Temp\cc1Hp51A.s 			page 43


 1135              	.LBE176:
 496:../mindows/mds_core_c.c **** {
 1136              		.loc 1 496 0
 1137              		.setfp fp, ip, #-4
 1138 0544 04B04CE2 		sub	fp, ip, #4
 1139              	.LCFI13:
 1140              		.cfi_def_cfa 11, 4
 1141              	.LBB188:
 1142              	.LBB178:
 533:../mindows/mds_core_c.c ****     pstrTaskQue = (M_TCBQUE*)MDS_ChainEmpInq(&gstrReadyTab.astrChain[ucTaskPrio]);
 1143              		.loc 1 533 0
 1144 0548 70509FE5 		ldr	r5, .L76+4
 1145              	.LBB181:
 1146              	.LBB182:
 790:../mindows/mds_core_c.c ****     return caucTaskPrioUnmapTab[pstrPrioFlag->ucPrioFlagGrp1];
 1147              		.loc 1 790 0
 1148 054c 40C0D4E5 		ldrb	ip, [r4, #64]	@ zero_extendqisi2
 1149              	.LBE182:
 1150              	.LBE181:
 1151              	.LBE178:
 1152              	.LBE188:
 505:../mindows/mds_core_c.c ****     if((VFHSWT)NULL != gvfTaskSwitchHook)
 1153              		.loc 1 505 0
 1154 0550 6C309FE5 		ldr	r3, .L76+8
 1155              	.LBB189:
 1156              	.LBB186:
 533:../mindows/mds_core_c.c ****     pstrTaskQue = (M_TCBQUE*)MDS_ChainEmpInq(&gstrReadyTab.astrChain[ucTaskPrio]);
 1157              		.loc 1 533 0
 1158 0554 0C10D5E7 		ldrb	r1, [r5, ip]	@ zero_extendqisi2
 1159              	.LBE186:
 1160              	.LBE189:
 505:../mindows/mds_core_c.c ****     if((VFHSWT)NULL != gvfTaskSwitchHook)
 1161              		.loc 1 505 0
 1162 0558 003093E5 		ldr	r3, [r3, #0]
 1163              	.LBB190:
 1164              	.LBB177:
 1165              	.LBB180:
 1166              	.LBB185:
1063:../mindows/mds_core_c.c ****     return pstrChain->pstrTail;
 1167              		.loc 1 1063 0
 1168 055c 810184E0 		add	r0, r4, r1, asl #3
 1169              	.LBE185:
 1170              	.LBE180:
 534:../mindows/mds_core_c.c ****     pstrTcb = pstrTaskQue->pstrTcb;
 1171              		.loc 1 534 0
 1172 0560 042090E5 		ldr	r2, [r0, #4]
 1173              	.LBE177:
 1174              	.LBE190:
 505:../mindows/mds_core_c.c ****     if((VFHSWT)NULL != gvfTaskSwitchHook)
 1175              		.loc 1 505 0
 1176 0564 000053E3 		cmp	r3, #0
 1177              	.LBB191:
 1178              	.LBB187:
 534:../mindows/mds_core_c.c ****     pstrTcb = pstrTaskQue->pstrTcb;
 1179              		.loc 1 534 0
 1180 0568 084092E5 		ldr	r4, [r2, #8]
 1181              	.LVL85:
ARM GAS  C:\DOCUME~1\ADMINI~1\LOCALS~1\Temp\cc1Hp51A.s 			page 44


 1182              	.LBE187:
 1183              	.LBE191:
 505:../mindows/mds_core_c.c ****     if((VFHSWT)NULL != gvfTaskSwitchHook)
 1184              		.loc 1 505 0
 1185 056c 0F00000A 		beq	.L75
 508:../mindows/mds_core_c.c ****         if(pstrTcb != gpstrCurTcb)
 1186              		.loc 1 508 0
 1187 0570 50509FE5 		ldr	r5, .L76+12
 1188 0574 000095E5 		ldr	r0, [r5, #0]
 1189              	.LVL86:
 1190 0578 040050E1 		cmp	r0, r4
 1191 057c 0300000A 		beq	.L74
 510:../mindows/mds_core_c.c ****             gvfTaskSwitchHook(gpstrCurTcb, pstrTcb);
 1192              		.loc 1 510 0
 1193 0580 0410A0E1 		mov	r1, r4
 1194 0584 0FE0A0E1 		mov	lr, pc
 1195 0588 13FF2FE1 		bx	r3
 1196              	.LVL87:
 1197 058c 000095E5 		ldr	r0, [r5, #0]
 1198              	.L74:
 1199              	.LVL88:
 1200              	.LBB192:
 1201              	.LBB193:
 142:../mindows/mds_core_c.c ****     gpstrCurTaskSpAddr = &gpstrCurTcb->strStackReg;
 1202              		.loc 1 142 0
 1203 0590 34109FE5 		ldr	r1, .L76+16
 146:../mindows/mds_core_c.c ****     gpstrNextTaskSpAddr = &pstrTcb->strStackReg;
 1204              		.loc 1 146 0
 1205 0594 34209FE5 		ldr	r2, .L76+20
 142:../mindows/mds_core_c.c ****     gpstrCurTaskSpAddr = &gpstrCurTcb->strStackReg;
 1206              		.loc 1 142 0
 1207 0598 000081E5 		str	r0, [r1, #0]
 146:../mindows/mds_core_c.c ****     gpstrNextTaskSpAddr = &pstrTcb->strStackReg;
 1208              		.loc 1 146 0
 1209 059c 004082E5 		str	r4, [r2, #0]
 149:../mindows/mds_core_c.c ****     gpstrCurTcb = pstrTcb;
 1210              		.loc 1 149 0
 1211 05a0 004085E5 		str	r4, [r5, #0]
 1212              	.LBE193:
 1213              	.LBE192:
 518:../mindows/mds_core_c.c **** }
 1214              		.loc 1 518 0
 1215 05a4 14D04BE2 		sub	sp, fp, #20
 1216 05a8 30689DE8 		ldmfd	sp, {r4, r5, fp, sp, lr}
 1217 05ac 1EFF2FE1 		bx	lr
 1218              	.LVL89:
 1219              	.L75:
 505:../mindows/mds_core_c.c ****     if((VFHSWT)NULL != gvfTaskSwitchHook)
 1220              		.loc 1 505 0
 1221 05b0 10509FE5 		ldr	r5, .L76+12
 1222 05b4 000095E5 		ldr	r0, [r5, #0]
 1223 05b8 F4FFFFEA 		b	.L74
 1224              	.L77:
 1225              		.align	2
 1226              	.L76:
 1227 05bc 00000000 		.word	gstrReadyTab
 1228 05c0 00000000 		.word	.LANCHOR0
ARM GAS  C:\DOCUME~1\ADMINI~1\LOCALS~1\Temp\cc1Hp51A.s 			page 45


 1229 05c4 00000000 		.word	gvfTaskSwitchHook
 1230 05c8 00000000 		.word	gpstrCurTcb
 1231 05cc 00000000 		.word	gpstrCurTaskSpAddr
 1232 05d0 00000000 		.word	gpstrNextTaskSpAddr
 1233              		.cfi_endproc
 1234              	.LFE14:
 1235              		.fnend
 1236              		.size	MDS_TaskReadySched, .-MDS_TaskReadySched
 1237              		.align	2
 1238              		.global	MDS_TaskReadyTabSched
 1239              		.type	MDS_TaskReadyTabSched, %function
 1240              	MDS_TaskReadyTabSched:
 1241              		.fnstart
 1242              	.LFB15:
 526:../mindows/mds_core_c.c **** {
 1243              		.loc 1 526 0
 1244              		.cfi_startproc
 1245              		@ Function supports interworking.
 1246              		@ args = 0, pretend = 0, frame = 0
 1247              		@ frame_needed = 0, uses_anonymous_args = 0
 1248              		@ link register save eliminated.
 1249              	.LVL90:
 1250              	.LBB194:
 1251              	.LBB195:
1063:../mindows/mds_core_c.c ****     return pstrChain->pstrTail;
 1252              		.loc 1 1063 0
 1253 05d4 18C09FE5 		ldr	ip, .L79
 1254              	.LBE195:
 1255              	.LBE194:
 533:../mindows/mds_core_c.c ****     pstrTaskQue = (M_TCBQUE*)MDS_ChainEmpInq(&gstrReadyTab.astrChain[ucTaskPrio]);
 1256              		.loc 1 533 0
 1257 05d8 18109FE5 		ldr	r1, .L79+4
 1258              	.LBB197:
 1259              	.LBB198:
 790:../mindows/mds_core_c.c ****     return caucTaskPrioUnmapTab[pstrPrioFlag->ucPrioFlagGrp1];
 1260              		.loc 1 790 0
 1261 05dc 4030DCE5 		ldrb	r3, [ip, #64]	@ zero_extendqisi2
 1262              	.LBE198:
 1263              	.LBE197:
 533:../mindows/mds_core_c.c ****     pstrTaskQue = (M_TCBQUE*)MDS_ChainEmpInq(&gstrReadyTab.astrChain[ucTaskPrio]);
 1264              		.loc 1 533 0
 1265 05e0 0320D1E7 		ldrb	r2, [r1, r3]	@ zero_extendqisi2
 1266              	.LBB199:
 1267              	.LBB196:
1063:../mindows/mds_core_c.c ****     return pstrChain->pstrTail;
 1268              		.loc 1 1063 0
 1269 05e4 82018CE0 		add	r0, ip, r2, asl #3
 1270              	.LBE196:
 1271              	.LBE199:
 534:../mindows/mds_core_c.c ****     pstrTcb = pstrTaskQue->pstrTcb;
 1272              		.loc 1 534 0
 1273 05e8 043090E5 		ldr	r3, [r0, #4]
 537:../mindows/mds_core_c.c **** }
 1274              		.loc 1 537 0
 1275 05ec 080093E5 		ldr	r0, [r3, #8]
 1276 05f0 1EFF2FE1 		bx	lr
 1277              	.L80:
ARM GAS  C:\DOCUME~1\ADMINI~1\LOCALS~1\Temp\cc1Hp51A.s 			page 46


 1278              		.align	2
 1279              	.L79:
 1280 05f4 00000000 		.word	gstrReadyTab
 1281 05f8 00000000 		.word	.LANCHOR0
 1282              		.cfi_endproc
 1283              	.LFE15:
 1284              		.fnend
 1285              		.size	MDS_TaskReadyTabSched, .-MDS_TaskReadyTabSched
 1286              		.align	2
 1287              		.global	MDS_TaskPrioFlagSet
 1288              		.type	MDS_TaskPrioFlagSet, %function
 1289              	MDS_TaskPrioFlagSet:
 1290              		.fnstart
 1291              	.LFB17:
 640:../mindows/mds_core_c.c **** {
 1292              		.loc 1 640 0
 1293              		.cfi_startproc
 1294              		@ Function supports interworking.
 1295              		@ args = 0, pretend = 0, frame = 0
 1296              		@ frame_needed = 0, uses_anonymous_args = 0
 1297              		@ link register save eliminated.
 1298              	.LVL91:
 682:../mindows/mds_core_c.c ****     pstrPrioFlag->ucPrioFlagGrp1 |= (U8)(1 << ucTaskPrio);
 1299              		.loc 1 682 0
 1300 05fc 00C0D0E5 		ldrb	ip, [r0, #0]	@ zero_extendqisi2
 1301 0600 0120A0E3 		mov	r2, #1
 1302 0604 12318CE1 		orr	r3, ip, r2, asl r1
 1303 0608 0030C0E5 		strb	r3, [r0, #0]
 685:../mindows/mds_core_c.c **** }
 1304              		.loc 1 685 0
 1305 060c 1EFF2FE1 		bx	lr
 1306              		.cfi_endproc
 1307              	.LFE17:
 1308              		.fnend
 1309              		.size	MDS_TaskPrioFlagSet, .-MDS_TaskPrioFlagSet
 1310              		.align	2
 1311              		.global	MDS_TaskPrioFlagClr
 1312              		.type	MDS_TaskPrioFlagClr, %function
 1313              	MDS_TaskPrioFlagClr:
 1314              		.fnstart
 1315              	.LFB18:
 694:../mindows/mds_core_c.c **** {
 1316              		.loc 1 694 0
 1317              		.cfi_startproc
 1318              		@ Function supports interworking.
 1319              		@ args = 0, pretend = 0, frame = 0
 1320              		@ frame_needed = 0, uses_anonymous_args = 0
 1321              		@ link register save eliminated.
 1322              	.LVL92:
 745:../mindows/mds_core_c.c ****     pstrPrioFlag->ucPrioFlagGrp1 &= ~((U8)(1 << ucTaskPrio));
 1323              		.loc 1 745 0
 1324 0610 00C0D0E5 		ldrb	ip, [r0, #0]	@ zero_extendqisi2
 1325 0614 0120A0E3 		mov	r2, #1
 1326 0618 1231CCE1 		bic	r3, ip, r2, asl r1
 1327 061c 0030C0E5 		strb	r3, [r0, #0]
 748:../mindows/mds_core_c.c **** }
 1328              		.loc 1 748 0
ARM GAS  C:\DOCUME~1\ADMINI~1\LOCALS~1\Temp\cc1Hp51A.s 			page 47


 1329 0620 1EFF2FE1 		bx	lr
 1330              		.cfi_endproc
 1331              	.LFE18:
 1332              		.fnend
 1333              		.size	MDS_TaskPrioFlagClr, .-MDS_TaskPrioFlagClr
 1334              		.align	2
 1335              		.global	MDS_TaskHighestPrioGet
 1336              		.type	MDS_TaskHighestPrioGet, %function
 1337              	MDS_TaskHighestPrioGet:
 1338              		.fnstart
 1339              	.LFB19:
 756:../mindows/mds_core_c.c **** {
 1340              		.loc 1 756 0
 1341              		.cfi_startproc
 1342              		@ Function supports interworking.
 1343              		@ args = 0, pretend = 0, frame = 0
 1344              		@ frame_needed = 0, uses_anonymous_args = 0
 1345              		@ link register save eliminated.
 1346              	.LVL93:
 790:../mindows/mds_core_c.c ****     return caucTaskPrioUnmapTab[pstrPrioFlag->ucPrioFlagGrp1];
 1347              		.loc 1 790 0
 1348 0624 0030D0E5 		ldrb	r3, [r0, #0]	@ zero_extendqisi2
 793:../mindows/mds_core_c.c **** }
 1349              		.loc 1 793 0
 1350 0628 04209FE5 		ldr	r2, .L84
 1351 062c 0300D2E7 		ldrb	r0, [r2, r3]	@ zero_extendqisi2
 1352              	.LVL94:
 1353 0630 1EFF2FE1 		bx	lr
 1354              	.L85:
 1355              		.align	2
 1356              	.L84:
 1357 0634 00000000 		.word	.LANCHOR0
 1358              		.cfi_endproc
 1359              	.LFE19:
 1360              		.fnend
 1361              		.size	MDS_TaskHighestPrioGet, .-MDS_TaskHighestPrioGet
 1362              		.align	2
 1363              		.global	MDS_SystemTickGet
 1364              		.type	MDS_SystemTickGet, %function
 1365              	MDS_SystemTickGet:
 1366              		.fnstart
 1367              	.LFB20:
 801:../mindows/mds_core_c.c **** {
 1368              		.loc 1 801 0
 1369              		.cfi_startproc
 1370              		@ Function supports interworking.
 1371              		@ args = 0, pretend = 0, frame = 0
 1372              		@ frame_needed = 0, uses_anonymous_args = 0
 1373              		@ link register save eliminated.
 801:../mindows/mds_core_c.c **** {
 1374              		.loc 1 801 0
 1375 0638 04309FE5 		ldr	r3, .L87
 803:../mindows/mds_core_c.c **** }
 1376              		.loc 1 803 0
 1377 063c 000093E5 		ldr	r0, [r3, #0]
 1378 0640 1EFF2FE1 		bx	lr
 1379              	.L88:
ARM GAS  C:\DOCUME~1\ADMINI~1\LOCALS~1\Temp\cc1Hp51A.s 			page 48


 1380              		.align	2
 1381              	.L87:
 1382 0644 00000000 		.word	guiTick
 1383              		.cfi_endproc
 1384              	.LFE20:
 1385              		.fnend
 1386              		.size	MDS_SystemTickGet, .-MDS_SystemTickGet
 1387              		.align	2
 1388              		.global	MDS_CurrentTcbGet
 1389              		.type	MDS_CurrentTcbGet, %function
 1390              	MDS_CurrentTcbGet:
 1391              		.fnstart
 1392              	.LFB21:
 811:../mindows/mds_core_c.c **** {
 1393              		.loc 1 811 0
 1394              		.cfi_startproc
 1395              		@ Function supports interworking.
 1396              		@ args = 0, pretend = 0, frame = 0
 1397              		@ frame_needed = 0, uses_anonymous_args = 0
 1398              		@ link register save eliminated.
 811:../mindows/mds_core_c.c **** {
 1399              		.loc 1 811 0
 1400 0648 04309FE5 		ldr	r3, .L90
 813:../mindows/mds_core_c.c **** }
 1401              		.loc 1 813 0
 1402 064c 000093E5 		ldr	r0, [r3, #0]
 1403 0650 1EFF2FE1 		bx	lr
 1404              	.L91:
 1405              		.align	2
 1406              	.L90:
 1407 0654 00000000 		.word	gpstrCurTcb
 1408              		.cfi_endproc
 1409              	.LFE21:
 1410              		.fnend
 1411              		.size	MDS_CurrentTcbGet, .-MDS_CurrentTcbGet
 1412              		.align	2
 1413              		.global	MDS_IntLock
 1414              		.type	MDS_IntLock, %function
 1415              	MDS_IntLock:
 1416              		.fnstart
 1417              	.LFB22:
 823:../mindows/mds_core_c.c **** {
 1418              		.loc 1 823 0
 1419              		.cfi_startproc
 1420              		@ Function supports interworking.
 1421              		@ args = 0, pretend = 0, frame = 0
 1422              		@ frame_needed = 1, uses_anonymous_args = 0
 825:../mindows/mds_core_c.c ****     if(NULL == gpstrCurTcb)
 1423              		.loc 1 825 0
 1424 0658 6C309FE5 		ldr	r3, .L99
 1425 065c 000093E5 		ldr	r0, [r3, #0]
 823:../mindows/mds_core_c.c **** {
 1426              		.loc 1 823 0
 1427              		.movsp ip
 1428 0660 0DC0A0E1 		mov	ip, sp
 1429              	.LCFI14:
 1430              		.cfi_def_cfa_register 12
ARM GAS  C:\DOCUME~1\ADMINI~1\LOCALS~1\Temp\cc1Hp51A.s 			page 49


 825:../mindows/mds_core_c.c ****     if(NULL == gpstrCurTcb)
 1431              		.loc 1 825 0
 1432 0664 000050E3 		cmp	r0, #0
 823:../mindows/mds_core_c.c **** {
 1433              		.loc 1 823 0
 1434 0668 30D82DE9 		stmfd	sp!, {r4, r5, fp, ip, lr, pc}
 1435              		.pad #4
 1436              		.save {r4, r5, fp, ip, lr}
 1437              		.setfp fp, ip, #-4
 1438 066c 04B04CE2 		sub	fp, ip, #4
 1439              		.cfi_offset 14, -8
 1440              		.cfi_offset 13, -12
 1441              		.cfi_offset 11, -16
 1442              		.cfi_offset 5, -20
 1443              		.cfi_offset 4, -24
 1444              	.LCFI15:
 1445              		.cfi_def_cfa 11, 4
 825:../mindows/mds_core_c.c ****     if(NULL == gpstrCurTcb)
 1446              		.loc 1 825 0
 1447 0670 0B00000A 		beq	.L93
 831:../mindows/mds_core_c.c ****     if(RTN_SUCD == MDS_RunInInt())
 1448              		.loc 1 831 0
 1449 0674 FEFFFFEB 		bl	MDS_RunInInt
 1450 0678 000050E3 		cmp	r0, #0
 1451 067c 0800000A 		beq	.L93
 837:../mindows/mds_core_c.c ****     if(0 == guiIntLockCounter)
 1452              		.loc 1 837 0
 1453 0680 48509FE5 		ldr	r5, .L99+4
 1454 0684 004095E5 		ldr	r4, [r5, #0]
 1455 0688 000054E3 		cmp	r4, #0
 1456 068c 0700000A 		beq	.L98
 846:../mindows/mds_core_c.c ****     else if(guiIntLockCounter < 0xFFFFFFFF)
 1457              		.loc 1 846 0
 1458 0690 010074E3 		cmn	r4, #1
 848:../mindows/mds_core_c.c ****         guiIntLockCounter++;
 1459              		.loc 1 848 0
 1460 0694 01408412 		addne	r4, r4, #1
 1461 0698 00408515 		strne	r4, [r5, #0]
 850:../mindows/mds_core_c.c ****         return RTN_SUCD;
 1462              		.loc 1 850 0
 1463 069c 0000A013 		movne	r0, #0
 854:../mindows/mds_core_c.c ****         return RTN_FAIL;
 1464              		.loc 1 854 0
 1465 06a0 0100A003 		moveq	r0, #1
 1466              	.L93:
 856:../mindows/mds_core_c.c **** }
 1467              		.loc 1 856 0
 1468 06a4 14D04BE2 		sub	sp, fp, #20
 1469 06a8 30689DE8 		ldmfd	sp, {r4, r5, fp, sp, lr}
 1470 06ac 1EFF2FE1 		bx	lr
 1471              	.L98:
 839:../mindows/mds_core_c.c ****         MDS_TaskOccurSwi(SWI_INTDISABLE);
 1472              		.loc 1 839 0
 1473 06b0 1C009FE5 		ldr	r0, .L99+8
 1474 06b4 FEFFFFEB 		bl	MDS_TaskOccurSwi
 841:../mindows/mds_core_c.c ****         guiIntLockCounter++;
 1475              		.loc 1 841 0
ARM GAS  C:\DOCUME~1\ADMINI~1\LOCALS~1\Temp\cc1Hp51A.s 			page 50


 1476 06b8 001095E5 		ldr	r1, [r5, #0]
 1477 06bc 010081E2 		add	r0, r1, #1
 1478 06c0 000085E5 		str	r0, [r5, #0]
 843:../mindows/mds_core_c.c ****         return RTN_SUCD;
 1479              		.loc 1 843 0
 1480 06c4 0400A0E1 		mov	r0, r4
 1481 06c8 F5FFFFEA 		b	.L93
 1482              	.L100:
 1483              		.align	2
 1484              	.L99:
 1485 06cc 00000000 		.word	gpstrCurTcb
 1486 06d0 00000000 		.word	guiIntLockCounter
 1487 06d4 02200010 		.word	268443650
 1488              		.cfi_endproc
 1489              	.LFE22:
 1490              		.fnend
 1491              		.size	MDS_IntLock, .-MDS_IntLock
 1492              		.align	2
 1493              		.global	MDS_IntUnlock
 1494              		.type	MDS_IntUnlock, %function
 1495              	MDS_IntUnlock:
 1496              		.fnstart
 1497              	.LFB23:
 866:../mindows/mds_core_c.c **** {
 1498              		.loc 1 866 0
 1499              		.cfi_startproc
 1500              		@ Function supports interworking.
 1501              		@ args = 0, pretend = 0, frame = 0
 1502              		@ frame_needed = 1, uses_anonymous_args = 0
 1503              		.movsp ip
 1504 06d8 0DC0A0E1 		mov	ip, sp
 1505              	.LCFI16:
 1506              		.cfi_def_cfa_register 12
 1507 06dc 18D82DE9 		stmfd	sp!, {r3, r4, fp, ip, lr, pc}
 1508              		.pad #4
 1509              		.save {r3, r4, fp, ip, lr}
 868:../mindows/mds_core_c.c ****     if(NULL == gpstrCurTcb)
 1510              		.loc 1 868 0
 1511 06e0 60309FE5 		ldr	r3, .L108
 1512              		.cfi_offset 14, -8
 1513              		.cfi_offset 13, -12
 1514              		.cfi_offset 11, -16
 1515              		.cfi_offset 4, -20
 1516              		.cfi_offset 3, -24
 1517 06e4 000093E5 		ldr	r0, [r3, #0]
 1518 06e8 000050E3 		cmp	r0, #0
 866:../mindows/mds_core_c.c **** {
 1519              		.loc 1 866 0
 1520              		.setfp fp, ip, #-4
 1521 06ec 04B04CE2 		sub	fp, ip, #4
 1522              	.LCFI17:
 1523              		.cfi_def_cfa 11, 4
 868:../mindows/mds_core_c.c ****     if(NULL == gpstrCurTcb)
 1524              		.loc 1 868 0
 1525 06f0 0900000A 		beq	.L102
 874:../mindows/mds_core_c.c ****     if(RTN_SUCD == MDS_RunInInt())
 1526              		.loc 1 874 0
ARM GAS  C:\DOCUME~1\ADMINI~1\LOCALS~1\Temp\cc1Hp51A.s 			page 51


 1527 06f4 FEFFFFEB 		bl	MDS_RunInInt
 1528 06f8 000050E3 		cmp	r0, #0
 1529 06fc 0600000A 		beq	.L102
 880:../mindows/mds_core_c.c ****     if(guiIntLockCounter > 1)
 1530              		.loc 1 880 0
 1531 0700 44309FE5 		ldr	r3, .L108+4
 1532 0704 002093E5 		ldr	r2, [r3, #0]
 1533 0708 010052E3 		cmp	r2, #1
 882:../mindows/mds_core_c.c ****         guiIntLockCounter--;
 1534              		.loc 1 882 0
 1535 070c 01204282 		subhi	r2, r2, #1
 1536 0710 00208385 		strhi	r2, [r3, #0]
 884:../mindows/mds_core_c.c ****         return RTN_SUCD;
 1537              		.loc 1 884 0
 1538 0714 0000A083 		movhi	r0, #0
 880:../mindows/mds_core_c.c ****     if(guiIntLockCounter > 1)
 1539              		.loc 1 880 0
 1540 0718 0200009A 		bls	.L107
 1541              	.L102:
 899:../mindows/mds_core_c.c **** }
 1542              		.loc 1 899 0
 1543 071c 14D04BE2 		sub	sp, fp, #20
 1544 0720 18689DE8 		ldmfd	sp, {r3, r4, fp, sp, lr}
 1545 0724 1EFF2FE1 		bx	lr
 1546              	.L107:
 897:../mindows/mds_core_c.c ****         return RTN_FAIL;
 1547              		.loc 1 897 0
 1548 0728 0100A013 		movne	r0, #1
 887:../mindows/mds_core_c.c ****     else if(1 == guiIntLockCounter)
 1549              		.loc 1 887 0
 1550 072c FAFFFF1A 		bne	.L102
 889:../mindows/mds_core_c.c ****         guiIntLockCounter--;
 1551              		.loc 1 889 0
 1552 0730 0040A0E3 		mov	r4, #0
 891:../mindows/mds_core_c.c ****         MDS_TaskOccurSwi(SWI_INTENABLE);
 1553              		.loc 1 891 0
 1554 0734 14009FE5 		ldr	r0, .L108+8
 889:../mindows/mds_core_c.c ****         guiIntLockCounter--;
 1555              		.loc 1 889 0
 1556 0738 004083E5 		str	r4, [r3, #0]
 891:../mindows/mds_core_c.c ****         MDS_TaskOccurSwi(SWI_INTENABLE);
 1557              		.loc 1 891 0
 1558 073c FEFFFFEB 		bl	MDS_TaskOccurSwi
 893:../mindows/mds_core_c.c ****         return RTN_SUCD;
 1559              		.loc 1 893 0
 1560 0740 0400A0E1 		mov	r0, r4
 1561 0744 F4FFFFEA 		b	.L102
 1562              	.L109:
 1563              		.align	2
 1564              	.L108:
 1565 0748 00000000 		.word	gpstrCurTcb
 1566 074c 00000000 		.word	guiIntLockCounter
 1567 0750 01200010 		.word	268443649
 1568              		.cfi_endproc
 1569              	.LFE23:
 1570              		.fnend
 1571              		.size	MDS_IntUnlock, .-MDS_IntUnlock
ARM GAS  C:\DOCUME~1\ADMINI~1\LOCALS~1\Temp\cc1Hp51A.s 			page 52


 1572              		.align	2
 1573              		.global	MDS_ChainInit
 1574              		.type	MDS_ChainInit, %function
 1575              	MDS_ChainInit:
 1576              		.fnstart
 1577              	.LFB24:
 907:../mindows/mds_core_c.c **** {
 1578              		.loc 1 907 0
 1579              		.cfi_startproc
 1580              		@ Function supports interworking.
 1581              		@ args = 0, pretend = 0, frame = 0
 1582              		@ frame_needed = 0, uses_anonymous_args = 0
 1583              		@ link register save eliminated.
 1584              	.LVL95:
 909:../mindows/mds_core_c.c ****     pstrChain->pstrHead = (M_CHAIN*)NULL;
 1585              		.loc 1 909 0
 1586 0754 0030A0E3 		mov	r3, #0
 1587 0758 003080E5 		str	r3, [r0, #0]
 910:../mindows/mds_core_c.c ****     pstrChain->pstrTail = (M_CHAIN*)NULL;
 1588              		.loc 1 910 0
 1589 075c 043080E5 		str	r3, [r0, #4]
 911:../mindows/mds_core_c.c **** }
 1590              		.loc 1 911 0
 1591 0760 1EFF2FE1 		bx	lr
 1592              		.cfi_endproc
 1593              	.LFE24:
 1594              		.fnend
 1595              		.size	MDS_ChainInit, .-MDS_ChainInit
 1596              		.align	2
 1597              		.global	MDS_ChainNodeAdd
 1598              		.type	MDS_ChainNodeAdd, %function
 1599              	MDS_ChainNodeAdd:
 1600              		.fnstart
 1601              	.LFB25:
 920:../mindows/mds_core_c.c **** {
 1602              		.loc 1 920 0
 1603              		.cfi_startproc
 1604              		@ Function supports interworking.
 1605              		@ args = 0, pretend = 0, frame = 0
 1606              		@ frame_needed = 0, uses_anonymous_args = 0
 1607              		@ link register save eliminated.
 1608              	.LVL96:
 922:../mindows/mds_core_c.c ****     if(NULL != pstrChain->pstrTail)
 1609              		.loc 1 922 0
 1610 0764 043090E5 		ldr	r3, [r0, #4]
 1611 0768 000053E3 		cmp	r3, #0
 925:../mindows/mds_core_c.c ****         pstrNode->pstrHead = pstrChain->pstrHead;
 1612              		.loc 1 925 0
 1613 076c 00309015 		ldrne	r3, [r0, #0]
 1614 0770 00308115 		strne	r3, [r1, #0]
 931:../mindows/mds_core_c.c ****         pstrChain->pstrHead->pstrTail = pstrNode;
 1615              		.loc 1 931 0
 1616 0774 00309015 		ldrne	r3, [r0, #0]
 928:../mindows/mds_core_c.c ****         pstrNode->pstrTail = pstrChain;
 1617              		.loc 1 928 0
 1618 0778 04008115 		strne	r0, [r1, #4]
 939:../mindows/mds_core_c.c ****         pstrNode->pstrHead = pstrChain;
ARM GAS  C:\DOCUME~1\ADMINI~1\LOCALS~1\Temp\cc1Hp51A.s 			page 53


 1619              		.loc 1 939 0
 1620 077c 00008105 		streq	r0, [r1, #0]
 940:../mindows/mds_core_c.c ****         pstrNode->pstrTail = pstrChain;
 1621              		.loc 1 940 0
 1622 0780 04008105 		streq	r0, [r1, #4]
 934:../mindows/mds_core_c.c ****         pstrChain->pstrHead = pstrNode;
 1623              		.loc 1 934 0
 1624 0784 00108015 		strne	r1, [r0, #0]
 931:../mindows/mds_core_c.c ****         pstrChain->pstrHead->pstrTail = pstrNode;
 1625              		.loc 1 931 0
 1626 0788 04108315 		strne	r1, [r3, #4]
 943:../mindows/mds_core_c.c ****         pstrChain->pstrHead = pstrNode;
 1627              		.loc 1 943 0
 1628 078c 00108005 		streq	r1, [r0, #0]
 944:../mindows/mds_core_c.c ****         pstrChain->pstrTail = pstrNode;
 1629              		.loc 1 944 0
 1630 0790 04108005 		streq	r1, [r0, #4]
 1631 0794 1EFF2FE1 		bx	lr
 1632              		.cfi_endproc
 1633              	.LFE25:
 1634              		.fnend
 1635              		.size	MDS_ChainNodeAdd, .-MDS_ChainNodeAdd
 1636              		.align	2
 1637              		.global	MDS_ChainNodeDelete
 1638              		.type	MDS_ChainNodeDelete, %function
 1639              	MDS_ChainNodeDelete:
 1640              		.fnstart
 1641              	.LFB26:
 954:../mindows/mds_core_c.c **** {
 1642              		.loc 1 954 0
 1643              		.cfi_startproc
 1644              		@ Function supports interworking.
 1645              		@ args = 0, pretend = 0, frame = 0
 1646              		@ frame_needed = 0, uses_anonymous_args = 0
 1647              		@ link register save eliminated.
 1648              	.LVL97:
 958:../mindows/mds_core_c.c ****     pstrTempNode = pstrChain->pstrTail;
 1649              		.loc 1 958 0
 1650 0798 043090E5 		ldr	r3, [r0, #4]
 1651              	.LVL98:
 961:../mindows/mds_core_c.c ****     if(NULL != pstrTempNode)
 1652              		.loc 1 961 0
 1653 079c 000053E3 		cmp	r3, #0
 1654 07a0 0800000A 		beq	.L115
 1655              	.LVL99:
 964:../mindows/mds_core_c.c ****         if(pstrChain->pstrHead != pstrChain->pstrTail)
 1656              		.loc 1 964 0
 1657 07a4 002090E5 		ldr	r2, [r0, #0]
 1658 07a8 020053E1 		cmp	r3, r2
 967:../mindows/mds_core_c.c ****             pstrChain->pstrTail = pstrTempNode->pstrTail;
 1659              		.loc 1 967 0
 1660 07ac 04209315 		ldrne	r2, [r3, #4]
 1661 07b0 04208015 		strne	r2, [r0, #4]
 970:../mindows/mds_core_c.c ****             pstrTempNode->pstrTail->pstrHead = pstrChain;
 1662              		.loc 1 970 0
 1663 07b4 04209315 		ldrne	r2, [r3, #4]
 975:../mindows/mds_core_c.c ****             pstrChain->pstrHead = (M_CHAIN*)NULL;
ARM GAS  C:\DOCUME~1\ADMINI~1\LOCALS~1\Temp\cc1Hp51A.s 			page 54


 1664              		.loc 1 975 0
 1665 07b8 0020A003 		moveq	r2, #0
 970:../mindows/mds_core_c.c ****             pstrTempNode->pstrTail->pstrHead = pstrChain;
 1666              		.loc 1 970 0
 1667 07bc 00008215 		strne	r0, [r2, #0]
 975:../mindows/mds_core_c.c ****             pstrChain->pstrHead = (M_CHAIN*)NULL;
 1668              		.loc 1 975 0
 1669 07c0 00208005 		streq	r2, [r0, #0]
 976:../mindows/mds_core_c.c ****             pstrChain->pstrTail = (M_CHAIN*)NULL;
 1670              		.loc 1 976 0
 1671 07c4 04208005 		streq	r2, [r0, #4]
 1672              	.LVL100:
 1673              	.L115:
 986:../mindows/mds_core_c.c **** }
 1674              		.loc 1 986 0
 1675 07c8 0300A0E1 		mov	r0, r3
 1676              	.LVL101:
 1677 07cc 1EFF2FE1 		bx	lr
 1678              		.cfi_endproc
 1679              	.LFE26:
 1680              		.fnend
 1681              		.size	MDS_ChainNodeDelete, .-MDS_ChainNodeDelete
 1682              		.align	2
 1683              		.global	MDS_ChainCurNodeInsert
 1684              		.type	MDS_ChainCurNodeInsert, %function
 1685              	MDS_ChainCurNodeInsert:
 1686              		.fnstart
 1687              	.LFB27:
 997:../mindows/mds_core_c.c **** {
 1688              		.loc 1 997 0
 1689              		.cfi_startproc
 1690              		@ Function supports interworking.
 1691              		@ args = 0, pretend = 0, frame = 0
 1692              		@ frame_needed = 0, uses_anonymous_args = 0
 1693              		@ link register save eliminated.
 1694              	.LVL102:
 999:../mindows/mds_core_c.c ****     if(pstrChain != pstrNode)
 1695              		.loc 1 999 0
 1696 07d0 010050E1 		cmp	r0, r1
 1697 07d4 0500000A 		beq	.L118
1002:../mindows/mds_core_c.c ****         pstrNode->pstrHead->pstrTail = pstrNewNode;
 1698              		.loc 1 1002 0
 1699 07d8 003091E5 		ldr	r3, [r1, #0]
 1700 07dc 042083E5 		str	r2, [r3, #4]
1005:../mindows/mds_core_c.c ****         pstrNewNode->pstrHead = pstrNode->pstrHead;
 1701              		.loc 1 1005 0
 1702 07e0 003082E5 		str	r3, [r2, #0]
1008:../mindows/mds_core_c.c ****         pstrNewNode->pstrTail = pstrNode;
 1703              		.loc 1 1008 0
 1704 07e4 041082E5 		str	r1, [r2, #4]
1011:../mindows/mds_core_c.c ****         pstrNode->pstrHead = pstrNewNode;
 1705              		.loc 1 1011 0
 1706 07e8 002081E5 		str	r2, [r1, #0]
 1707 07ec 1EFF2FE1 		bx	lr
 1708              	.L118:
 1709              	.LVL103:
 1710              	.LBB200:
ARM GAS  C:\DOCUME~1\ADMINI~1\LOCALS~1\Temp\cc1Hp51A.s 			page 55


 1711              	.LBB201:
 922:../mindows/mds_core_c.c ****     if(NULL != pstrChain->pstrTail)
 1712              		.loc 1 922 0
 1713 07f0 041090E5 		ldr	r1, [r0, #4]
 1714              	.LVL104:
 1715 07f4 000051E3 		cmp	r1, #0
 925:../mindows/mds_core_c.c ****         pstrNode->pstrHead = pstrChain->pstrHead;
 1716              		.loc 1 925 0
 1717 07f8 00109015 		ldrne	r1, [r0, #0]
 1718 07fc 00108215 		strne	r1, [r2, #0]
 931:../mindows/mds_core_c.c ****         pstrChain->pstrHead->pstrTail = pstrNode;
 1719              		.loc 1 931 0
 1720 0800 00109015 		ldrne	r1, [r0, #0]
 928:../mindows/mds_core_c.c ****         pstrNode->pstrTail = pstrChain;
 1721              		.loc 1 928 0
 1722 0804 04008215 		strne	r0, [r2, #4]
 939:../mindows/mds_core_c.c ****         pstrNode->pstrHead = pstrChain;
 1723              		.loc 1 939 0
 1724 0808 00008205 		streq	r0, [r2, #0]
 940:../mindows/mds_core_c.c ****         pstrNode->pstrTail = pstrChain;
 1725              		.loc 1 940 0
 1726 080c 04008205 		streq	r0, [r2, #4]
 934:../mindows/mds_core_c.c ****         pstrChain->pstrHead = pstrNode;
 1727              		.loc 1 934 0
 1728 0810 00208015 		strne	r2, [r0, #0]
 931:../mindows/mds_core_c.c ****         pstrChain->pstrHead->pstrTail = pstrNode;
 1729              		.loc 1 931 0
 1730 0814 04208115 		strne	r2, [r1, #4]
 943:../mindows/mds_core_c.c ****         pstrChain->pstrHead = pstrNode;
 1731              		.loc 1 943 0
 1732 0818 00208005 		streq	r2, [r0, #0]
 944:../mindows/mds_core_c.c ****         pstrChain->pstrTail = pstrNode;
 1733              		.loc 1 944 0
 1734 081c 04208005 		streq	r2, [r0, #4]
 1735 0820 1EFF2FE1 		bx	lr
 1736              	.LBE201:
 1737              	.LBE200:
 1738              		.cfi_endproc
 1739              	.LFE27:
 1740              		.fnend
 1741              		.size	MDS_ChainCurNodeInsert, .-MDS_ChainCurNodeInsert
 1742              		.align	2
 1743              		.global	MDS_ChainCurNodeDelete
 1744              		.type	MDS_ChainCurNodeDelete, %function
 1745              	MDS_ChainCurNodeDelete:
 1746              		.fnstart
 1747              	.LFB28:
1026:../mindows/mds_core_c.c **** {
 1748              		.loc 1 1026 0
 1749              		.cfi_startproc
 1750              		@ Function supports interworking.
 1751              		@ args = 0, pretend = 0, frame = 0
 1752              		@ frame_needed = 0, uses_anonymous_args = 0
 1753              		@ link register save eliminated.
 1754              	.LVL105:
1028:../mindows/mds_core_c.c ****     if(pstrChain != pstrNode)
 1755              		.loc 1 1028 0
ARM GAS  C:\DOCUME~1\ADMINI~1\LOCALS~1\Temp\cc1Hp51A.s 			page 56


 1756 0824 010050E1 		cmp	r0, r1
 1757 0828 1800000A 		beq	.L127
1031:../mindows/mds_core_c.c ****         if((pstrNode->pstrHead != pstrChain) || (pstrNode->pstrTail != pstrChain))
 1758              		.loc 1 1031 0
 1759 082c 003091E5 		ldr	r3, [r1, #0]
 1760 0830 000053E1 		cmp	r3, r0
 1761 0834 04209115 		ldrne	r2, [r1, #4]
 1762 0838 0300000A 		beq	.L129
 1763              	.L124:
1034:../mindows/mds_core_c.c ****             pstrNode->pstrHead->pstrTail = pstrNode->pstrTail;
 1764              		.loc 1 1034 0
 1765 083c 042083E5 		str	r2, [r3, #4]
1037:../mindows/mds_core_c.c ****             pstrNode->pstrTail->pstrHead = pstrNode->pstrHead;
 1766              		.loc 1 1037 0
 1767 0840 040091E5 		ldr	r0, [r1, #4]
 1768              	.LVL106:
 1769 0844 003080E5 		str	r3, [r0, #0]
1040:../mindows/mds_core_c.c ****             return pstrNode->pstrTail;
 1770              		.loc 1 1040 0
 1771 0848 1EFF2FE1 		bx	lr
 1772              	.LVL107:
 1773              	.L129:
1031:../mindows/mds_core_c.c ****         if((pstrNode->pstrHead != pstrChain) || (pstrNode->pstrTail != pstrChain))
 1774              		.loc 1 1031 0 discriminator 1
 1775 084c 042091E5 		ldr	r2, [r1, #4]
 1776 0850 020053E1 		cmp	r3, r2
 1777 0854 F8FFFF1A 		bne	.L124
 1778              	.LVL108:
 1779              	.LBB202:
 1780              	.LBB203:
 958:../mindows/mds_core_c.c ****     pstrTempNode = pstrChain->pstrTail;
 1781              		.loc 1 958 0
 1782 0858 040093E5 		ldr	r0, [r3, #4]
 1783              	.LVL109:
 961:../mindows/mds_core_c.c ****     if(NULL != pstrTempNode)
 1784              		.loc 1 961 0
 1785 085c 000050E3 		cmp	r0, #0
 1786 0860 1EFF2F01 		bxeq	lr
 964:../mindows/mds_core_c.c ****         if(pstrChain->pstrHead != pstrChain->pstrTail)
 1787              		.loc 1 964 0
 1788 0864 002093E5 		ldr	r2, [r3, #0]
 1789 0868 020050E1 		cmp	r0, r2
 967:../mindows/mds_core_c.c ****             pstrChain->pstrTail = pstrTempNode->pstrTail;
 1790              		.loc 1 967 0
 1791 086c 04209015 		ldrne	r2, [r0, #4]
 1792 0870 04208315 		strne	r2, [r3, #4]
 970:../mindows/mds_core_c.c ****             pstrTempNode->pstrTail->pstrHead = pstrChain;
 1793              		.loc 1 970 0
 1794 0874 04209015 		ldrne	r2, [r0, #4]
 975:../mindows/mds_core_c.c ****             pstrChain->pstrHead = (M_CHAIN*)NULL;
 1795              		.loc 1 975 0
 1796 0878 0000A003 		moveq	r0, #0
1047:../mindows/mds_core_c.c ****             return (M_CHAIN*)NULL;
 1797              		.loc 1 1047 0
 1798 087c 0000A013 		movne	r0, #0
 970:../mindows/mds_core_c.c ****             pstrTempNode->pstrTail->pstrHead = pstrChain;
 1799              		.loc 1 970 0
ARM GAS  C:\DOCUME~1\ADMINI~1\LOCALS~1\Temp\cc1Hp51A.s 			page 57


 1800 0880 00308215 		strne	r3, [r2, #0]
 975:../mindows/mds_core_c.c ****             pstrChain->pstrHead = (M_CHAIN*)NULL;
 1801              		.loc 1 975 0
 1802 0884 00008305 		streq	r0, [r3, #0]
 976:../mindows/mds_core_c.c ****             pstrChain->pstrTail = (M_CHAIN*)NULL;
 1803              		.loc 1 976 0
 1804 0888 04008305 		streq	r0, [r3, #4]
 1805 088c 1EFF2FE1 		bx	lr
 1806              	.LVL110:
 1807              	.L127:
 1808              	.LBE203:
 1809              	.LBE202:
1052:../mindows/mds_core_c.c ****         return (M_CHAIN*)NULL;
 1810              		.loc 1 1052 0
 1811 0890 0000A0E3 		mov	r0, #0
 1812              	.LVL111:
1054:../mindows/mds_core_c.c **** }
 1813              		.loc 1 1054 0
 1814 0894 1EFF2FE1 		bx	lr
 1815              		.cfi_endproc
 1816              	.LFE28:
 1817              		.fnend
 1818              		.size	MDS_ChainCurNodeDelete, .-MDS_ChainCurNodeDelete
 1819              		.align	2
 1820              		.global	MDS_TaskDelayTabSched
 1821              		.type	MDS_TaskDelayTabSched, %function
 1822              	MDS_TaskDelayTabSched:
 1823              		.fnstart
 1824              	.LFB16:
 545:../mindows/mds_core_c.c **** {
 1825              		.loc 1 545 0
 1826              		.cfi_startproc
 1827              		@ Function supports interworking.
 1828              		@ args = 0, pretend = 0, frame = 0
 1829              		@ frame_needed = 1, uses_anonymous_args = 0
 1830              	.LVL112:
 1831              		.movsp ip
 1832 0898 0DC0A0E1 		mov	ip, sp
 1833              	.LCFI18:
 1834              		.cfi_def_cfa_register 12
 1835 089c F8DF2DE9 		stmfd	sp!, {r3, r4, r5, r6, r7, r8, r9, sl, fp, ip, lr, pc}
 1836              		.pad #4
 1837              		.save {r3, r4, r5, r6, r7, r8, r9, sl, fp, ip, lr}
 1838              	.LBB204:
 1839              	.LBB205:
1063:../mindows/mds_core_c.c ****     return pstrChain->pstrTail;
 1840              		.loc 1 1063 0
 1841 08a0 F8309FE5 		ldr	r3, .L138
 1842              		.cfi_offset 14, -8
 1843              		.cfi_offset 13, -12
 1844              		.cfi_offset 11, -16
 1845              		.cfi_offset 10, -20
 1846              		.cfi_offset 9, -24
 1847              		.cfi_offset 8, -28
 1848              		.cfi_offset 7, -32
 1849              		.cfi_offset 6, -36
 1850              		.cfi_offset 5, -40
ARM GAS  C:\DOCUME~1\ADMINI~1\LOCALS~1\Temp\cc1Hp51A.s 			page 58


 1851              		.cfi_offset 4, -44
 1852              		.cfi_offset 3, -48
 1853 08a4 041093E5 		ldr	r1, [r3, #4]
 1854              	.LBE205:
 1855              	.LBE204:
 560:../mindows/mds_core_c.c ****     if(NULL != pstrDelayNode)
 1856              		.loc 1 560 0
 1857 08a8 000051E3 		cmp	r1, #0
 545:../mindows/mds_core_c.c **** {
 1858              		.loc 1 545 0
 1859              		.setfp fp, ip, #-4
 1860 08ac 04B04CE2 		sub	fp, ip, #4
 1861              	.LCFI19:
 1862              		.cfi_def_cfa 11, 4
 560:../mindows/mds_core_c.c ****     if(NULL != pstrDelayNode)
 1863              		.loc 1 560 0
 1864 08b0 3700000A 		beq	.L130
 605:../mindows/mds_core_c.c ****                 pstrChain = &gstrReadyTab.astrChain[ucTaskPrio];
 1865              		.loc 1 605 0
 1866 08b4 E8509FE5 		ldr	r5, .L138+4
 1867 08b8 E8709FE5 		ldr	r7, .L138+8
 599:../mindows/mds_core_c.c ****                     pstrTcb->strTaskOpt.uiDelayTick = RTN_SMTKTO;
 1868              		.loc 1 599 0
 1869 08bc 02A0A0E3 		mov	sl, #2
 605:../mindows/mds_core_c.c ****                 pstrChain = &gstrReadyTab.astrChain[ucTaskPrio];
 1870              		.loc 1 605 0
 1871 08c0 0560A0E1 		mov	r6, r5
 1872              	.LBB206:
 1873              	.LBB211:
 1874              	.LBB213:
 682:../mindows/mds_core_c.c ****     pstrPrioFlag->ucPrioFlagGrp1 |= (U8)(1 << ucTaskPrio);
 1875              		.loc 1 682 0
 1876 08c4 0180A0E3 		mov	r8, #1
 1877 08c8 160000EA 		b	.L136
 1878              	.LVL113:
 1879              	.L133:
 1880              	.LBE213:
 1881              	.LBE211:
 1882              	.LBE206:
 604:../mindows/mds_core_c.c ****                 ucTaskPrio = pstrTcb->ucTaskPrio;
 1883              		.loc 1 604 0
 1884 08cc 6830D4E5 		ldrb	r3, [r4, #104]	@ zero_extendqisi2
 605:../mindows/mds_core_c.c ****                 pstrChain = &gstrReadyTab.astrChain[ucTaskPrio];
 1885              		.loc 1 605 0
 1886 08d0 832185E0 		add	r2, r5, r3, asl #3
 1887              	.LBB221:
 1888              	.LBB215:
 1889              	.LBB217:
 922:../mindows/mds_core_c.c ****     if(NULL != pstrChain->pstrTail)
 1890              		.loc 1 922 0
 1891 08d4 041092E5 		ldr	r1, [r2, #4]
 1892 08d8 000051E3 		cmp	r1, #0
 925:../mindows/mds_core_c.c ****         pstrNode->pstrHead = pstrChain->pstrHead;
 1893              		.loc 1 925 0
 1894 08dc 83019617 		ldrne	r0, [r6, r3, asl #3]
 1895              	.LBE217:
 1896              	.LBE215:
ARM GAS  C:\DOCUME~1\ADMINI~1\LOCALS~1\Temp\cc1Hp51A.s 			page 59


 1897              	.LBE221:
 603:../mindows/mds_core_c.c ****                 pstrNode = &pstrTcb->strTcbQue.strQueHead;
 1898              		.loc 1 603 0
 1899 08e0 44E084E2 		add	lr, r4, #68
 1900              	.LVL114:
 1901              	.LBB222:
 1902              	.LBB210:
 1903              	.LBB218:
 928:../mindows/mds_core_c.c ****         pstrNode->pstrTail = pstrChain;
 1904              		.loc 1 928 0
 1905 08e4 48208415 		strne	r2, [r4, #72]
 931:../mindows/mds_core_c.c ****         pstrChain->pstrHead->pstrTail = pstrNode;
 1906              		.loc 1 931 0
 1907 08e8 04E08015 		strne	lr, [r0, #4]
 1908              	.LBE218:
 1909              	.LBE210:
 1910              	.LBB209:
 1911              	.LBB212:
 682:../mindows/mds_core_c.c ****     pstrPrioFlag->ucPrioFlagGrp1 |= (U8)(1 << ucTaskPrio);
 1912              		.loc 1 682 0
 1913 08ec 40C0D5E5 		ldrb	ip, [r5, #64]	@ zero_extendqisi2
 1914              	.LBE212:
 1915              	.LBE209:
 1916              	.LBB208:
 1917              	.LBB216:
 944:../mindows/mds_core_c.c ****         pstrChain->pstrTail = pstrNode;
 1918              		.loc 1 944 0
 1919 08f0 04E08205 		streq	lr, [r2, #4]
 1920              	.LVL115:
 939:../mindows/mds_core_c.c ****         pstrNode->pstrHead = pstrChain;
 1921              		.loc 1 939 0
 1922 08f4 44208405 		streq	r2, [r4, #68]
 940:../mindows/mds_core_c.c ****         pstrNode->pstrTail = pstrChain;
 1923              		.loc 1 940 0
 1924 08f8 48208405 		streq	r2, [r4, #72]
 1925              	.LBE216:
 1926              	.LBE208:
 1927              	.LBB207:
 1928              	.LBB214:
 682:../mindows/mds_core_c.c ****     pstrPrioFlag->ucPrioFlagGrp1 |= (U8)(1 << ucTaskPrio);
 1929              		.loc 1 682 0
 1930 08fc 18238CE1 		orr	r2, ip, r8, asl r3
 1931              	.LVL116:
 1932 0900 4020C5E5 		strb	r2, [r5, #64]
 1933              	.LBE214:
 1934              	.LBE207:
 1935              	.LBE222:
 613:../mindows/mds_core_c.c ****                 pstrTcb->strTaskOpt.ucTaskSta |= TASKREADY;
 1936              		.loc 1 613 0
 1937 0904 6C10D4E5 		ldrb	r1, [r4, #108]	@ zero_extendqisi2
 1938              	.LBB223:
 1939              	.LBB220:
 1940              	.LBB219:
 934:../mindows/mds_core_c.c ****         pstrChain->pstrHead = pstrNode;
 1941              		.loc 1 934 0
 1942 0908 83E18617 		strne	lr, [r6, r3, asl #3]
 943:../mindows/mds_core_c.c ****         pstrChain->pstrHead = pstrNode;
ARM GAS  C:\DOCUME~1\ADMINI~1\LOCALS~1\Temp\cc1Hp51A.s 			page 60


 1943              		.loc 1 943 0
 1944 090c 83E18607 		streq	lr, [r6, r3, asl #3]
 925:../mindows/mds_core_c.c ****         pstrNode->pstrHead = pstrChain->pstrHead;
 1945              		.loc 1 925 0
 1946 0910 44008415 		strne	r0, [r4, #68]
 1947              	.LBE219:
 1948              	.LBE220:
 1949              	.LBE223:
 613:../mindows/mds_core_c.c ****                 pstrTcb->strTaskOpt.ucTaskSta |= TASKREADY;
 1950              		.loc 1 613 0
 1951 0914 02E081E3 		orr	lr, r1, #2
 1952              	.LVL117:
 616:../mindows/mds_core_c.c ****                 if(NULL == pstrNextNode)
 1953              		.loc 1 616 0
 1954 0918 000059E3 		cmp	r9, #0
 613:../mindows/mds_core_c.c ****                 pstrTcb->strTaskOpt.ucTaskSta |= TASKREADY;
 1955              		.loc 1 613 0
 1956 091c 6CE0C4E5 		strb	lr, [r4, #108]
 616:../mindows/mds_core_c.c ****                 if(NULL == pstrNextNode)
 1957              		.loc 1 616 0
 1958 0920 1B00000A 		beq	.L130
 622:../mindows/mds_core_c.c ****                     pstrDelayNode = pstrNextNode;
 1959              		.loc 1 622 0
 1960 0924 0910A0E1 		mov	r1, r9
 1961              	.LVL118:
 1962              	.L136:
 567:../mindows/mds_core_c.c ****             pstrTcb = pstrDelayQue->pstrTcb;
 1963              		.loc 1 567 0
 1964 0928 084091E5 		ldr	r4, [r1, #8]
 1965              	.LVL119:
 571:../mindows/mds_core_c.c ****             if(uiTick == guiTick)
 1966              		.loc 1 571 0
 1967 092c 00C097E5 		ldr	ip, [r7, #0]
 1968 0930 742094E5 		ldr	r2, [r4, #116]
 1969 0934 0C0052E1 		cmp	r2, ip
 574:../mindows/mds_core_c.c ****                 pstrNextNode = MDS_ChainCurNodeDelete(&gstrDelayTab, pstrDelayNode);
 1970              		.loc 1 574 0
 1971 0938 60009FE5 		ldr	r0, .L138
 571:../mindows/mds_core_c.c ****             if(uiTick == guiTick)
 1972              		.loc 1 571 0
 1973 093c 1400001A 		bne	.L130
 574:../mindows/mds_core_c.c ****                 pstrNextNode = MDS_ChainCurNodeDelete(&gstrDelayTab, pstrDelayNode);
 1974              		.loc 1 574 0
 1975 0940 FEFFFFEB 		bl	MDS_ChainCurNodeDelete
 1976              	.LVL120:
 581:../mindows/mds_core_c.c ****                 if(TASKDELAY == (TASKDELAY & pstrTcb->strTaskOpt.ucTaskSta))
 1977              		.loc 1 581 0
 1978 0944 6C30D4E5 		ldrb	r3, [r4, #108]	@ zero_extendqisi2
 577:../mindows/mds_core_c.c ****                 pstrTcb->uiTaskFlag &= (~((U32)DELAYQUEFLAG));
 1979              		.loc 1 577 0
 1980 0948 642094E5 		ldr	r2, [r4, #100]
 581:../mindows/mds_core_c.c ****                 if(TASKDELAY == (TASKDELAY & pstrTcb->strTaskOpt.ucTaskSta))
 1981              		.loc 1 581 0
 1982 094c 040013E3 		tst	r3, #4
 577:../mindows/mds_core_c.c ****                 pstrTcb->uiTaskFlag &= (~((U32)DELAYQUEFLAG));
 1983              		.loc 1 577 0
 1984 0950 0110C2E3 		bic	r1, r2, #1
ARM GAS  C:\DOCUME~1\ADMINI~1\LOCALS~1\Temp\cc1Hp51A.s 			page 61


 584:../mindows/mds_core_c.c ****                     pstrTcb->strTaskOpt.ucTaskSta &= ~((U8)TASKDELAY);
 1985              		.loc 1 584 0
 1986 0954 0430C313 		bicne	r3, r3, #4
 574:../mindows/mds_core_c.c ****                 pstrNextNode = MDS_ChainCurNodeDelete(&gstrDelayTab, pstrDelayNode);
 1987              		.loc 1 574 0
 1988 0958 0090A0E1 		mov	r9, r0
 1989              	.LVL121:
 577:../mindows/mds_core_c.c ****                 pstrTcb->uiTaskFlag &= (~((U32)DELAYQUEFLAG));
 1990              		.loc 1 577 0
 1991 095c 641084E5 		str	r1, [r4, #100]
 584:../mindows/mds_core_c.c ****                     pstrTcb->strTaskOpt.ucTaskSta &= ~((U8)TASKDELAY);
 1992              		.loc 1 584 0
 1993 0960 6C30C415 		strneb	r3, [r4, #108]
 587:../mindows/mds_core_c.c ****                     pstrTcb->strTaskOpt.uiDelayTick = RTN_TKDLTO;
 1994              		.loc 1 587 0
 1995 0964 70A08415 		strne	sl, [r4, #112]
 581:../mindows/mds_core_c.c ****                 if(TASKDELAY == (TASKDELAY & pstrTcb->strTaskOpt.ucTaskSta))
 1996              		.loc 1 581 0
 1997 0968 D7FFFF1A 		bne	.L133
 590:../mindows/mds_core_c.c ****                 else if(TASKPEND == (TASKPEND& pstrTcb->strTaskOpt.ucTaskSta))
 1998              		.loc 1 590 0
 1999 096c 080013E3 		tst	r3, #8
 2000 0970 D5FFFF0A 		beq	.L133
 593:../mindows/mds_core_c.c ****                     (void)MDS_TaskDelFromSemTab(gpstrCurTcb);
 2001              		.loc 1 593 0
 2002 0974 30009FE5 		ldr	r0, .L138+12
 2003              	.LVL122:
 2004 0978 000090E5 		ldr	r0, [r0, #0]
 2005 097c FEFFFFEB 		bl	MDS_TaskDelFromSemTab
 596:../mindows/mds_core_c.c ****                     pstrTcb->strTaskOpt.ucTaskSta &= ~((U8)TASKPEND);
 2006              		.loc 1 596 0
 2007 0980 6CC0D4E5 		ldrb	ip, [r4, #108]	@ zero_extendqisi2
 2008 0984 0830CCE3 		bic	r3, ip, #8
 2009 0988 6C30C4E5 		strb	r3, [r4, #108]
 599:../mindows/mds_core_c.c ****                     pstrTcb->strTaskOpt.uiDelayTick = RTN_SMTKTO;
 2010              		.loc 1 599 0
 2011 098c 70A084E5 		str	sl, [r4, #112]
 2012 0990 CDFFFFEA 		b	.L133
 2013              	.LVL123:
 2014              	.L130:
 631:../mindows/mds_core_c.c **** }
 2015              		.loc 1 631 0
 2016 0994 2CD04BE2 		sub	sp, fp, #44
 2017 0998 F86F9DE8 		ldmfd	sp, {r3, r4, r5, r6, r7, r8, r9, sl, fp, sp, lr}
 2018 099c 1EFF2FE1 		bx	lr
 2019              	.L139:
 2020              		.align	2
 2021              	.L138:
 2022 09a0 00000000 		.word	gstrDelayTab
 2023 09a4 00000000 		.word	gstrReadyTab
 2024 09a8 00000000 		.word	guiTick
 2025 09ac 00000000 		.word	gpstrCurTcb
 2026              		.cfi_endproc
 2027              	.LFE16:
 2028              		.fnend
 2029              		.size	MDS_TaskDelayTabSched, .-MDS_TaskDelayTabSched
 2030              		.align	2
ARM GAS  C:\DOCUME~1\ADMINI~1\LOCALS~1\Temp\cc1Hp51A.s 			page 62


 2031              		.global	MDS_TaskSched
 2032              		.type	MDS_TaskSched, %function
 2033              	MDS_TaskSched:
 2034              		.fnstart
 2035              	.LFB13:
 463:../mindows/mds_core_c.c **** {
 2036              		.loc 1 463 0
 2037              		.cfi_startproc
 2038              		@ Function supports interworking.
 2039              		@ args = 0, pretend = 0, frame = 0
 2040              		@ frame_needed = 1, uses_anonymous_args = 0
 2041              		.movsp ip
 2042 09b0 0DC0A0E1 		mov	ip, sp
 2043              	.LCFI20:
 2044              		.cfi_def_cfa_register 12
 2045 09b4 30D82DE9 		stmfd	sp!, {r4, r5, fp, ip, lr, pc}
 2046              		.pad #4
 2047              		.save {r4, r5, fp, ip, lr}
 2048              	.LBB224:
 2049              	.LBB227:
 2050              	.LBB231:
 2051              	.LBB232:
1063:../mindows/mds_core_c.c ****     return pstrChain->pstrTail;
 2052              		.loc 1 1063 0
 2053 09b8 78409FE5 		ldr	r4, .L144
 2054              		.cfi_offset 14, -8
 2055              		.cfi_offset 13, -12
 2056              		.cfi_offset 11, -16
 2057              		.cfi_offset 5, -20
 2058              		.cfi_offset 4, -24
 2059              	.LBE232:
 2060              	.LBE231:
 2061              	.LBE227:
 2062              	.LBE224:
 463:../mindows/mds_core_c.c **** {
 2063              		.loc 1 463 0
 2064              		.setfp fp, ip, #-4
 2065 09bc 04B04CE2 		sub	fp, ip, #4
 2066              	.LCFI21:
 2067              		.cfi_def_cfa 11, 4
 467:../mindows/mds_core_c.c ****     MDS_TaskDelayTabSched();
 2068              		.loc 1 467 0
 2069 09c0 FEFFFFEB 		bl	MDS_TaskDelayTabSched
 2070              	.LVL124:
 2071              	.LBB236:
 2072              	.LBB226:
 533:../mindows/mds_core_c.c ****     pstrTaskQue = (M_TCBQUE*)MDS_ChainEmpInq(&gstrReadyTab.astrChain[ucTaskPrio]);
 2073              		.loc 1 533 0
 2074 09c4 70509FE5 		ldr	r5, .L144+4
 2075              	.LBB229:
 2076              	.LBB230:
 790:../mindows/mds_core_c.c ****     return caucTaskPrioUnmapTab[pstrPrioFlag->ucPrioFlagGrp1];
 2077              		.loc 1 790 0
 2078 09c8 40C0D4E5 		ldrb	ip, [r4, #64]	@ zero_extendqisi2
 2079              	.LBE230:
 2080              	.LBE229:
 2081              	.LBE226:
ARM GAS  C:\DOCUME~1\ADMINI~1\LOCALS~1\Temp\cc1Hp51A.s 			page 63


 2082              	.LBE236:
 475:../mindows/mds_core_c.c ****     if((VFHSWT)NULL != gvfTaskSwitchHook)
 2083              		.loc 1 475 0
 2084 09cc 6C309FE5 		ldr	r3, .L144+8
 2085              	.LBB237:
 2086              	.LBB234:
 533:../mindows/mds_core_c.c ****     pstrTaskQue = (M_TCBQUE*)MDS_ChainEmpInq(&gstrReadyTab.astrChain[ucTaskPrio]);
 2087              		.loc 1 533 0
 2088 09d0 0C10D5E7 		ldrb	r1, [r5, ip]	@ zero_extendqisi2
 2089              	.LBE234:
 2090              	.LBE237:
 475:../mindows/mds_core_c.c ****     if((VFHSWT)NULL != gvfTaskSwitchHook)
 2091              		.loc 1 475 0
 2092 09d4 003093E5 		ldr	r3, [r3, #0]
 2093              	.LBB238:
 2094              	.LBB225:
 2095              	.LBB228:
 2096              	.LBB233:
1063:../mindows/mds_core_c.c ****     return pstrChain->pstrTail;
 2097              		.loc 1 1063 0
 2098 09d8 810184E0 		add	r0, r4, r1, asl #3
 2099              	.LBE233:
 2100              	.LBE228:
 534:../mindows/mds_core_c.c ****     pstrTcb = pstrTaskQue->pstrTcb;
 2101              		.loc 1 534 0
 2102 09dc 042090E5 		ldr	r2, [r0, #4]
 2103              	.LBE225:
 2104              	.LBE238:
 475:../mindows/mds_core_c.c ****     if((VFHSWT)NULL != gvfTaskSwitchHook)
 2105              		.loc 1 475 0
 2106 09e0 000053E3 		cmp	r3, #0
 2107              	.LBB239:
 2108              	.LBB235:
 534:../mindows/mds_core_c.c ****     pstrTcb = pstrTaskQue->pstrTcb;
 2109              		.loc 1 534 0
 2110 09e4 084092E5 		ldr	r4, [r2, #8]
 2111              	.LVL125:
 2112              	.LBE235:
 2113              	.LBE239:
 475:../mindows/mds_core_c.c ****     if((VFHSWT)NULL != gvfTaskSwitchHook)
 2114              		.loc 1 475 0
 2115 09e8 0F00000A 		beq	.L143
 478:../mindows/mds_core_c.c ****         if(pstrTcb != gpstrCurTcb)
 2116              		.loc 1 478 0
 2117 09ec 50509FE5 		ldr	r5, .L144+12
 2118 09f0 000095E5 		ldr	r0, [r5, #0]
 2119              	.LVL126:
 2120 09f4 040050E1 		cmp	r0, r4
 2121 09f8 0300000A 		beq	.L142
 480:../mindows/mds_core_c.c ****             gvfTaskSwitchHook(gpstrCurTcb, pstrTcb);
 2122              		.loc 1 480 0
 2123 09fc 0410A0E1 		mov	r1, r4
 2124 0a00 0FE0A0E1 		mov	lr, pc
 2125 0a04 13FF2FE1 		bx	r3
 2126              	.LVL127:
 2127 0a08 000095E5 		ldr	r0, [r5, #0]
 2128              	.L142:
ARM GAS  C:\DOCUME~1\ADMINI~1\LOCALS~1\Temp\cc1Hp51A.s 			page 64


 2129              	.LVL128:
 2130              	.LBB240:
 2131              	.LBB241:
 142:../mindows/mds_core_c.c ****     gpstrCurTaskSpAddr = &gpstrCurTcb->strStackReg;
 2132              		.loc 1 142 0
 2133 0a0c 34209FE5 		ldr	r2, .L144+16
 146:../mindows/mds_core_c.c ****     gpstrNextTaskSpAddr = &pstrTcb->strStackReg;
 2134              		.loc 1 146 0
 2135 0a10 34E09FE5 		ldr	lr, .L144+20
 142:../mindows/mds_core_c.c ****     gpstrCurTaskSpAddr = &gpstrCurTcb->strStackReg;
 2136              		.loc 1 142 0
 2137 0a14 000082E5 		str	r0, [r2, #0]
 146:../mindows/mds_core_c.c ****     gpstrNextTaskSpAddr = &pstrTcb->strStackReg;
 2138              		.loc 1 146 0
 2139 0a18 00408EE5 		str	r4, [lr, #0]
 149:../mindows/mds_core_c.c ****     gpstrCurTcb = pstrTcb;
 2140              		.loc 1 149 0
 2141 0a1c 004085E5 		str	r4, [r5, #0]
 2142              	.LBE241:
 2143              	.LBE240:
 488:../mindows/mds_core_c.c **** }
 2144              		.loc 1 488 0
 2145 0a20 14D04BE2 		sub	sp, fp, #20
 2146 0a24 30689DE8 		ldmfd	sp, {r4, r5, fp, sp, lr}
 2147 0a28 1EFF2FE1 		bx	lr
 2148              	.LVL129:
 2149              	.L143:
 475:../mindows/mds_core_c.c ****     if((VFHSWT)NULL != gvfTaskSwitchHook)
 2150              		.loc 1 475 0
 2151 0a2c 10509FE5 		ldr	r5, .L144+12
 2152 0a30 000095E5 		ldr	r0, [r5, #0]
 2153 0a34 F4FFFFEA 		b	.L142
 2154              	.L145:
 2155              		.align	2
 2156              	.L144:
 2157 0a38 00000000 		.word	gstrReadyTab
 2158 0a3c 00000000 		.word	.LANCHOR0
 2159 0a40 00000000 		.word	gvfTaskSwitchHook
 2160 0a44 00000000 		.word	gpstrCurTcb
 2161 0a48 00000000 		.word	gpstrCurTaskSpAddr
 2162 0a4c 00000000 		.word	gpstrNextTaskSpAddr
 2163              		.cfi_endproc
 2164              	.LFE13:
 2165              		.fnend
 2166              		.size	MDS_TaskSched, .-MDS_TaskSched
 2167              		.align	2
 2168              		.global	MDS_TaskTick
 2169              		.type	MDS_TaskTick, %function
 2170              	MDS_TaskTick:
 2171              		.fnstart
 2172              	.LFB3:
 125:../mindows/mds_core_c.c **** {
 2173              		.loc 1 125 0
 2174              		.cfi_startproc
 2175              		@ Function supports interworking.
 2176              		@ args = 0, pretend = 0, frame = 0
 2177              		@ frame_needed = 0, uses_anonymous_args = 0
ARM GAS  C:\DOCUME~1\ADMINI~1\LOCALS~1\Temp\cc1Hp51A.s 			page 65


 2178              		@ link register save eliminated.
 127:../mindows/mds_core_c.c ****     guiTick++;
 2179              		.loc 1 127 0
 2180 0a50 0C309FE5 		ldr	r3, .L147
 2181 0a54 000093E5 		ldr	r0, [r3, #0]
 2182 0a58 012080E2 		add	r2, r0, #1
 2183 0a5c 002083E5 		str	r2, [r3, #0]
 131:../mindows/mds_core_c.c **** }
 2184              		.loc 1 131 0
 130:../mindows/mds_core_c.c ****     MDS_TaskSched();
 2185              		.loc 1 130 0
 2186 0a60 FEFFFFEA 		b	MDS_TaskSched
 2187              	.L148:
 2188              		.align	2
 2189              	.L147:
 2190 0a64 00000000 		.word	guiTick
 2191              		.cfi_endproc
 2192              	.LFE3:
 2193              		.fnend
 2194              		.size	MDS_TaskTick, .-MDS_TaskTick
 2195              		.align	2
 2196              		.global	MDS_ChainEmpInq
 2197              		.type	MDS_ChainEmpInq, %function
 2198              	MDS_ChainEmpInq:
 2199              		.fnstart
 2200              	.LFB29:
1062:../mindows/mds_core_c.c **** {
 2201              		.loc 1 1062 0
 2202              		.cfi_startproc
 2203              		@ Function supports interworking.
 2204              		@ args = 0, pretend = 0, frame = 0
 2205              		@ frame_needed = 0, uses_anonymous_args = 0
 2206              		@ link register save eliminated.
 2207              	.LVL130:
1064:../mindows/mds_core_c.c **** }
 2208              		.loc 1 1064 0
 2209 0a68 040090E5 		ldr	r0, [r0, #4]
 2210              	.LVL131:
 2211 0a6c 1EFF2FE1 		bx	lr
 2212              		.cfi_endproc
 2213              	.LFE29:
 2214              		.fnend
 2215              		.size	MDS_ChainEmpInq, .-MDS_ChainEmpInq
 2216              		.align	2
 2217              		.global	MDS_ChainNextNodeEmpInq
 2218              		.type	MDS_ChainNextNodeEmpInq, %function
 2219              	MDS_ChainNextNodeEmpInq:
 2220              		.fnstart
 2221              	.LFB30:
1073:../mindows/mds_core_c.c **** {
 2222              		.loc 1 1073 0
 2223              		.cfi_startproc
 2224              		@ Function supports interworking.
 2225              		@ args = 0, pretend = 0, frame = 0
 2226              		@ frame_needed = 0, uses_anonymous_args = 0
 2227              		@ link register save eliminated.
 2228              	.LVL132:
ARM GAS  C:\DOCUME~1\ADMINI~1\LOCALS~1\Temp\cc1Hp51A.s 			page 66


 2229              		.loc 1 1075 0
 2230 0a70 043091E5 		ldr	r3, [r1, #4]
1076:../mindows/mds_core_c.c ****     {
1077:../mindows/mds_core_c.c ****         return (M_CHAIN*)NULL;
1078:../mindows/mds_core_c.c ****     }
1079:../mindows/mds_core_c.c ****     else
1080:../mindows/mds_core_c.c ****     {
1081:../mindows/mds_core_c.c ****         return pstrNode->pstrTail;
1082:../mindows/mds_core_c.c ****     }
1083:../mindows/mds_core_c.c **** }
 2231              		.loc 1 1083 0
 2232 0a74 000053E1 		cmp	r3, r0
 2233 0a78 0300A011 		movne	r0, r3
 2234              	.LVL133:
 2235 0a7c 0000A003 		moveq	r0, #0
 2236 0a80 1EFF2FE1 		bx	lr
 2237              		.cfi_endproc
 2238              	.LFE30:
 2239              		.fnend
 2240              		.size	MDS_ChainNextNodeEmpInq, .-MDS_ChainNextNodeEmpInq
 2241              		.global	caucTaskPrioUnmapTab
 2242              		.comm	gstrReadyTab,68,4
 2243              		.comm	gstrDelayTab,8,4
 2244              		.comm	guiTick,4,4
 2245              		.comm	gpstrCurTaskSpAddr,4,4
 2246              		.comm	gpstrNextTaskSpAddr,4,4
 2247              		.comm	gpstrCurTcb,4,4
 2248              		.comm	gpstrRootTaskTcb,4,4
 2249              		.comm	gpstrIdleTaskTcb,4,4
 2250              		.comm	guiIntLockCounter,4,4
 2251              		.section	.rodata
 2252              		.align	2
 2253              	.LANCHOR0 = . + 0
 2254              		.type	caucTaskPrioUnmapTab, %object
 2255              		.size	caucTaskPrioUnmapTab, 256
 2256              	caucTaskPrioUnmapTab:
 2257 0000 00       		.byte	0
 2258 0001 00       		.byte	0
 2259 0002 01       		.byte	1
 2260 0003 00       		.byte	0
 2261 0004 02       		.byte	2
 2262 0005 00       		.byte	0
 2263 0006 01       		.byte	1
 2264 0007 00       		.byte	0
 2265 0008 03       		.byte	3
 2266 0009 00       		.byte	0
 2267 000a 01       		.byte	1
 2268 000b 00       		.byte	0
 2269 000c 02       		.byte	2
 2270 000d 00       		.byte	0
 2271 000e 01       		.byte	1
 2272 000f 00       		.byte	0
 2273 0010 04       		.byte	4
 2274 0011 00       		.byte	0
 2275 0012 01       		.byte	1
 2276 0013 00       		.byte	0
 2277 0014 02       		.byte	2
ARM GAS  C:\DOCUME~1\ADMINI~1\LOCALS~1\Temp\cc1Hp51A.s 			page 67


 2278 0015 00       		.byte	0
 2279 0016 01       		.byte	1
 2280 0017 00       		.byte	0
 2281 0018 03       		.byte	3
 2282 0019 00       		.byte	0
 2283 001a 01       		.byte	1
 2284 001b 00       		.byte	0
 2285 001c 02       		.byte	2
 2286 001d 00       		.byte	0
 2287 001e 01       		.byte	1
 2288 001f 00       		.byte	0
 2289 0020 05       		.byte	5
 2290 0021 00       		.byte	0
 2291 0022 01       		.byte	1
 2292 0023 00       		.byte	0
 2293 0024 02       		.byte	2
 2294 0025 00       		.byte	0
 2295 0026 01       		.byte	1
 2296 0027 00       		.byte	0
 2297 0028 03       		.byte	3
 2298 0029 00       		.byte	0
 2299 002a 01       		.byte	1
 2300 002b 00       		.byte	0
 2301 002c 02       		.byte	2
 2302 002d 00       		.byte	0
 2303 002e 01       		.byte	1
 2304 002f 00       		.byte	0
 2305 0030 04       		.byte	4
 2306 0031 00       		.byte	0
 2307 0032 01       		.byte	1
 2308 0033 00       		.byte	0
 2309 0034 02       		.byte	2
 2310 0035 00       		.byte	0
 2311 0036 01       		.byte	1
 2312 0037 00       		.byte	0
 2313 0038 03       		.byte	3
 2314 0039 00       		.byte	0
 2315 003a 01       		.byte	1
 2316 003b 00       		.byte	0
 2317 003c 02       		.byte	2
 2318 003d 00       		.byte	0
 2319 003e 01       		.byte	1
 2320 003f 00       		.byte	0
 2321 0040 06       		.byte	6
 2322 0041 00       		.byte	0
 2323 0042 01       		.byte	1
 2324 0043 00       		.byte	0
 2325 0044 02       		.byte	2
 2326 0045 00       		.byte	0
 2327 0046 01       		.byte	1
 2328 0047 00       		.byte	0
 2329 0048 03       		.byte	3
 2330 0049 00       		.byte	0
 2331 004a 01       		.byte	1
 2332 004b 00       		.byte	0
 2333 004c 02       		.byte	2
 2334 004d 00       		.byte	0
ARM GAS  C:\DOCUME~1\ADMINI~1\LOCALS~1\Temp\cc1Hp51A.s 			page 68


 2335 004e 01       		.byte	1
 2336 004f 00       		.byte	0
 2337 0050 04       		.byte	4
 2338 0051 00       		.byte	0
 2339 0052 01       		.byte	1
 2340 0053 00       		.byte	0
 2341 0054 02       		.byte	2
 2342 0055 00       		.byte	0
 2343 0056 01       		.byte	1
 2344 0057 00       		.byte	0
 2345 0058 03       		.byte	3
 2346 0059 00       		.byte	0
 2347 005a 01       		.byte	1
 2348 005b 00       		.byte	0
 2349 005c 02       		.byte	2
 2350 005d 00       		.byte	0
 2351 005e 01       		.byte	1
 2352 005f 00       		.byte	0
 2353 0060 05       		.byte	5
 2354 0061 00       		.byte	0
 2355 0062 01       		.byte	1
 2356 0063 00       		.byte	0
 2357 0064 02       		.byte	2
 2358 0065 00       		.byte	0
 2359 0066 01       		.byte	1
 2360 0067 00       		.byte	0
 2361 0068 03       		.byte	3
 2362 0069 00       		.byte	0
 2363 006a 01       		.byte	1
 2364 006b 00       		.byte	0
 2365 006c 02       		.byte	2
 2366 006d 00       		.byte	0
 2367 006e 01       		.byte	1
 2368 006f 00       		.byte	0
 2369 0070 04       		.byte	4
 2370 0071 00       		.byte	0
 2371 0072 01       		.byte	1
 2372 0073 00       		.byte	0
 2373 0074 02       		.byte	2
 2374 0075 00       		.byte	0
 2375 0076 01       		.byte	1
 2376 0077 00       		.byte	0
 2377 0078 03       		.byte	3
 2378 0079 00       		.byte	0
 2379 007a 01       		.byte	1
 2380 007b 00       		.byte	0
 2381 007c 02       		.byte	2
 2382 007d 00       		.byte	0
 2383 007e 01       		.byte	1
 2384 007f 00       		.byte	0
 2385 0080 07       		.byte	7
 2386 0081 00       		.byte	0
 2387 0082 01       		.byte	1
 2388 0083 00       		.byte	0
 2389 0084 02       		.byte	2
 2390 0085 00       		.byte	0
 2391 0086 01       		.byte	1
ARM GAS  C:\DOCUME~1\ADMINI~1\LOCALS~1\Temp\cc1Hp51A.s 			page 69


 2392 0087 00       		.byte	0
 2393 0088 03       		.byte	3
 2394 0089 00       		.byte	0
 2395 008a 01       		.byte	1
 2396 008b 00       		.byte	0
 2397 008c 02       		.byte	2
 2398 008d 00       		.byte	0
 2399 008e 01       		.byte	1
 2400 008f 00       		.byte	0
 2401 0090 04       		.byte	4
 2402 0091 00       		.byte	0
 2403 0092 01       		.byte	1
 2404 0093 00       		.byte	0
 2405 0094 02       		.byte	2
 2406 0095 00       		.byte	0
 2407 0096 01       		.byte	1
 2408 0097 00       		.byte	0
 2409 0098 03       		.byte	3
 2410 0099 00       		.byte	0
 2411 009a 01       		.byte	1
 2412 009b 00       		.byte	0
 2413 009c 02       		.byte	2
 2414 009d 00       		.byte	0
 2415 009e 01       		.byte	1
 2416 009f 00       		.byte	0
 2417 00a0 05       		.byte	5
 2418 00a1 00       		.byte	0
 2419 00a2 01       		.byte	1
 2420 00a3 00       		.byte	0
 2421 00a4 02       		.byte	2
 2422 00a5 00       		.byte	0
 2423 00a6 01       		.byte	1
 2424 00a7 00       		.byte	0
 2425 00a8 03       		.byte	3
 2426 00a9 00       		.byte	0
 2427 00aa 01       		.byte	1
 2428 00ab 00       		.byte	0
 2429 00ac 02       		.byte	2
 2430 00ad 00       		.byte	0
 2431 00ae 01       		.byte	1
 2432 00af 00       		.byte	0
 2433 00b0 04       		.byte	4
 2434 00b1 00       		.byte	0
 2435 00b2 01       		.byte	1
 2436 00b3 00       		.byte	0
 2437 00b4 02       		.byte	2
 2438 00b5 00       		.byte	0
 2439 00b6 01       		.byte	1
 2440 00b7 00       		.byte	0
 2441 00b8 03       		.byte	3
 2442 00b9 00       		.byte	0
 2443 00ba 01       		.byte	1
 2444 00bb 00       		.byte	0
 2445 00bc 02       		.byte	2
 2446 00bd 00       		.byte	0
 2447 00be 01       		.byte	1
 2448 00bf 00       		.byte	0
ARM GAS  C:\DOCUME~1\ADMINI~1\LOCALS~1\Temp\cc1Hp51A.s 			page 70


 2449 00c0 06       		.byte	6
 2450 00c1 00       		.byte	0
 2451 00c2 01       		.byte	1
 2452 00c3 00       		.byte	0
 2453 00c4 02       		.byte	2
 2454 00c5 00       		.byte	0
 2455 00c6 01       		.byte	1
 2456 00c7 00       		.byte	0
 2457 00c8 03       		.byte	3
 2458 00c9 00       		.byte	0
 2459 00ca 01       		.byte	1
 2460 00cb 00       		.byte	0
 2461 00cc 02       		.byte	2
 2462 00cd 00       		.byte	0
 2463 00ce 01       		.byte	1
 2464 00cf 00       		.byte	0
 2465 00d0 04       		.byte	4
 2466 00d1 00       		.byte	0
 2467 00d2 01       		.byte	1
 2468 00d3 00       		.byte	0
 2469 00d4 02       		.byte	2
 2470 00d5 00       		.byte	0
 2471 00d6 01       		.byte	1
 2472 00d7 00       		.byte	0
 2473 00d8 03       		.byte	3
 2474 00d9 00       		.byte	0
 2475 00da 01       		.byte	1
 2476 00db 00       		.byte	0
 2477 00dc 02       		.byte	2
 2478 00dd 00       		.byte	0
 2479 00de 01       		.byte	1
 2480 00df 00       		.byte	0
 2481 00e0 05       		.byte	5
 2482 00e1 00       		.byte	0
 2483 00e2 01       		.byte	1
 2484 00e3 00       		.byte	0
 2485 00e4 02       		.byte	2
 2486 00e5 00       		.byte	0
 2487 00e6 01       		.byte	1
 2488 00e7 00       		.byte	0
 2489 00e8 03       		.byte	3
 2490 00e9 00       		.byte	0
 2491 00ea 01       		.byte	1
 2492 00eb 00       		.byte	0
 2493 00ec 02       		.byte	2
 2494 00ed 00       		.byte	0
 2495 00ee 01       		.byte	1
 2496 00ef 00       		.byte	0
 2497 00f0 04       		.byte	4
 2498 00f1 00       		.byte	0
 2499 00f2 01       		.byte	1
 2500 00f3 00       		.byte	0
 2501 00f4 02       		.byte	2
 2502 00f5 00       		.byte	0
 2503 00f6 01       		.byte	1
 2504 00f7 00       		.byte	0
 2505 00f8 03       		.byte	3
ARM GAS  C:\DOCUME~1\ADMINI~1\LOCALS~1\Temp\cc1Hp51A.s 			page 71


 2506 00f9 00       		.byte	0
 2507 00fa 01       		.byte	1
 2508 00fb 00       		.byte	0
 2509 00fc 02       		.byte	2
 2510 00fd 00       		.byte	0
 2511 00fe 01       		.byte	1
 2512 00ff 00       		.byte	0
 2513              		.section	.rodata.str1.4,"aMS",%progbits,1
 2514              		.align	2
 2515              	.LC0:
 2516 0000 526F6F74 		.ascii	"Root\000"
 2516      00
 2517 0005 000000   		.space	3
 2518              	.LC1:
 2519 0008 49646C65 		.ascii	"Idle\000"
 2519      00
 2520 000d 000000   		.text
 2521              	.Letext0:
 7456              		.section	.note.GNU-stack,"",%progbits
ARM GAS  C:\DOCUME~1\ADMINI~1\LOCALS~1\Temp\cc1Hp51A.s 			page 167

